

HI-TECH Software PIC LITE Macro Assembler V9.83 build 10920 
                                                                                               Mon Oct 27 12:50:05 2014

HI-TECH Software Omniscient Code Generator (Lite mode) build 10920
     1  0000                     opt subtitle "HI-TECH Software Omniscient Code Generator (Lite mode) build 10920"
     2                           
     3                           opt pagewidth 120
     4                           
     5                           	opt lm
     6                           
     7                           	processor	16F877A
     8                           clrc	macro
     9                           	bcf	3,0
    10  0000                     	endm
    11                           clrz	macro
    12                           	bcf	3,2
    13  0000                     	endm
    14                           setc	macro
    15                           	bsf	3,0
    16  0000                     	endm
    17                           setz	macro
    18                           	bsf	3,2
    19  0000                     	endm
    20                           skipc	macro
    21                           	btfss	3,0
    22  0000                     	endm
    23                           skipz	macro
    24                           	btfss	3,2
    25  0000                     	endm
    26                           skipnc	macro
    27                           	btfsc	3,0
    28  0000                     	endm
    29                           skipnz	macro
    30                           	btfsc	3,2
    31  0000                     	endm
    32  0000                     indf	equ	0
    33  0000                     indf0	equ	0
    34  0002                     pc	equ	2
    35  0002                     pcl	equ	2
    36  0003                     status	equ	3
    37  0004                     fsr	equ	4
    38  0004                     fsr0	equ	4
    39  0001                     c	equ	1
    40  0000                     z	equ	0
    41  000A                     pclath	equ	10
    42                           # 3 "F:\pic projects\BUSSERVER\servertest.c"
    43                           	psect config,class=CONFIG,delta=2 ;#
    44                           # 3 "F:\pic projects\BUSSERVER\servertest.c"
    45  2007  FF72               	dw 0xFFFE & 0xFFFB & 0xFFF7 & 0xFFFF & 0xFFFF & 0xFF7F & 0xFFFF & 0xFFFF ;#
    46                           	FNCALL	_main,_uart_init
    47                           	FNCALL	_main,_lcdcmd
    48                           	FNCALL	_main,_delay
    49                           	FNCALL	_main,_display
    50                           	FNCALL	_main,_lcddata
    51                           	FNCALL	_main,_TXS
    52                           	FNCALL	_main,_TX
    53                           	FNCALL	_display,_lcddata
    54                           	FNCALL	_display,_delay
    55                           	FNCALL	_TXS,_TX
    56                           	FNCALL	_TXS,_delay
    57                           	FNCALL	_lcddata,_delay
    58                           	FNCALL	_lcdcmd,_delay
    59                           	FNROOT	_main
    60                           	FNCALL	intlevel1,_receive
    61                           	global	intlevel1
    62                           	FNROOT	intlevel1
    63                           	global	_aa
    64                           	global	_gg
    65                           	global	_ii
    66                           	global	_intrf
    67                           	global	_MSG
    68                           	global	_OF
    69                           	global	_ON
    70                           	global	_serial_chk
    71                           	global	_AA
    72                           	global	_TT
    73                           	global	__SMS
    74                           	global	_ff
    75                           	global	_hh
    76                           	global	_qq
    77                           	global	_b
    78                           	global	_bb
    79                           	global	_c
    80                           	global	_d
    81                           	global	_INTCON
    82                           psect	text372,local,class=CODE,delta=2
    83                           global __ptext372
    84  0000                     __ptext372:
    85  000B                     _INTCON	set	11
    86                           	global	_PORTB
    87  0006                     _PORTB	set	6
    88                           	global	_RCREG
    89  001A                     _RCREG	set	26
    90                           	global	_RCSTA
    91  0018                     _RCSTA	set	24
    92                           	global	_TXREG
    93  0019                     _TXREG	set	25
    94                           	global	_CARRY
    95  0018                     _CARRY	set	24
    96                           	global	_GIE
    97  005F                     _GIE	set	95
    98                           	global	_RC0
    99  0038                     _RC0	set	56
   100                           	global	_RC1
   101  0039                     _RC1	set	57
   102                           	global	_RC2
   103  003A                     _RC2	set	58
   104                           	global	_RC3
   105  003B                     _RC3	set	59
   106                           	global	_RCIF
   107  0065                     _RCIF	set	101
   108                           	global	_RD0
   109  0040                     _RD0	set	64
   110                           	global	_RD1
   111  0041                     _RD1	set	65
   112                           	global	_RD2
   113  0042                     _RD2	set	66
   114                           	global	_RD3
   115  0043                     _RD3	set	67
   116                           	global	_RD6
   117  0046                     _RD6	set	70
   118                           	global	_RD7
   119  0047                     _RD7	set	71
   120                           	global	_SPBRG
   121  0099                     _SPBRG	set	153
   122                           	global	_TRISB
   123  0086                     _TRISB	set	134
   124                           	global	_TRISC
   125  0087                     _TRISC	set	135
   126                           	global	_TRISD
   127  0088                     _TRISD	set	136
   128                           	global	_TXSTA
   129  0098                     _TXSTA	set	152
   130                           	global	_RCIE
   131  0465                     _RCIE	set	1125
   132                           	global	_TRISC6
   133  043E                     _TRISC6	set	1086
   134                           	global	_TRISC7
   135  043F                     _TRISC7	set	1087
   136                           	global	_TRMT
   137  04C1                     _TRMT	set	1217
   138                           	global	_EEADR
   139  010D                     _EEADR	set	269
   140                           	global	_EEDATA
   141  010C                     _EEDATA	set	268
   142                           	global	_EECON1
   143  018C                     _EECON1	set	396
   144                           	global	_EECON2
   145  018D                     _EECON2	set	397
   146                           	global	_RD
   147  0C60                     _RD	set	3168
   148                           	global	_WR
   149  0C61                     _WR	set	3169
   150                           	global	_WREN
   151  0C62                     _WREN	set	3170
   152                           psect	strings,class=STRING,delta=2
   153                           global __pstrings
   154  0800                     __pstrings:
   155                           ;	global	stringtab,__stringbase
   156  0800                     stringtab:
   157                           ;	String table - string pointers are 2 bytes each
   158  0800  1BFF               	btfsc	(btemp+1),7
   159  0801  280A               	ljmp	stringcode
   160  0802  1383               	bcf	status,7
   161  0803  187F               	btfsc	(btemp+1),0
   162  0804  1783               	bsf	status,7
   163  0805  0800               	movf	indf,w
   164  0806  0A84               	incf fsr
   165  0807  1903               skipnz
   166  0808  0AFF               incf btemp+1
   167  0809  0008               	return
   168  080A                     stringcode:
   169  080A  087F               	movf btemp+1,w
   170  080B  397F               andlw 7Fh
   171  080C  008A               movwf	pclath
   172  080D  0804               	movf	fsr,w
   173  080E  0A84               incf fsr
   174  080F  1903               skipnz
   175  0810  0AFF               incf btemp+1
   176  0811  0082               	movwf pc
   177  0812                     __stringbase:
   178                           psect	stringtext,class=STRCODE,delta=2,reloc=256
   179                           global __pstringtext
   180  0600                     __pstringtext:
   181                           	
   182  0600                     STR_33:	
   183  0600  3420               	retlw	32	;' '
   184  0601  3420               	retlw	32	;' '
   185  0602  3472               	retlw	114	;'r'
   186  0603  3465               	retlw	101	;'e'
   187  0604  3471               	retlw	113	;'q'
   188  0605  3475               	retlw	117	;'u'
   189  0606  3465               	retlw	101	;'e'
   190  0607  3473               	retlw	115	;'s'
   191  0608  3474               	retlw	116	;'t'
   192  0609  3420               	retlw	32	;' '
   193  060A  3473               	retlw	115	;'s'
   194  060B  3465               	retlw	101	;'e'
   195  060C  346E               	retlw	110	;'n'
   196  060D  3464               	retlw	100	;'d'
   197  060E  3420               	retlw	32	;' '
   198  060F  3420               	retlw	32	;' '
   199  0610  3420               	retlw	32	;' '
   200  0611  3400               	retlw	0
   201                           psect	stringtext
   202                           	
   203  0612                     STR_6:	
   204  0612  3420               	retlw	32	;' '
   205  0613  3470               	retlw	112	;'p'
   206  0614  346C               	retlw	108	;'l'
   207  0615  3473               	retlw	115	;'s'
   208  0616  3420               	retlw	32	;' '
   209  0617  3465               	retlw	101	;'e'
   210  0618  346E               	retlw	110	;'n'
   211  0619  3474               	retlw	116	;'t'
   212  061A  3465               	retlw	101	;'e'
   213  061B  3472               	retlw	114	;'r'
   214  061C  3420               	retlw	32	;' '
   215  061D  3463               	retlw	99	;'c'
   216  061E  3461               	retlw	97	;'a'
   217  061F  3472               	retlw	114	;'r'
   218  0620  3464               	retlw	100	;'d'
   219  0621  3420               	retlw	32	;' '
   220  0622  3420               	retlw	32	;' '
   221  0623  3400               	retlw	0
   222                           psect	stringtext
   223                           	
   224  0624                     STR_5:	
   225  0624  3420               	retlw	32	;' '
   226  0625  3420               	retlw	32	;' '
   227  0626  3420               	retlw	32	;' '
   228  0627  3420               	retlw	32	;' '
   229  0628  3420               	retlw	32	;' '
   230  0629  3457               	retlw	87	;'W'
   231  062A  3445               	retlw	69	;'E'
   232  062B  344C               	retlw	76	;'L'
   233  062C  3443               	retlw	67	;'C'
   234  062D  344F               	retlw	79	;'O'
   235  062E  344D               	retlw	77	;'M'
   236  062F  3445               	retlw	69	;'E'
   237  0630  3420               	retlw	32	;' '
   238  0631  3420               	retlw	32	;' '
   239  0632  3420               	retlw	32	;' '
   240  0633  3420               	retlw	32	;' '
   241  0634  3400               	retlw	0
   242                           psect	stringtext
   243                           	
   244  0635                     STR_12:	
   245  0635  3420               	retlw	32	;' '
   246  0636  3420               	retlw	32	;' '
   247  0637  3472               	retlw	114	;'r'
   248  0638  3465               	retlw	101	;'e'
   249  0639  3471               	retlw	113	;'q'
   250  063A  3475               	retlw	117	;'u'
   251  063B  3465               	retlw	101	;'e'
   252  063C  3473               	retlw	115	;'s'
   253  063D  3474               	retlw	116	;'t'
   254  063E  3420               	retlw	32	;' '
   255  063F  3473               	retlw	115	;'s'
   256  0640  3465               	retlw	101	;'e'
   257  0641  346E               	retlw	110	;'n'
   258  0642  3464               	retlw	100	;'d'
   259  0643  3420               	retlw	32	;' '
   260  0644  3420               	retlw	32	;' '
   261  0645  3400               	retlw	0
   262                           psect	stringtext
   263                           	
   264  0646                     STR_2:	
   265  0646  3420               	retlw	32	;' '
   266  0647  3420               	retlw	32	;' '
   267  0648  3444               	retlw	68	;'D'
   268  0649  3465               	retlw	101	;'e'
   269  064A  3470               	retlw	112	;'p'
   270  064B  3474               	retlw	116	;'t'
   271  064C  342E               	retlw	46	;'.'
   272  064D  3420               	retlw	32	;' '
   273  064E  346F               	retlw	111	;'o'
   274  064F  3466               	retlw	102	;'f'
   275  0650  3420               	retlw	32	;' '
   276  0651  3465               	retlw	101	;'e'
   277  0652  3463               	retlw	99	;'c'
   278  0653  3465               	retlw	101	;'e'
   279  0654  3420               	retlw	32	;' '
   280  0655  3420               	retlw	32	;' '
   281  0656  3400               	retlw	0
   282                           psect	stringtext
   283                           	
   284  0657                     STR_4:	
   285  0657  3420               	retlw	32	;' '
   286  0658  3420               	retlw	32	;' '
   287  0659  3420               	retlw	32	;' '
   288  065A  3466               	retlw	102	;'f'
   289  065B  3461               	retlw	97	;'a'
   290  065C  3472               	retlw	114	;'r'
   291  065D  3465               	retlw	101	;'e'
   292  065E  3420               	retlw	32	;' '
   293  065F  3453               	retlw	83	;'S'
   294  0660  3479               	retlw	121	;'y'
   295  0661  3473               	retlw	115	;'s'
   296  0662  3474               	retlw	116	;'t'
   297  0663  3465               	retlw	101	;'e'
   298  0664  346D               	retlw	109	;'m'
   299  0665  3420               	retlw	32	;' '
   300  0666  3420               	retlw	32	;' '
   301  0667  3400               	retlw	0
   302                           psect	stringtext
   303                           	
   304  0668                     STR_7:	
   305  0668  3420               	retlw	32	;' '
   306  0669  3465               	retlw	101	;'e'
   307  066A  346E               	retlw	110	;'n'
   308  066B  3474               	retlw	116	;'t'
   309  066C  3465               	retlw	101	;'e'
   310  066D  3472               	retlw	114	;'r'
   311  066E  3420               	retlw	32	;' '
   312  066F  346C               	retlw	108	;'l'
   313  0670  346F               	retlw	111	;'o'
   314  0671  3463               	retlw	99	;'c'
   315  0672  3461               	retlw	97	;'a'
   316  0673  3474               	retlw	116	;'t'
   317  0674  3469               	retlw	105	;'i'
   318  0675  346F               	retlw	111	;'o'
   319  0676  346E               	retlw	110	;'n'
   320  0677  3420               	retlw	32	;' '
   321  0678  3400               	retlw	0
   322                           psect	stringtext
   323                           	
   324  0679                     STR_13:	
   325  0679  3420               	retlw	32	;' '
   326  067A  342A               	retlw	42	;'*'
   327  067B  342A               	retlw	42	;'*'
   328  067C  342A               	retlw	42	;'*'
   329  067D  3420               	retlw	32	;' '
   330  067E  3477               	retlw	119	;'w'
   331  067F  3461               	retlw	97	;'a'
   332  0680  3469               	retlw	105	;'i'
   333  0681  3474               	retlw	116	;'t'
   334  0682  3469               	retlw	105	;'i'
   335  0683  346E               	retlw	110	;'n'
   336  0684  3467               	retlw	103	;'g'
   337  0685  3420               	retlw	32	;' '
   338  0686  342A               	retlw	42	;'*'
   339  0687  342A               	retlw	42	;'*'
   340  0688  342A               	retlw	42	;'*'
   341  0689  3400               	retlw	0
   342                           psect	stringtext
   343                           	
   344  068A                     STR_1:	
   345  068A  3420               	retlw	32	;' '
   346  068B  3420               	retlw	32	;' '
   347  068C  3447               	retlw	71	;'G'
   348  068D  3445               	retlw	69	;'E'
   349  068E  3443               	retlw	67	;'C'
   350  068F  3420               	retlw	32	;' '
   351  0690  3457               	retlw	87	;'W'
   352  0691  3461               	retlw	97	;'a'
   353  0692  3479               	retlw	121	;'y'
   354  0693  3461               	retlw	97	;'a'
   355  0694  346E               	retlw	110	;'n'
   356  0695  3461               	retlw	97	;'a'
   357  0696  3464               	retlw	100	;'d'
   358  0697  3420               	retlw	32	;' '
   359  0698  3420               	retlw	32	;' '
   360  0699  3400               	retlw	0
   361                           psect	stringtext
   362                           	
   363  069A                     STR_3:	
   364  069A  3420               	retlw	32	;' '
   365  069B  3420               	retlw	32	;' '
   366  069C  3441               	retlw	65	;'A'
   367  069D  3475               	retlw	117	;'u'
   368  069E  3474               	retlw	116	;'t'
   369  069F  346F               	retlw	111	;'o'
   370  06A0  346D               	retlw	109	;'m'
   371  06A1  3461               	retlw	97	;'a'
   372  06A2  3474               	retlw	116	;'t'
   373  06A3  3469               	retlw	105	;'i'
   374  06A4  3463               	retlw	99	;'c'
   375  06A5  3420               	retlw	32	;' '
   376  06A6  3462               	retlw	98	;'b'
   377  06A7  3475               	retlw	117	;'u'
   378  06A8  3473               	retlw	115	;'s'
   379  06A9  3400               	retlw	0
   380                           psect	stringtext
   381                           	
   382  06AA                     STR_8:	
   383  06AA  3424               	retlw	36	;'$'
   384  06AB  3431               	retlw	49	;'1'
   385  06AC  3430               	retlw	48	;'0'
   386  06AD  3430               	retlw	48	;'0'
   387  06AE  3431               	retlw	49	;'1'
   388  06AF  3430               	retlw	48	;'0'
   389  06B0  3400               	retlw	0
   390                           psect	stringtext
   391                           	
   392  06B1                     STR_15:	
   393  06B1  3424               	retlw	36	;'$'
   394  06B2  3431               	retlw	49	;'1'
   395  06B3  3430               	retlw	48	;'0'
   396  06B4  3431               	retlw	49	;'1'
   397  06B5  3431               	retlw	49	;'1'
   398  06B6  3430               	retlw	48	;'0'
   399  06B7  3400               	retlw	0
   400                           psect	stringtext
   401                           	
   402  06B8                     STR_22:	
   403  06B8  3424               	retlw	36	;'$'
   404  06B9  3431               	retlw	49	;'1'
   405  06BA  3430               	retlw	48	;'0'
   406  06BB  3432               	retlw	50	;'2'
   407  06BC  3431               	retlw	49	;'1'
   408  06BD  3430               	retlw	48	;'0'
   409  06BE  3400               	retlw	0
   410                           psect	stringtext
   411                           	
   412  06BF                     STR_29:	
   413  06BF  3424               	retlw	36	;'$'
   414  06C0  3431               	retlw	49	;'1'
   415  06C1  3430               	retlw	48	;'0'
   416  06C2  3433               	retlw	51	;'3'
   417  06C3  3431               	retlw	49	;'1'
   418  06C4  3430               	retlw	48	;'0'
   419  06C5  3400               	retlw	0
   420                           psect	stringtext
   421                           	
   422  06C6                     STR_9:	
   423  06C6  3424               	retlw	36	;'$'
   424  06C7  3431               	retlw	49	;'1'
   425  06C8  3430               	retlw	48	;'0'
   426  06C9  3430               	retlw	48	;'0'
   427  06CA  3431               	retlw	49	;'1'
   428  06CB  3431               	retlw	49	;'1'
   429  06CC  3400               	retlw	0
   430                           psect	stringtext
   431                           	
   432  06CD                     STR_16:	
   433  06CD  3424               	retlw	36	;'$'
   434  06CE  3431               	retlw	49	;'1'
   435  06CF  3430               	retlw	48	;'0'
   436  06D0  3431               	retlw	49	;'1'
   437  06D1  3431               	retlw	49	;'1'
   438  06D2  3431               	retlw	49	;'1'
   439  06D3  3400               	retlw	0
   440                           psect	stringtext
   441                           	
   442  06D4                     STR_23:	
   443  06D4  3424               	retlw	36	;'$'
   444  06D5  3431               	retlw	49	;'1'
   445  06D6  3430               	retlw	48	;'0'
   446  06D7  3432               	retlw	50	;'2'
   447  06D8  3431               	retlw	49	;'1'
   448  06D9  3431               	retlw	49	;'1'
   449  06DA  3400               	retlw	0
   450                           psect	stringtext
   451                           	
   452  06DB                     STR_30:	
   453  06DB  3424               	retlw	36	;'$'
   454  06DC  3431               	retlw	49	;'1'
   455  06DD  3430               	retlw	48	;'0'
   456  06DE  3433               	retlw	51	;'3'
   457  06DF  3431               	retlw	49	;'1'
   458  06E0  3431               	retlw	49	;'1'
   459  06E1  3400               	retlw	0
   460                           psect	stringtext
   461                           	
   462  06E2                     STR_10:	
   463  06E2  3424               	retlw	36	;'$'
   464  06E3  3431               	retlw	49	;'1'
   465  06E4  3430               	retlw	48	;'0'
   466  06E5  3430               	retlw	48	;'0'
   467  06E6  3431               	retlw	49	;'1'
   468  06E7  3432               	retlw	50	;'2'
   469  06E8  3400               	retlw	0
   470                           psect	stringtext
   471                           	
   472  06E9                     STR_17:	
   473  06E9  3424               	retlw	36	;'$'
   474  06EA  3431               	retlw	49	;'1'
   475  06EB  3430               	retlw	48	;'0'
   476  06EC  3431               	retlw	49	;'1'
   477  06ED  3431               	retlw	49	;'1'
   478  06EE  3432               	retlw	50	;'2'
   479  06EF  3400               	retlw	0
   480                           psect	stringtext
   481                           	
   482  06F0                     STR_24:	
   483  06F0  3424               	retlw	36	;'$'
   484  06F1  3431               	retlw	49	;'1'
   485  06F2  3430               	retlw	48	;'0'
   486  06F3  3432               	retlw	50	;'2'
   487  06F4  3431               	retlw	49	;'1'
   488  06F5  3432               	retlw	50	;'2'
   489  06F6  3400               	retlw	0
   490                           psect	stringtext
   491                           	
   492  06F7                     STR_31:	
   493  06F7  3424               	retlw	36	;'$'
   494  06F8  3431               	retlw	49	;'1'
   495  06F9  3430               	retlw	48	;'0'
   496  06FA  3433               	retlw	51	;'3'
   497  06FB  3431               	retlw	49	;'1'
   498  06FC  3432               	retlw	50	;'2'
   499  06FD  3400               	retlw	0
   500                           psect	stringtext
   501                           	
   502  06FE                     STR_11:	
   503  06FE  3424               	retlw	36	;'$'
   504  06FF  3431               	retlw	49	;'1'
   505  0700  3430               	retlw	48	;'0'
   506  0701  3430               	retlw	48	;'0'
   507  0702  3431               	retlw	49	;'1'
   508  0703  3433               	retlw	51	;'3'
   509  0704  3400               	retlw	0
   510                           psect	stringtext
   511                           	
   512  0705                     STR_18:	
   513  0705  3424               	retlw	36	;'$'
   514  0706  3431               	retlw	49	;'1'
   515  0707  3430               	retlw	48	;'0'
   516  0708  3431               	retlw	49	;'1'
   517  0709  3431               	retlw	49	;'1'
   518  070A  3433               	retlw	51	;'3'
   519  070B  3400               	retlw	0
   520                           psect	stringtext
   521                           	
   522  070C                     STR_25:	
   523  070C  3424               	retlw	36	;'$'
   524  070D  3431               	retlw	49	;'1'
   525  070E  3430               	retlw	48	;'0'
   526  070F  3432               	retlw	50	;'2'
   527  0710  3431               	retlw	49	;'1'
   528  0711  3433               	retlw	51	;'3'
   529  0712  3400               	retlw	0
   530                           psect	stringtext
   531                           	
   532  0713                     STR_32:	
   533  0713  3424               	retlw	36	;'$'
   534  0714  3431               	retlw	49	;'1'
   535  0715  3430               	retlw	48	;'0'
   536  0716  3433               	retlw	51	;'3'
   537  0717  3431               	retlw	49	;'1'
   538  0718  3433               	retlw	51	;'3'
   539  0719  3400               	retlw	0
   540                           psect	stringtext
   541  0679                     STR_20	equ	STR_13+0
   542  0679                     STR_27	equ	STR_13+0
   543  0679                     STR_34	equ	STR_13+0
   544  0668                     STR_14	equ	STR_7+0
   545  0668                     STR_21	equ	STR_7+0
   546  0668                     STR_28	equ	STR_7+0
   547  0635                     STR_19	equ	STR_12+0
   548  0635                     STR_26	equ	STR_12+0
   549                           	file	"projects.as"
   550                           	line	#
   551                           psect cinit,class=CODE,delta=2
   552                           global start_initialization
   553  07CE                     start_initialization:
   554                           
   555                           psect	bssCOMMON,class=COMMON,space=1
   556                           global __pbssCOMMON
   557  0070                     __pbssCOMMON:
   558  0070                     _TT:
   559  0070                            ds      1
   560                           
   561  0071                     __SMS:
   562  0071                            ds      1
   563                           
   564  0072                     _ff:
   565  0072                            ds      1
   566                           
   567  0073                     _hh:
   568  0073                            ds      1
   569                           
   570  0074                     _qq:
   571  0074                            ds      1
   572                           
   573                           psect	bssBANK0,class=BANK0,space=1
   574                           global __pbssBANK0
   575  0020                     __pbssBANK0:
   576  0020                     _aa:
   577  0020                            ds      50
   578                           
   579  0052                     _gg:
   580  0052                            ds      2
   581                           
   582  0054                     _ii:
   583  0054                            ds      2
   584                           
   585  0056                     _intrf:
   586  0056                            ds      2
   587                           
   588  0058                     _MSG:
   589  0058                            ds      1
   590                           
   591  0059                     _OF:
   592  0059                            ds      1
   593                           
   594  005A                     _ON:
   595  005A                            ds      1
   596                           
   597  005B                     _serial_chk:
   598  005B                            ds      1
   599                           
   600                           psect	bssBANK1,class=BANK1,space=1
   601                           global __pbssBANK1
   602  00A0                     __pbssBANK1:
   603  00A0                     _b:
   604  00A0                            ds      20
   605                           
   606  00B4                     _bb:
   607  00B4                            ds      20
   608                           
   609  00C8                     _c:
   610  00C8                            ds      20
   611                           
   612  00DC                     _d:
   613  00DC                            ds      20
   614                           
   615                           psect	bssBANK3,class=BANK3,space=1
   616                           global __pbssBANK3
   617  0190                     __pbssBANK3:
   618  0190                     _AA:
   619  0190                            ds      25
   620                           
   621                           psect clrtext,class=CODE,delta=2
   622                           global clear_ram
   623                           ;	Called with FSR containing the base address, and
   624                           ;	W with the last address+1
   625  0F9F                     clear_ram:
   626  0F9F  0064               	clrwdt			;clear the watchdog before getting into this loop
   627  0FA0                     clrloop:
   628  0FA0  0180               	clrf	indf		;clear RAM location pointed to by FSR
   629  0FA1  0A84               	incf	fsr,f		;increment pointer
   630  0FA2  0604               	xorwf	fsr,w		;XOR with final address
   631  0FA3  1903               	btfsc	status,2	;have we reached the end yet?
   632  0FA4  3400               	retlw	0		;all done for this memory range, return
   633  0FA5  0604               	xorwf	fsr,w		;XOR again to restore value
   634  0FA6  2FA0               	goto	clrloop		;do the next byte
   635                           
   636                           ; Clear objects allocated to COMMON
   637                           psect cinit,class=CODE,delta=2
   638  07CE  01F0               	clrf	((__pbssCOMMON)+0)&07Fh
   639  07CF  01F1               	clrf	((__pbssCOMMON)+1)&07Fh
   640  07D0  01F2               	clrf	((__pbssCOMMON)+2)&07Fh
   641  07D1  01F3               	clrf	((__pbssCOMMON)+3)&07Fh
   642  07D2  01F4               	clrf	((__pbssCOMMON)+4)&07Fh
   643                           ; Clear objects allocated to BANK0
   644                           psect cinit,class=CODE,delta=2
   645  07D3  1383               	bcf	status, 7	;select IRP bank0
   646  07D4  3020               	movlw	low(__pbssBANK0)
   647  07D5  0084               	movwf	fsr
   648  07D6  305C               	movlw	low((__pbssBANK0)+03Ch)
   649  07D7  120A  158A  279F   	fcall	clear_ram
              120A  118A         
   650                           ; Clear objects allocated to BANK1
   651                           psect cinit,class=CODE,delta=2
   652  07DC  30A0               	movlw	low(__pbssBANK1)
   653  07DD  0084               	movwf	fsr
   654  07DE  30F0               	movlw	low((__pbssBANK1)+050h)
   655  07DF  120A  158A  279F   	fcall	clear_ram
              120A  118A         
   656                           ; Clear objects allocated to BANK3
   657                           psect cinit,class=CODE,delta=2
   658  07E4  1783               	bsf	status, 7	;select IRP bank2
   659  07E5  3090               	movlw	low(__pbssBANK3)
   660  07E6  0084               	movwf	fsr
   661  07E7  30A9               	movlw	low((__pbssBANK3)+019h)
   662  07E8  120A  158A  279F   	fcall	clear_ram
              120A  118A         
   663                           psect cinit,class=CODE,delta=2
   664                           global end_of_initialization
   665                           
   666                           ;End of C runtime variable initialization code
   667                           
   668  07ED                     end_of_initialization:
   669  07ED  0183               clrf status
   670  07EE  120A  118A  2815   ljmp _main	;jump to C main() function
   671                           psect	cstackCOMMON,class=COMMON,space=1
   672                           global __pcstackCOMMON
   673  0075                     __pcstackCOMMON:
   674                           	global	?_uart_init
   675  0075                     ?_uart_init:	; 0 bytes @ 0x0
   676                           	global	?_TX
   677  0075                     ?_TX:	; 0 bytes @ 0x0
   678                           	global	?_main
   679  0075                     ?_main:	; 0 bytes @ 0x0
   680                           	global	?_receive
   681  0075                     ?_receive:	; 0 bytes @ 0x0
   682                           	global	??_receive
   683  0075                     ??_receive:	; 0 bytes @ 0x0
   684  0075                     	ds	5
   685                           psect	cstackBANK0,class=BANK0,space=1
   686                           global __pcstackBANK0
   687  005C                     __pcstackBANK0:
   688                           	global	??_uart_init
   689  005C                     ??_uart_init:	; 0 bytes @ 0x0
   690                           	global	?_delay
   691  005C                     ?_delay:	; 0 bytes @ 0x0
   692                           	global	??_TX
   693  005C                     ??_TX:	; 0 bytes @ 0x0
   694                           	global	TX@TX_BYTE
   695  005C                     TX@TX_BYTE:	; 1 bytes @ 0x0
   696                           	global	delay@d
   697  005C                     delay@d:	; 2 bytes @ 0x0
   698  005C                     	ds	2
   699                           	global	??_delay
   700  005E                     ??_delay:	; 0 bytes @ 0x2
   701                           	global	delay@h
   702  005E                     delay@h:	; 2 bytes @ 0x2
   703  005E                     	ds	2
   704                           	global	delay@k
   705  0060                     delay@k:	; 2 bytes @ 0x4
   706  0060                     	ds	2
   707                           	global	?_lcdcmd
   708  0062                     ?_lcdcmd:	; 0 bytes @ 0x6
   709                           	global	?_lcddata
   710  0062                     ?_lcddata:	; 0 bytes @ 0x6
   711                           	global	?_TXS
   712  0062                     ?_TXS:	; 0 bytes @ 0x6
   713                           	global	TXS@s
   714  0062                     TXS@s:	; 2 bytes @ 0x6
   715                           	global	lcdcmd@value
   716  0062                     lcdcmd@value:	; 2 bytes @ 0x6
   717                           	global	lcddata@value
   718  0062                     lcddata@value:	; 2 bytes @ 0x6
   719  0062                     	ds	2
   720                           	global	??_lcdcmd
   721  0064                     ??_lcdcmd:	; 0 bytes @ 0x8
   722                           	global	?_display
   723  0064                     ?_display:	; 0 bytes @ 0x8
   724                           	global	??_lcddata
   725  0064                     ??_lcddata:	; 0 bytes @ 0x8
   726                           	global	??_TXS
   727  0064                     ??_TXS:	; 0 bytes @ 0x8
   728                           	global	display@p
   729  0064                     display@p:	; 2 bytes @ 0x8
   730  0064                     	ds	2
   731                           	global	??_display
   732  0066                     ??_display:	; 0 bytes @ 0xA
   733  0066                     	ds	2
   734                           	global	??_main
   735  0068                     ??_main:	; 0 bytes @ 0xC
   736  0068                     	ds	2
   737 ;;Data sizes: Strings 282, constant 0, data 0, bss 170, persistent 0 stack 0
   738 ;;Auto spaces:   Size  Autos    Used
   739 ;; COMMON          14      5      10
   740 ;; BANK0           80     14      74
   741 ;; BANK1           80      0      80
   742 ;; BANK3           96      0      25
   743 ;; BANK2           96      0       0
   744                           
   745 ;;
   746 ;; Pointer list with targets:
   747                           
   748 ;; display@p	PTR unsigned char  size(2) Largest target is 18
   749 ;;		 -> STR_34(CODE[17]), STR_33(CODE[18]), STR_28(CODE[17]), STR_27(CODE[17]), 
   750 ;;		 -> STR_26(CODE[17]), STR_21(CODE[17]), STR_20(CODE[17]), STR_19(CODE[17]), 
   751 ;;		 -> STR_14(CODE[17]), STR_13(CODE[17]), STR_12(CODE[17]), STR_7(CODE[17]), 
   752 ;;		 -> STR_6(CODE[18]), STR_5(CODE[17]), STR_4(CODE[17]), STR_3(CODE[16]), 
   753 ;;		 -> STR_2(CODE[17]), STR_1(CODE[16]), 
   754 ;;
   755 ;; TXS@s	PTR unsigned char  size(2) Largest target is 7
   756 ;;		 -> STR_32(CODE[7]), STR_31(CODE[7]), STR_30(CODE[7]), STR_29(CODE[7]), 
   757 ;;		 -> STR_25(CODE[7]), STR_24(CODE[7]), STR_23(CODE[7]), STR_22(CODE[7]), 
   758 ;;		 -> STR_18(CODE[7]), STR_17(CODE[7]), STR_16(CODE[7]), STR_15(CODE[7]), 
   759 ;;		 -> STR_11(CODE[7]), STR_10(CODE[7]), STR_9(CODE[7]), STR_8(CODE[7]), 
   760 ;;
   761                           
   762                           
   763 ;;
   764 ;; Critical Paths under _main in COMMON
   765 ;;
   766 ;;   None.
   767 ;;
   768 ;; Critical Paths under _receive in COMMON
   769 ;;
   770 ;;   None.
   771 ;;
   772 ;; Critical Paths under _main in BANK0
   773 ;;
   774 ;;   _main->_display
   775 ;;   _display->_lcddata
   776 ;;   _TXS->_delay
   777 ;;   _lcddata->_delay
   778 ;;   _lcdcmd->_delay
   779 ;;
   780 ;; Critical Paths under _receive in BANK0
   781 ;;
   782 ;;   None.
   783 ;;
   784 ;; Critical Paths under _main in BANK1
   785 ;;
   786 ;;   None.
   787 ;;
   788 ;; Critical Paths under _receive in BANK1
   789 ;;
   790 ;;   None.
   791 ;;
   792 ;; Critical Paths under _main in BANK3
   793 ;;
   794 ;;   None.
   795 ;;
   796 ;; Critical Paths under _receive in BANK3
   797 ;;
   798 ;;   None.
   799 ;;
   800 ;; Critical Paths under _main in BANK2
   801 ;;
   802 ;;   None.
   803 ;;
   804 ;; Critical Paths under _receive in BANK2
   805 ;;
   806 ;;   None.
   807                           
   808 ;;
   809 ;;Main: autosize = 0, tempsize = 2, incstack = 0, save=0
   810 ;;
   811                           
   812 ;;
   813 ;;Call Graph Tables:
   814 ;;
   815 ;; ---------------------------------------------------------------------------------
   816 ;; (Depth) Function   	        Calls       Base Space   Used Autos Params    Refs
   817 ;; ---------------------------------------------------------------------------------
   818 ;; (0) _main                                                 2     2      0    1101
   819 ;;                                             12 BANK0      2     2      0
   820 ;;                          _uart_init
   821 ;;                             _lcdcmd
   822 ;;                              _delay
   823 ;;                            _display
   824 ;;                            _lcddata
   825 ;;                                _TXS
   826 ;;                                 _TX
   827 ;; ---------------------------------------------------------------------------------
   828 ;; (1) _display                                              4     2      2     368
   829 ;;                                              8 BANK0      4     2      2
   830 ;;                            _lcddata
   831 ;;                              _delay
   832 ;; ---------------------------------------------------------------------------------
   833 ;; (1) _TXS                                                  2     0      2     232
   834 ;;                                              6 BANK0      2     0      2
   835 ;;                                 _TX
   836 ;;                              _delay
   837 ;; ---------------------------------------------------------------------------------
   838 ;; (1) _lcddata                                              2     0      2     167
   839 ;;                                              6 BANK0      2     0      2
   840 ;;                              _delay
   841 ;; ---------------------------------------------------------------------------------
   842 ;; (1) _lcdcmd                                               2     0      2     167
   843 ;;                                              6 BANK0      2     0      2
   844 ;;                              _delay
   845 ;; ---------------------------------------------------------------------------------
   846 ;; (1) _TX                                                   1     1      0      31
   847 ;;                                              0 BANK0      1     1      0
   848 ;; ---------------------------------------------------------------------------------
   849 ;; (2) _delay                                                6     4      2     136
   850 ;;                                              0 BANK0      6     4      2
   851 ;; ---------------------------------------------------------------------------------
   852 ;; (1) _uart_init                                            0     0      0       0
   853 ;; ---------------------------------------------------------------------------------
   854 ;; Estimated maximum stack depth 2
   855 ;; ---------------------------------------------------------------------------------
   856 ;; (Depth) Function   	        Calls       Base Space   Used Autos Params    Refs
   857 ;; ---------------------------------------------------------------------------------
   858 ;; (4) _receive                                              7     7      0       0
   859 ;;                                              0 COMMON     5     5      0
   860 ;; ---------------------------------------------------------------------------------
   861 ;; Estimated maximum stack depth 4
   862 ;; ---------------------------------------------------------------------------------
   863                           
   864 ;; Call Graph Graphs:
   865                           
   866 ;; _main (ROOT)
   867 ;;   _uart_init
   868 ;;   _lcdcmd
   869 ;;     _delay
   870 ;;   _delay
   871 ;;   _display
   872 ;;     _lcddata
   873 ;;       _delay
   874 ;;     _delay
   875 ;;   _lcddata
   876 ;;     _delay
   877 ;;   _TXS
   878 ;;     _TX
   879 ;;     _delay
   880 ;;   _TX
   881 ;;
   882 ;; _receive (ROOT)
   883 ;;
   884                           
   885 ;; Address spaces:
   886                           
   887 ;;Name               Size   Autos  Total    Cost      Usage
   888 ;;BITCOMMON            E      0       0       0        0.0%
   889 ;;EEDATA             100      0       0       0        0.0%
   890 ;;NULL                 0      0       0       0        0.0%
   891 ;;CODE                 0      0       0       0        0.0%
   892 ;;COMMON               E      5       A       1       71.4%
   893 ;;BITSFR0              0      0       0       1        0.0%
   894 ;;SFR0                 0      0       0       1        0.0%
   895 ;;BITSFR1              0      0       0       2        0.0%
   896 ;;SFR1                 0      0       0       2        0.0%
   897 ;;STACK                0      0       3       2        0.0%
   898 ;;ABS                  0      0      BD       3        0.0%
   899 ;;BITBANK0            50      0       0       4        0.0%
   900 ;;BITSFR3              0      0       0       4        0.0%
   901 ;;SFR3                 0      0       0       4        0.0%
   902 ;;BANK0               50      E      4A       5       92.5%
   903 ;;BITSFR2              0      0       0       5        0.0%
   904 ;;SFR2                 0      0       0       5        0.0%
   905 ;;BITBANK1            50      0       0       6        0.0%
   906 ;;BANK1               50      0      50       7      100.0%
   907 ;;BITBANK3            60      0       0       8        0.0%
   908 ;;BANK3               60      0      19       9       26.0%
   909 ;;BITBANK2            60      0       0      10        0.0%
   910 ;;BANK2               60      0       0      11        0.0%
   911 ;;DATA                 0      0      C0      12        0.0%
   912                           
   913                           	global	_main
   914                           psect	maintext,global,class=CODE,delta=2
   915                           global __pmaintext
   916  0015                     __pmaintext:
   917                           
   918 ;; *************** function _main *****************
   919 ;; Defined at:
   920 ;;		line 27 in file "F:\pic projects\BUSSERVER\servertest.c"
   921 ;; Parameters:    Size  Location     Type
   922 ;;		None
   923 ;; Auto vars:     Size  Location     Type
   924 ;;		None
   925 ;; Return value:  Size  Location     Type
   926 ;;		None               void
   927 ;; Registers used:
   928 ;;		wreg, fsr0l, fsr0h, status,2, status,0, btemp+1, pclath, cstack
   929 ;; Tracked objects:
   930 ;;		On entry : 17F/0
   931 ;;		On exit  : 0/0
   932 ;;		Unchanged: 0/0
   933 ;; Data sizes:     COMMON   BANK0   BANK1   BANK3   BANK2
   934 ;;      Params:         0       0       0       0       0
   935 ;;      Locals:         0       0       0       0       0
   936 ;;      Temps:          0       2       0       0       0
   937 ;;      Totals:         0       2       0       0       0
   938 ;;Total ram usage:        2 bytes
   939 ;; Hardware stack levels required when called:    4
   940 ;; This function calls:
   941 ;;		_uart_init
   942 ;;		_lcdcmd
   943 ;;		_delay
   944 ;;		_display
   945 ;;		_lcddata
   946 ;;		_TXS
   947 ;;		_TX
   948 ;; This function is called by:
   949 ;;		Startup code after reset
   950 ;; This function uses a non-reentrant model
   951 ;;
   952                           psect	maintext
   953                           	file	"F:\pic projects\BUSSERVER\servertest.c"
   954                           	line	27
   955                           	global	__size_of_main
   956  05D7                     	__size_of_main	equ	__end_of_main-_main
   957                           	
   958  0015                     _main:	
   959                           	opt	stack 4
   960                           ; Regs used in _main: [wreg-fsr0h+status,2+status,0+btemp+1+pclath+cstack]
   961                           	line	29
   962                           	
   963  0015                     l3614:	
   964                           ;servertest.c: 29: TRISB=0X00;
   965  0015  1683               	bsf	status, 5	;RP0=1, select bank1
   966  0016  1303               	bcf	status, 6	;RP1=0, select bank1
   967  0017  0186               	clrf	(134)^080h	;volatile
   968                           	line	30
   969                           	
   970  0018                     l3616:	
   971                           ;servertest.c: 30: TRISD=0x0F;
   972  0018  300F               	movlw	(0Fh)
   973  0019  0088               	movwf	(136)^080h	;volatile
   974                           	line	31
   975                           	
   976  001A                     l3618:	
   977                           ;servertest.c: 31: TRISC=0X0F;
   978  001A  300F               	movlw	(0Fh)
   979  001B  0087               	movwf	(135)^080h	;volatile
   980                           	line	32
   981                           ;servertest.c: 32: PORTB=0X00;
   982  001C  1283               	bcf	status, 5	;RP0=0, select bank0
   983  001D  1303               	bcf	status, 6	;RP1=0, select bank0
   984  001E  0186               	clrf	(6)	;volatile
   985                           	line	33
   986                           	
   987  001F                     l3620:	
   988                           ;servertest.c: 33: uart_init();
   989  001F  120A  158A  27A7   	fcall	_uart_init
              120A  118A         
   990                           	line	34
   991                           	
   992  0024                     l3622:	
   993                           ;servertest.c: 34: lcdcmd(0x38);
   994  0024  3038               	movlw	low(038h)
   995  0025  1283               	bcf	status, 5	;RP0=0, select bank0
   996  0026  1303               	bcf	status, 6	;RP1=0, select bank0
   997  0027  00E2               	movwf	(?_lcdcmd)
   998  0028  3000               	movlw	high(038h)
   999  0029  00E3               	movwf	((?_lcdcmd))+1
  1000  002A  120A  158A  27B8   	fcall	_lcdcmd
              120A  118A         
  1001                           	line	35
  1002                           	
  1003  002F                     l3624:	
  1004                           ;servertest.c: 35: delay(10);
  1005  002F  300A               	movlw	low(0Ah)
  1006  0030  1283               	bcf	status, 5	;RP0=0, select bank0
  1007  0031  1303               	bcf	status, 6	;RP1=0, select bank0
  1008  0032  00DC               	movwf	(?_delay)
  1009  0033  3000               	movlw	high(0Ah)
  1010  0034  00DD               	movwf	((?_delay))+1
  1011  0035  120A  158A  27CC   	fcall	_delay
              120A  118A         
  1012                           	line	36
  1013                           	
  1014  003A                     l3626:	
  1015                           ;servertest.c: 36: lcdcmd(0x0c);
  1016  003A  300C               	movlw	low(0Ch)
  1017  003B  1283               	bcf	status, 5	;RP0=0, select bank0
  1018  003C  1303               	bcf	status, 6	;RP1=0, select bank0
  1019  003D  00E2               	movwf	(?_lcdcmd)
  1020  003E  3000               	movlw	high(0Ch)
  1021  003F  00E3               	movwf	((?_lcdcmd))+1
  1022  0040  120A  158A  27B8   	fcall	_lcdcmd
              120A  118A         
  1023                           	line	37
  1024                           	
  1025  0045                     l3628:	
  1026                           ;servertest.c: 37: delay(10);
  1027  0045  300A               	movlw	low(0Ah)
  1028  0046  1283               	bcf	status, 5	;RP0=0, select bank0
  1029  0047  1303               	bcf	status, 6	;RP1=0, select bank0
  1030  0048  00DC               	movwf	(?_delay)
  1031  0049  3000               	movlw	high(0Ah)
  1032  004A  00DD               	movwf	((?_delay))+1
  1033  004B  120A  158A  27CC   	fcall	_delay
              120A  118A         
  1034                           	line	38
  1035                           	
  1036  0050                     l3630:	
  1037                           ;servertest.c: 38: lcdcmd(0x80);
  1038  0050  3080               	movlw	low(080h)
  1039  0051  1283               	bcf	status, 5	;RP0=0, select bank0
  1040  0052  1303               	bcf	status, 6	;RP1=0, select bank0
  1041  0053  00E2               	movwf	(?_lcdcmd)
  1042  0054  3000               	movlw	high(080h)
  1043  0055  00E3               	movwf	((?_lcdcmd))+1
  1044  0056  120A  158A  27B8   	fcall	_lcdcmd
              120A  118A         
  1045                           	line	39
  1046                           	
  1047  005B                     l3632:	
  1048                           ;servertest.c: 39: delay(10);
  1049  005B  300A               	movlw	low(0Ah)
  1050  005C  1283               	bcf	status, 5	;RP0=0, select bank0
  1051  005D  1303               	bcf	status, 6	;RP1=0, select bank0
  1052  005E  00DC               	movwf	(?_delay)
  1053  005F  3000               	movlw	high(0Ah)
  1054  0060  00DD               	movwf	((?_delay))+1
  1055  0061  120A  158A  27CC   	fcall	_delay
              120A  118A         
  1056                           	line	40
  1057                           	
  1058  0066                     l3634:	
  1059                           ;servertest.c: 40: lcdcmd(0x01);
  1060  0066  3001               	movlw	low(01h)
  1061  0067  1283               	bcf	status, 5	;RP0=0, select bank0
  1062  0068  1303               	bcf	status, 6	;RP1=0, select bank0
  1063  0069  00E2               	movwf	(?_lcdcmd)
  1064  006A  3000               	movlw	high(01h)
  1065  006B  00E3               	movwf	((?_lcdcmd))+1
  1066  006C  120A  158A  27B8   	fcall	_lcdcmd
              120A  118A         
  1067                           	line	41
  1068                           	
  1069  0071                     l3636:	
  1070                           ;servertest.c: 41: delay(10);
  1071  0071  300A               	movlw	low(0Ah)
  1072  0072  1283               	bcf	status, 5	;RP0=0, select bank0
  1073  0073  1303               	bcf	status, 6	;RP1=0, select bank0
  1074  0074  00DC               	movwf	(?_delay)
  1075  0075  3000               	movlw	high(0Ah)
  1076  0076  00DD               	movwf	((?_delay))+1
  1077  0077  120A  158A  27CC   	fcall	_delay
              120A  118A         
  1078                           	line	42
  1079                           	
  1080  007C                     l3638:	
  1081                           ;servertest.c: 42: display("  GEC Wayanad  ");
  1082  007C  308A               	movlw	low(STR_1|8000h)
  1083  007D  1283               	bcf	status, 5	;RP0=0, select bank0
  1084  007E  1303               	bcf	status, 6	;RP1=0, select bank0
  1085  007F  00E4               	movwf	(?_display)
  1086  0080  3086               	movlw	high(STR_1|8000h)
  1087  0081  00E5               	movwf	((?_display))+1
  1088  0082  120A  118A  275A   	fcall	_display
              120A  118A         
  1089                           	line	43
  1090                           	
  1091  0087                     l3640:	
  1092                           ;servertest.c: 43: lcdcmd(0xc0);
  1093  0087  30C0               	movlw	low(0C0h)
  1094  0088  1283               	bcf	status, 5	;RP0=0, select bank0
  1095  0089  1303               	bcf	status, 6	;RP1=0, select bank0
  1096  008A  00E2               	movwf	(?_lcdcmd)
  1097  008B  3000               	movlw	high(0C0h)
  1098  008C  00E3               	movwf	((?_lcdcmd))+1
  1099  008D  120A  158A  27B8   	fcall	_lcdcmd
              120A  118A         
  1100                           	line	44
  1101                           	
  1102  0092                     l3642:	
  1103                           ;servertest.c: 44: delay(10);
  1104  0092  300A               	movlw	low(0Ah)
  1105  0093  1283               	bcf	status, 5	;RP0=0, select bank0
  1106  0094  1303               	bcf	status, 6	;RP1=0, select bank0
  1107  0095  00DC               	movwf	(?_delay)
  1108  0096  3000               	movlw	high(0Ah)
  1109  0097  00DD               	movwf	((?_delay))+1
  1110  0098  120A  158A  27CC   	fcall	_delay
              120A  118A         
  1111                           	line	45
  1112                           	
  1113  009D                     l3644:	
  1114                           ;servertest.c: 45: display("  Dept. of ece  ");
  1115  009D  3046               	movlw	low(STR_2|8000h)
  1116  009E  1283               	bcf	status, 5	;RP0=0, select bank0
  1117  009F  1303               	bcf	status, 6	;RP1=0, select bank0
  1118  00A0  00E4               	movwf	(?_display)
  1119  00A1  3086               	movlw	high(STR_2|8000h)
  1120  00A2  00E5               	movwf	((?_display))+1
  1121  00A3  120A  118A  275A   	fcall	_display
              120A  118A         
  1122                           	line	46
  1123                           	
  1124  00A8                     l3646:	
  1125                           ;servertest.c: 46: delay(1500);
  1126  00A8  30DC               	movlw	low(05DCh)
  1127  00A9  1283               	bcf	status, 5	;RP0=0, select bank0
  1128  00AA  1303               	bcf	status, 6	;RP1=0, select bank0
  1129  00AB  00DC               	movwf	(?_delay)
  1130  00AC  3005               	movlw	high(05DCh)
  1131  00AD  00DD               	movwf	((?_delay))+1
  1132  00AE  120A  158A  27CC   	fcall	_delay
              120A  118A         
  1133                           	line	47
  1134                           	
  1135  00B3                     l3648:	
  1136                           ;servertest.c: 47: lcdcmd(0x01);
  1137  00B3  3001               	movlw	low(01h)
  1138  00B4  1283               	bcf	status, 5	;RP0=0, select bank0
  1139  00B5  1303               	bcf	status, 6	;RP1=0, select bank0
  1140  00B6  00E2               	movwf	(?_lcdcmd)
  1141  00B7  3000               	movlw	high(01h)
  1142  00B8  00E3               	movwf	((?_lcdcmd))+1
  1143  00B9  120A  158A  27B8   	fcall	_lcdcmd
              120A  118A         
  1144                           	line	48
  1145                           	
  1146  00BE                     l3650:	
  1147                           ;servertest.c: 48: delay(10);
  1148  00BE  300A               	movlw	low(0Ah)
  1149  00BF  1283               	bcf	status, 5	;RP0=0, select bank0
  1150  00C0  1303               	bcf	status, 6	;RP1=0, select bank0
  1151  00C1  00DC               	movwf	(?_delay)
  1152  00C2  3000               	movlw	high(0Ah)
  1153  00C3  00DD               	movwf	((?_delay))+1
  1154  00C4  120A  158A  27CC   	fcall	_delay
              120A  118A         
  1155                           	line	49
  1156                           	
  1157  00C9                     l3652:	
  1158                           ;servertest.c: 49: display("  Automatic bus");
  1159  00C9  309A               	movlw	low(STR_3|8000h)
  1160  00CA  1283               	bcf	status, 5	;RP0=0, select bank0
  1161  00CB  1303               	bcf	status, 6	;RP1=0, select bank0
  1162  00CC  00E4               	movwf	(?_display)
  1163  00CD  3086               	movlw	high(STR_3|8000h)
  1164  00CE  00E5               	movwf	((?_display))+1
  1165  00CF  120A  118A  275A   	fcall	_display
              120A  118A         
  1166                           	line	50
  1167                           	
  1168  00D4                     l3654:	
  1169                           ;servertest.c: 50: lcdcmd(0xc0);
  1170  00D4  30C0               	movlw	low(0C0h)
  1171  00D5  1283               	bcf	status, 5	;RP0=0, select bank0
  1172  00D6  1303               	bcf	status, 6	;RP1=0, select bank0
  1173  00D7  00E2               	movwf	(?_lcdcmd)
  1174  00D8  3000               	movlw	high(0C0h)
  1175  00D9  00E3               	movwf	((?_lcdcmd))+1
  1176  00DA  120A  158A  27B8   	fcall	_lcdcmd
              120A  118A         
  1177                           	line	51
  1178                           	
  1179  00DF                     l3656:	
  1180                           ;servertest.c: 51: delay(10);
  1181  00DF  300A               	movlw	low(0Ah)
  1182  00E0  1283               	bcf	status, 5	;RP0=0, select bank0
  1183  00E1  1303               	bcf	status, 6	;RP1=0, select bank0
  1184  00E2  00DC               	movwf	(?_delay)
  1185  00E3  3000               	movlw	high(0Ah)
  1186  00E4  00DD               	movwf	((?_delay))+1
  1187  00E5  120A  158A  27CC   	fcall	_delay
              120A  118A         
  1188                           	line	52
  1189                           	
  1190  00EA                     l3658:	
  1191                           ;servertest.c: 52: display("   fare System  ");
  1192  00EA  3057               	movlw	low(STR_4|8000h)
  1193  00EB  1283               	bcf	status, 5	;RP0=0, select bank0
  1194  00EC  1303               	bcf	status, 6	;RP1=0, select bank0
  1195  00ED  00E4               	movwf	(?_display)
  1196  00EE  3086               	movlw	high(STR_4|8000h)
  1197  00EF  00E5               	movwf	((?_display))+1
  1198  00F0  120A  118A  275A   	fcall	_display
              120A  118A         
  1199                           	line	53
  1200                           	
  1201  00F5                     l3660:	
  1202                           ;servertest.c: 53: delay(2500);
  1203  00F5  30C4               	movlw	low(09C4h)
  1204  00F6  1283               	bcf	status, 5	;RP0=0, select bank0
  1205  00F7  1303               	bcf	status, 6	;RP1=0, select bank0
  1206  00F8  00DC               	movwf	(?_delay)
  1207  00F9  3009               	movlw	high(09C4h)
  1208  00FA  00DD               	movwf	((?_delay))+1
  1209  00FB  120A  158A  27CC   	fcall	_delay
              120A  118A         
  1210                           	line	54
  1211                           	
  1212  0100                     l3662:	
  1213                           ;servertest.c: 54: lcdcmd(0x01);
  1214  0100  3001               	movlw	low(01h)
  1215  0101  1283               	bcf	status, 5	;RP0=0, select bank0
  1216  0102  1303               	bcf	status, 6	;RP1=0, select bank0
  1217  0103  00E2               	movwf	(?_lcdcmd)
  1218  0104  3000               	movlw	high(01h)
  1219  0105  00E3               	movwf	((?_lcdcmd))+1
  1220  0106  120A  158A  27B8   	fcall	_lcdcmd
              120A  118A         
  1221  010B  290C               	goto	l3664
  1222                           	line	55
  1223                           ;servertest.c: 55: while(1)
  1224                           	
  1225  010C                     l735:	
  1226                           	line	57
  1227                           	
  1228  010C                     l3664:	
  1229                           ;servertest.c: 56: {
  1230                           ;servertest.c: 57: if(intrf==1)
  1231  010C  3001               	movlw	01h
  1232  010D  1283               	bcf	status, 5	;RP0=0, select bank0
  1233  010E  1303               	bcf	status, 6	;RP1=0, select bank0
  1234  010F  0656               	xorwf	(_intrf),w
  1235  0110  0457               	iorwf	(_intrf+1),w
  1236  0111  1D03               	skipz
  1237  0112  2914               	goto	u3801
  1238  0113  2915               	goto	u3800
  1239  0114                     u3801:
  1240  0114  2A15               	goto	l3708
  1241  0115                     u3800:
  1242                           	line	59
  1243                           	
  1244  0115                     l3666:	
  1245                           ;servertest.c: 58: {
  1246                           ;servertest.c: 59: intrf=0;
  1247  0115  01D6               	clrf	(_intrf)
  1248  0116  01D7               	clrf	(_intrf+1)
  1249                           	line	61
  1250                           	
  1251  0117                     l3668:	
  1252                           ;servertest.c: 61: lcdcmd(0x01);
  1253  0117  3001               	movlw	low(01h)
  1254  0118  00E2               	movwf	(?_lcdcmd)
  1255  0119  3000               	movlw	high(01h)
  1256  011A  00E3               	movwf	((?_lcdcmd))+1
  1257  011B  120A  158A  27B8   	fcall	_lcdcmd
              120A  118A         
  1258                           	line	62
  1259                           	
  1260  0120                     l3670:	
  1261                           ;servertest.c: 62: delay(10);
  1262  0120  300A               	movlw	low(0Ah)
  1263  0121  1283               	bcf	status, 5	;RP0=0, select bank0
  1264  0122  1303               	bcf	status, 6	;RP1=0, select bank0
  1265  0123  00DC               	movwf	(?_delay)
  1266  0124  3000               	movlw	high(0Ah)
  1267  0125  00DD               	movwf	((?_delay))+1
  1268  0126  120A  158A  27CC   	fcall	_delay
              120A  118A         
  1269                           	line	63
  1270                           	
  1271  012B                     l3672:	
  1272                           ;servertest.c: 63: lcdcmd(0x80);
  1273  012B  3080               	movlw	low(080h)
  1274  012C  1283               	bcf	status, 5	;RP0=0, select bank0
  1275  012D  1303               	bcf	status, 6	;RP1=0, select bank0
  1276  012E  00E2               	movwf	(?_lcdcmd)
  1277  012F  3000               	movlw	high(080h)
  1278  0130  00E3               	movwf	((?_lcdcmd))+1
  1279  0131  120A  158A  27B8   	fcall	_lcdcmd
              120A  118A         
  1280                           	line	64
  1281                           	
  1282  0136                     l3674:	
  1283                           ;servertest.c: 64: delay(10);
  1284  0136  300A               	movlw	low(0Ah)
  1285  0137  1283               	bcf	status, 5	;RP0=0, select bank0
  1286  0138  1303               	bcf	status, 6	;RP1=0, select bank0
  1287  0139  00DC               	movwf	(?_delay)
  1288  013A  3000               	movlw	high(0Ah)
  1289  013B  00DD               	movwf	((?_delay))+1
  1290  013C  120A  158A  27CC   	fcall	_delay
              120A  118A         
  1291                           	line	65
  1292                           ;servertest.c: 65: for(gg=0;gg<32;gg++)
  1293  0141  1283               	bcf	status, 5	;RP0=0, select bank0
  1294  0142  1303               	bcf	status, 6	;RP1=0, select bank0
  1295  0143  01D2               	clrf	(_gg)
  1296  0144  01D3               	clrf	(_gg+1)
  1297                           	
  1298  0145                     l3676:	
  1299  0145  0853               	movf	(_gg+1),w
  1300  0146  3A80               	xorlw	80h
  1301  0147  00FF               	movwf	btemp+1
  1302  0148  3080               	movlw	(high(020h))^80h
  1303  0149  027F               	subwf	btemp+1,w
  1304  014A  1D03               	skipz
  1305  014B  294E               	goto	u3815
  1306  014C  3020               	movlw	low(020h)
  1307  014D  0252               	subwf	(_gg),w
  1308  014E                     u3815:
  1309                           
  1310  014E  1C03               	skipc
  1311  014F  2951               	goto	u3811
  1312  0150  2952               	goto	u3810
  1313  0151                     u3811:
  1314  0151  2954               	goto	l3680
  1315  0152                     u3810:
  1316  0152  29EF               	goto	l3704
  1317                           	
  1318  0153                     l3678:	
  1319  0153  29EF               	goto	l3704
  1320                           	line	66
  1321                           	
  1322  0154                     l737:	
  1323                           	line	67
  1324                           	
  1325  0154                     l3680:	
  1326                           ;servertest.c: 66: {
  1327                           ;servertest.c: 67: if(gg<=15)
  1328  0154  1283               	bcf	status, 5	;RP0=0, select bank0
  1329  0155  1303               	bcf	status, 6	;RP1=0, select bank0
  1330  0156  0853               	movf	(_gg+1),w
  1331  0157  3A80               	xorlw	80h
  1332  0158  00FF               	movwf	btemp+1
  1333  0159  3080               	movlw	(high(010h))^80h
  1334  015A  027F               	subwf	btemp+1,w
  1335  015B  1D03               	skipz
  1336  015C  295F               	goto	u3825
  1337  015D  3010               	movlw	low(010h)
  1338  015E  0252               	subwf	(_gg),w
  1339  015F                     u3825:
  1340                           
  1341  015F  1803               	skipnc
  1342  0160  2962               	goto	u3821
  1343  0161  2963               	goto	u3820
  1344  0162                     u3821:
  1345  0162  2990               	goto	l3688
  1346  0163                     u3820:
  1347                           	line	68
  1348                           	
  1349  0163                     l3682:	
  1350                           ;servertest.c: 68: {if(aa[gg]!='&')
  1351  0163  1283               	bcf	status, 5	;RP0=0, select bank0
  1352  0164  1303               	bcf	status, 6	;RP1=0, select bank0
  1353  0165  0852               	movf	(_gg),w
  1354  0166  3E20               	addlw	_aa&0ffh
  1355  0167  0084               	movwf	fsr0
  1356  0168  1383               	bcf	status, 7	;select IRP bank0
  1357  0169  0800               	movf	indf,w
  1358  016A  3A26               	xorlw	026h
  1359  016B  1903               	skipnz
  1360  016C  296E               	goto	u3831
  1361  016D  296F               	goto	u3830
  1362  016E                     u3831:
  1363  016E  29CD               	goto	l3696
  1364  016F                     u3830:
  1365                           	line	70
  1366                           	
  1367  016F                     l3684:	
  1368                           ;servertest.c: 69: {
  1369                           ;servertest.c: 70: lcdcmd(0x80+gg);
  1370  016F  0852               	movf	(_gg),w
  1371  0170  3E80               	addlw	low(080h)
  1372  0171  00E2               	movwf	(?_lcdcmd)
  1373  0172  0853               	movf	(_gg+1),w
  1374  0173  1803               	skipnc
  1375  0174  3E01               	addlw	1
  1376  0175  3E00               	addlw	high(080h)
  1377  0176  00E3               	movwf	1+(?_lcdcmd)
  1378  0177  120A  158A  27B8   	fcall	_lcdcmd
              120A  118A         
  1379                           	line	71
  1380                           	
  1381  017C                     l3686:	
  1382                           ;servertest.c: 71: lcddata(aa[gg]);
  1383  017C  1283               	bcf	status, 5	;RP0=0, select bank0
  1384  017D  1303               	bcf	status, 6	;RP1=0, select bank0
  1385  017E  0852               	movf	(_gg),w
  1386  017F  3E20               	addlw	_aa&0ffh
  1387  0180  0084               	movwf	fsr0
  1388  0181  1383               	bcf	status, 7	;select IRP bank0
  1389  0182  0800               	movf	indf,w
  1390  0183  00E8               	movwf	(??_main+0)+0
  1391  0184  01E9               	clrf	(??_main+0)+0+1
  1392  0185  0868               	movf	0+(??_main+0)+0,w
  1393  0186  00E2               	movwf	(?_lcddata)
  1394  0187  0869               	movf	1+(??_main+0)+0,w
  1395  0188  00E3               	movwf	(?_lcddata+1)
  1396  0189  120A  118A  25EC   	fcall	_lcddata
              120A  118A         
  1397  018E  29CD               	goto	l3696
  1398                           	line	72
  1399                           	
  1400  018F                     l740:	
  1401                           	line	73
  1402                           ;servertest.c: 72: }
  1403                           ;servertest.c: 73: }
  1404  018F  29CD               	goto	l3696
  1405                           	line	74
  1406                           	
  1407  0190                     l739:	
  1408                           	
  1409  0190                     l3688:	
  1410                           ;servertest.c: 74: else if(gg>16)
  1411  0190  1283               	bcf	status, 5	;RP0=0, select bank0
  1412  0191  1303               	bcf	status, 6	;RP1=0, select bank0
  1413  0192  0853               	movf	(_gg+1),w
  1414  0193  3A80               	xorlw	80h
  1415  0194  00FF               	movwf	btemp+1
  1416  0195  3080               	movlw	(high(011h))^80h
  1417  0196  027F               	subwf	btemp+1,w
  1418  0197  1D03               	skipz
  1419  0198  299B               	goto	u3845
  1420  0199  3011               	movlw	low(011h)
  1421  019A  0252               	subwf	(_gg),w
  1422  019B                     u3845:
  1423                           
  1424  019B  1C03               	skipc
  1425  019C  299E               	goto	u3841
  1426  019D  299F               	goto	u3840
  1427  019E                     u3841:
  1428  019E  29CD               	goto	l3696
  1429  019F                     u3840:
  1430                           	line	76
  1431                           	
  1432  019F                     l3690:	
  1433                           ;servertest.c: 75: {
  1434                           ;servertest.c: 76: if(aa[gg]!='&')
  1435  019F  1283               	bcf	status, 5	;RP0=0, select bank0
  1436  01A0  1303               	bcf	status, 6	;RP1=0, select bank0
  1437  01A1  0852               	movf	(_gg),w
  1438  01A2  3E20               	addlw	_aa&0ffh
  1439  01A3  0084               	movwf	fsr0
  1440  01A4  1383               	bcf	status, 7	;select IRP bank0
  1441  01A5  0800               	movf	indf,w
  1442  01A6  3A26               	xorlw	026h
  1443  01A7  1903               	skipnz
  1444  01A8  29AA               	goto	u3851
  1445  01A9  29AB               	goto	u3850
  1446  01AA                     u3851:
  1447  01AA  29CD               	goto	l3696
  1448  01AB                     u3850:
  1449                           	line	78
  1450                           	
  1451  01AB                     l3692:	
  1452                           ;servertest.c: 77: {
  1453                           ;servertest.c: 78: lcdcmd(0xc0+gg-17);
  1454  01AB  0852               	movf	(_gg),w
  1455  01AC  3EAF               	addlw	low(0AFh)
  1456  01AD  00E2               	movwf	(?_lcdcmd)
  1457  01AE  0853               	movf	(_gg+1),w
  1458  01AF  1803               	skipnc
  1459  01B0  3E01               	addlw	1
  1460  01B1  3E00               	addlw	high(0AFh)
  1461  01B2  00E3               	movwf	1+(?_lcdcmd)
  1462  01B3  120A  158A  27B8   	fcall	_lcdcmd
              120A  118A         
  1463                           	line	79
  1464                           	
  1465  01B8                     l3694:	
  1466                           ;servertest.c: 79: lcddata(aa[gg]);
  1467  01B8  1283               	bcf	status, 5	;RP0=0, select bank0
  1468  01B9  1303               	bcf	status, 6	;RP1=0, select bank0
  1469  01BA  0852               	movf	(_gg),w
  1470  01BB  3E20               	addlw	_aa&0ffh
  1471  01BC  0084               	movwf	fsr0
  1472  01BD  1383               	bcf	status, 7	;select IRP bank0
  1473  01BE  0800               	movf	indf,w
  1474  01BF  00E8               	movwf	(??_main+0)+0
  1475  01C0  01E9               	clrf	(??_main+0)+0+1
  1476  01C1  0868               	movf	0+(??_main+0)+0,w
  1477  01C2  00E2               	movwf	(?_lcddata)
  1478  01C3  0869               	movf	1+(??_main+0)+0,w
  1479  01C4  00E3               	movwf	(?_lcddata+1)
  1480  01C5  120A  118A  25EC   	fcall	_lcddata
              120A  118A         
  1481  01CA  29CD               	goto	l3696
  1482                           	line	80
  1483                           	
  1484  01CB                     l743:	
  1485  01CB  29CD               	goto	l3696
  1486                           	line	81
  1487                           	
  1488  01CC                     l742:	
  1489  01CC  29CD               	goto	l3696
  1490                           	line	83
  1491                           	
  1492  01CD                     l741:	
  1493                           	
  1494  01CD                     l3696:	
  1495                           ;servertest.c: 80: }
  1496                           ;servertest.c: 81: }
  1497                           ;servertest.c: 83: if(aa[gg]=='&') break;
  1498  01CD  1283               	bcf	status, 5	;RP0=0, select bank0
  1499  01CE  1303               	bcf	status, 6	;RP1=0, select bank0
  1500  01CF  0852               	movf	(_gg),w
  1501  01D0  3E20               	addlw	_aa&0ffh
  1502  01D1  0084               	movwf	fsr0
  1503  01D2  1383               	bcf	status, 7	;select IRP bank0
  1504  01D3  0800               	movf	indf,w
  1505  01D4  3A26               	xorlw	026h
  1506  01D5  1D03               	skipz
  1507  01D6  29D8               	goto	u3861
  1508  01D7  29D9               	goto	u3860
  1509  01D8                     u3861:
  1510  01D8  29DB               	goto	l3700
  1511  01D9                     u3860:
  1512  01D9  29EF               	goto	l3704
  1513                           	
  1514  01DA                     l3698:	
  1515  01DA  29EF               	goto	l3704
  1516                           	
  1517  01DB                     l744:	
  1518                           	line	65
  1519                           	
  1520  01DB                     l3700:	
  1521  01DB  3001               	movlw	low(01h)
  1522  01DC  07D2               	addwf	(_gg),f
  1523  01DD  1803               	skipnc
  1524  01DE  0AD3               	incf	(_gg+1),f
  1525  01DF  3000               	movlw	high(01h)
  1526  01E0  07D3               	addwf	(_gg+1),f
  1527                           	
  1528  01E1                     l3702:	
  1529  01E1  0853               	movf	(_gg+1),w
  1530  01E2  3A80               	xorlw	80h
  1531  01E3  00FF               	movwf	btemp+1
  1532  01E4  3080               	movlw	(high(020h))^80h
  1533  01E5  027F               	subwf	btemp+1,w
  1534  01E6  1D03               	skipz
  1535  01E7  29EA               	goto	u3875
  1536  01E8  3020               	movlw	low(020h)
  1537  01E9  0252               	subwf	(_gg),w
  1538  01EA                     u3875:
  1539                           
  1540  01EA  1C03               	skipc
  1541  01EB  29ED               	goto	u3871
  1542  01EC  29EE               	goto	u3870
  1543  01ED                     u3871:
  1544  01ED  2954               	goto	l3680
  1545  01EE                     u3870:
  1546  01EE  29EF               	goto	l3704
  1547                           	
  1548  01EF                     l738:	
  1549                           	line	85
  1550                           	
  1551  01EF                     l3704:	
  1552                           ;servertest.c: 84: }
  1553                           ;servertest.c: 85: delay(4000);
  1554  01EF  30A0               	movlw	low(0FA0h)
  1555  01F0  1283               	bcf	status, 5	;RP0=0, select bank0
  1556  01F1  1303               	bcf	status, 6	;RP1=0, select bank0
  1557  01F2  00DC               	movwf	(?_delay)
  1558  01F3  300F               	movlw	high(0FA0h)
  1559  01F4  00DD               	movwf	((?_delay))+1
  1560  01F5  120A  158A  27CC   	fcall	_delay
              120A  118A         
  1561                           	line	86
  1562                           ;servertest.c: 86: lcdcmd(0x01);
  1563  01FA  3001               	movlw	low(01h)
  1564  01FB  1283               	bcf	status, 5	;RP0=0, select bank0
  1565  01FC  1303               	bcf	status, 6	;RP1=0, select bank0
  1566  01FD  00E2               	movwf	(?_lcdcmd)
  1567  01FE  3000               	movlw	high(01h)
  1568  01FF  00E3               	movwf	((?_lcdcmd))+1
  1569  0200  120A  158A  27B8   	fcall	_lcdcmd
              120A  118A         
  1570                           	line	87
  1571                           ;servertest.c: 87: delay(10);
  1572  0205  300A               	movlw	low(0Ah)
  1573  0206  1283               	bcf	status, 5	;RP0=0, select bank0
  1574  0207  1303               	bcf	status, 6	;RP1=0, select bank0
  1575  0208  00DC               	movwf	(?_delay)
  1576  0209  3000               	movlw	high(0Ah)
  1577  020A  00DD               	movwf	((?_delay))+1
  1578  020B  120A  158A  27CC   	fcall	_delay
              120A  118A         
  1579                           	line	89
  1580                           	
  1581  0210                     l3706:	
  1582                           ;servertest.c: 89: ii=0;
  1583  0210  1283               	bcf	status, 5	;RP0=0, select bank0
  1584  0211  1303               	bcf	status, 6	;RP1=0, select bank0
  1585  0212  01D4               	clrf	(_ii)
  1586  0213  01D5               	clrf	(_ii+1)
  1587  0214  2A15               	goto	l3708
  1588                           	line	91
  1589                           	
  1590  0215                     l736:	
  1591                           	line	93
  1592                           	
  1593  0215                     l3708:	
  1594                           ;servertest.c: 91: }
  1595                           ;servertest.c: 93: lcdcmd(0x80);
  1596  0215  3080               	movlw	low(080h)
  1597  0216  00E2               	movwf	(?_lcdcmd)
  1598  0217  3000               	movlw	high(080h)
  1599  0218  00E3               	movwf	((?_lcdcmd))+1
  1600  0219  120A  158A  27B8   	fcall	_lcdcmd
              120A  118A         
  1601                           	line	94
  1602                           	
  1603  021E                     l3710:	
  1604                           ;servertest.c: 94: delay(10);
  1605  021E  300A               	movlw	low(0Ah)
  1606  021F  1283               	bcf	status, 5	;RP0=0, select bank0
  1607  0220  1303               	bcf	status, 6	;RP1=0, select bank0
  1608  0221  00DC               	movwf	(?_delay)
  1609  0222  3000               	movlw	high(0Ah)
  1610  0223  00DD               	movwf	((?_delay))+1
  1611  0224  120A  158A  27CC   	fcall	_delay
              120A  118A         
  1612                           	line	95
  1613                           	
  1614  0229                     l3712:	
  1615                           ;servertest.c: 95: display("     WELCOME    ");
  1616  0229  3024               	movlw	low(STR_5|8000h)
  1617  022A  1283               	bcf	status, 5	;RP0=0, select bank0
  1618  022B  1303               	bcf	status, 6	;RP1=0, select bank0
  1619  022C  00E4               	movwf	(?_display)
  1620  022D  3086               	movlw	high(STR_5|8000h)
  1621  022E  00E5               	movwf	((?_display))+1
  1622  022F  120A  118A  275A   	fcall	_display
              120A  118A         
  1623                           	line	96
  1624                           	
  1625  0234                     l3714:	
  1626                           ;servertest.c: 96: lcdcmd(0xc0);
  1627  0234  30C0               	movlw	low(0C0h)
  1628  0235  1283               	bcf	status, 5	;RP0=0, select bank0
  1629  0236  1303               	bcf	status, 6	;RP1=0, select bank0
  1630  0237  00E2               	movwf	(?_lcdcmd)
  1631  0238  3000               	movlw	high(0C0h)
  1632  0239  00E3               	movwf	((?_lcdcmd))+1
  1633  023A  120A  158A  27B8   	fcall	_lcdcmd
              120A  118A         
  1634                           	line	97
  1635                           	
  1636  023F                     l3716:	
  1637                           ;servertest.c: 97: delay(10);
  1638  023F  300A               	movlw	low(0Ah)
  1639  0240  1283               	bcf	status, 5	;RP0=0, select bank0
  1640  0241  1303               	bcf	status, 6	;RP1=0, select bank0
  1641  0242  00DC               	movwf	(?_delay)
  1642  0243  3000               	movlw	high(0Ah)
  1643  0244  00DD               	movwf	((?_delay))+1
  1644  0245  120A  158A  27CC   	fcall	_delay
              120A  118A         
  1645                           	line	98
  1646                           	
  1647  024A                     l3718:	
  1648                           ;servertest.c: 98: display(" pls enter card  ");
  1649  024A  3012               	movlw	low(STR_6|8000h)
  1650  024B  1283               	bcf	status, 5	;RP0=0, select bank0
  1651  024C  1303               	bcf	status, 6	;RP1=0, select bank0
  1652  024D  00E4               	movwf	(?_display)
  1653  024E  3086               	movlw	high(STR_6|8000h)
  1654  024F  00E5               	movwf	((?_display))+1
  1655  0250  120A  118A  275A   	fcall	_display
              120A  118A         
  1656                           	line	102
  1657                           	
  1658  0255                     l3720:	
  1659                           ;servertest.c: 102: if(RC0==0)
  1660  0255  1283               	bcf	status, 5	;RP0=0, select bank0
  1661  0256  1303               	bcf	status, 6	;RP1=0, select bank0
  1662  0257  1807               	btfsc	(56/8),(56)&7
  1663  0258  2A5A               	goto	u3881
  1664  0259  2A5B               	goto	u3880
  1665  025A                     u3881:
  1666  025A  2B42               	goto	l745
  1667  025B                     u3880:
  1668  025B  2A5D               	goto	l746
  1669                           	line	104
  1670                           	
  1671  025C                     l3722:	
  1672                           ;servertest.c: 103: {
  1673                           ;servertest.c: 104: while(RC0==0);
  1674  025C  2A5D               	goto	l746
  1675                           	
  1676  025D                     l747:	
  1677                           	
  1678  025D                     l746:	
  1679  025D  1C07               	btfss	(56/8),(56)&7
  1680  025E  2A60               	goto	u3891
  1681  025F  2A61               	goto	u3890
  1682  0260                     u3891:
  1683  0260  2A5D               	goto	l746
  1684  0261                     u3890:
  1685  0261  2A62               	goto	l3724
  1686                           	
  1687  0262                     l748:	
  1688                           	line	108
  1689                           	
  1690  0262                     l3724:	
  1691                           ;servertest.c: 108: lcdcmd(0x01);
  1692  0262  3001               	movlw	low(01h)
  1693  0263  00E2               	movwf	(?_lcdcmd)
  1694  0264  3000               	movlw	high(01h)
  1695  0265  00E3               	movwf	((?_lcdcmd))+1
  1696  0266  120A  158A  27B8   	fcall	_lcdcmd
              120A  118A         
  1697                           	line	109
  1698                           ;servertest.c: 109: delay(10);
  1699  026B  300A               	movlw	low(0Ah)
  1700  026C  1283               	bcf	status, 5	;RP0=0, select bank0
  1701  026D  1303               	bcf	status, 6	;RP1=0, select bank0
  1702  026E  00DC               	movwf	(?_delay)
  1703  026F  3000               	movlw	high(0Ah)
  1704  0270  00DD               	movwf	((?_delay))+1
  1705  0271  120A  158A  27CC   	fcall	_delay
              120A  118A         
  1706                           	line	110
  1707                           	
  1708  0276                     l3726:	
  1709                           ;servertest.c: 110: display(" enter location ");
  1710  0276  3068               	movlw	low(STR_7|8000h)
  1711  0277  1283               	bcf	status, 5	;RP0=0, select bank0
  1712  0278  1303               	bcf	status, 6	;RP1=0, select bank0
  1713  0279  00E4               	movwf	(?_display)
  1714  027A  3086               	movlw	high(STR_7|8000h)
  1715  027B  00E5               	movwf	((?_display))+1
  1716  027C  120A  118A  275A   	fcall	_display
              120A  118A         
  1717                           	line	112
  1718                           ;servertest.c: 112: while(RD0==1 && RD1==1 && RD2==1 && RD3==1);
  1719  0281  2A82               	goto	l749
  1720                           	
  1721  0282                     l750:	
  1722                           	
  1723  0282                     l749:	
  1724  0282  1283               	bcf	status, 5	;RP0=0, select bank0
  1725  0283  1303               	bcf	status, 6	;RP1=0, select bank0
  1726  0284  1C08               	btfss	(64/8),(64)&7
  1727  0285  2A87               	goto	u3901
  1728  0286  2A88               	goto	u3900
  1729  0287                     u3901:
  1730  0287  2A95               	goto	l753
  1731  0288                     u3900:
  1732                           	
  1733  0288                     l3728:	
  1734  0288  1C88               	btfss	(65/8),(65)&7
  1735  0289  2A8B               	goto	u3911
  1736  028A  2A8C               	goto	u3910
  1737  028B                     u3911:
  1738  028B  2A95               	goto	l753
  1739  028C                     u3910:
  1740                           	
  1741  028C                     l3730:	
  1742  028C  1D08               	btfss	(66/8),(66)&7
  1743  028D  2A8F               	goto	u3921
  1744  028E  2A90               	goto	u3920
  1745  028F                     u3921:
  1746  028F  2A95               	goto	l753
  1747  0290                     u3920:
  1748                           	
  1749  0290                     l3732:	
  1750  0290  1988               	btfsc	(67/8),(67)&7
  1751  0291  2A93               	goto	u3931
  1752  0292  2A94               	goto	u3930
  1753  0293                     u3931:
  1754  0293  2A82               	goto	l749
  1755  0294                     u3930:
  1756  0294  2A95               	goto	l753
  1757                           	
  1758  0295                     l752:	
  1759                           	
  1760  0295                     l753:	
  1761                           	line	114
  1762                           ;servertest.c: 114: if(RD0==0)
  1763  0295  1808               	btfsc	(64/8),(64)&7
  1764  0296  2A98               	goto	u3941
  1765  0297  2A99               	goto	u3940
  1766  0298                     u3941:
  1767  0298  2AAA               	goto	l3738
  1768  0299                     u3940:
  1769  0299  2A9B               	goto	l755
  1770                           	line	116
  1771                           	
  1772  029A                     l3734:	
  1773                           ;servertest.c: 115: {
  1774                           ;servertest.c: 116: while(RD0==0);
  1775  029A  2A9B               	goto	l755
  1776                           	
  1777  029B                     l756:	
  1778                           	
  1779  029B                     l755:	
  1780  029B  1C08               	btfss	(64/8),(64)&7
  1781  029C  2A9E               	goto	u3951
  1782  029D  2A9F               	goto	u3950
  1783  029E                     u3951:
  1784  029E  2A9B               	goto	l755
  1785  029F                     u3950:
  1786  029F  2AA0               	goto	l3736
  1787                           	
  1788  02A0                     l757:	
  1789                           	line	117
  1790                           	
  1791  02A0                     l3736:	
  1792                           ;servertest.c: 117: TXS("$10010");
  1793  02A0  30AA               	movlw	low(STR_8|8000h)
  1794  02A1  00E2               	movwf	(?_TXS)
  1795  02A2  3086               	movlw	high(STR_8|8000h)
  1796  02A3  00E3               	movwf	((?_TXS))+1
  1797  02A4  120A  118A  2797   	fcall	_TXS
              120A  118A         
  1798  02A9  2AAA               	goto	l3738
  1799                           	line	119
  1800                           	
  1801  02AA                     l754:	
  1802                           	line	120
  1803                           	
  1804  02AA                     l3738:	
  1805                           ;servertest.c: 119: }
  1806                           ;servertest.c: 120: if(RD1==0)
  1807  02AA  1283               	bcf	status, 5	;RP0=0, select bank0
  1808  02AB  1303               	bcf	status, 6	;RP1=0, select bank0
  1809  02AC  1888               	btfsc	(65/8),(65)&7
  1810  02AD  2AAF               	goto	u3961
  1811  02AE  2AB0               	goto	u3960
  1812  02AF                     u3961:
  1813  02AF  2AC1               	goto	l3744
  1814  02B0                     u3960:
  1815  02B0  2AB2               	goto	l759
  1816                           	line	122
  1817                           	
  1818  02B1                     l3740:	
  1819                           ;servertest.c: 121: {
  1820                           ;servertest.c: 122: while(RD1==0);
  1821  02B1  2AB2               	goto	l759
  1822                           	
  1823  02B2                     l760:	
  1824                           	
  1825  02B2                     l759:	
  1826  02B2  1C88               	btfss	(65/8),(65)&7
  1827  02B3  2AB5               	goto	u3971
  1828  02B4  2AB6               	goto	u3970
  1829  02B5                     u3971:
  1830  02B5  2AB2               	goto	l759
  1831  02B6                     u3970:
  1832  02B6  2AB7               	goto	l3742
  1833                           	
  1834  02B7                     l761:	
  1835                           	line	123
  1836                           	
  1837  02B7                     l3742:	
  1838                           ;servertest.c: 123: TXS("$10011");
  1839  02B7  30C6               	movlw	low(STR_9|8000h)
  1840  02B8  00E2               	movwf	(?_TXS)
  1841  02B9  3086               	movlw	high(STR_9|8000h)
  1842  02BA  00E3               	movwf	((?_TXS))+1
  1843  02BB  120A  118A  2797   	fcall	_TXS
              120A  118A         
  1844  02C0  2AC1               	goto	l3744
  1845                           	line	125
  1846                           	
  1847  02C1                     l758:	
  1848                           	line	126
  1849                           	
  1850  02C1                     l3744:	
  1851                           ;servertest.c: 125: }
  1852                           ;servertest.c: 126: if(RD2==0)
  1853  02C1  1283               	bcf	status, 5	;RP0=0, select bank0
  1854  02C2  1303               	bcf	status, 6	;RP1=0, select bank0
  1855  02C3  1908               	btfsc	(66/8),(66)&7
  1856  02C4  2AC6               	goto	u3981
  1857  02C5  2AC7               	goto	u3980
  1858  02C6                     u3981:
  1859  02C6  2AD8               	goto	l3750
  1860  02C7                     u3980:
  1861  02C7  2AC9               	goto	l763
  1862                           	line	128
  1863                           	
  1864  02C8                     l3746:	
  1865                           ;servertest.c: 127: {
  1866                           ;servertest.c: 128: while(RD2==0);
  1867  02C8  2AC9               	goto	l763
  1868                           	
  1869  02C9                     l764:	
  1870                           	
  1871  02C9                     l763:	
  1872  02C9  1D08               	btfss	(66/8),(66)&7
  1873  02CA  2ACC               	goto	u3991
  1874  02CB  2ACD               	goto	u3990
  1875  02CC                     u3991:
  1876  02CC  2AC9               	goto	l763
  1877  02CD                     u3990:
  1878  02CD  2ACE               	goto	l3748
  1879                           	
  1880  02CE                     l765:	
  1881                           	line	129
  1882                           	
  1883  02CE                     l3748:	
  1884                           ;servertest.c: 129: TXS("$10012");
  1885  02CE  30E2               	movlw	low(STR_10|8000h)
  1886  02CF  00E2               	movwf	(?_TXS)
  1887  02D0  3086               	movlw	high(STR_10|8000h)
  1888  02D1  00E3               	movwf	((?_TXS))+1
  1889  02D2  120A  118A  2797   	fcall	_TXS
              120A  118A         
  1890  02D7  2AD8               	goto	l3750
  1891                           	line	131
  1892                           	
  1893  02D8                     l762:	
  1894                           	line	132
  1895                           	
  1896  02D8                     l3750:	
  1897                           ;servertest.c: 131: }
  1898                           ;servertest.c: 132: if(RD3==0)
  1899  02D8  1283               	bcf	status, 5	;RP0=0, select bank0
  1900  02D9  1303               	bcf	status, 6	;RP1=0, select bank0
  1901  02DA  1988               	btfsc	(67/8),(67)&7
  1902  02DB  2ADD               	goto	u4001
  1903  02DC  2ADE               	goto	u4000
  1904  02DD                     u4001:
  1905  02DD  2AF5               	goto	l3758
  1906  02DE                     u4000:
  1907  02DE  2AE0               	goto	l767
  1908                           	line	134
  1909                           	
  1910  02DF                     l3752:	
  1911                           ;servertest.c: 133: {
  1912                           ;servertest.c: 134: while(RD3==0);
  1913  02DF  2AE0               	goto	l767
  1914                           	
  1915  02E0                     l768:	
  1916                           	
  1917  02E0                     l767:	
  1918  02E0  1D88               	btfss	(67/8),(67)&7
  1919  02E1  2AE3               	goto	u4011
  1920  02E2  2AE4               	goto	u4010
  1921  02E3                     u4011:
  1922  02E3  2AE0               	goto	l767
  1923  02E4                     u4010:
  1924  02E4  2AE5               	goto	l3754
  1925                           	
  1926  02E5                     l769:	
  1927                           	line	135
  1928                           	
  1929  02E5                     l3754:	
  1930                           ;servertest.c: 135: TXS("$10013");
  1931  02E5  30FE               	movlw	low(STR_11|8000h)
  1932  02E6  00E2               	movwf	(?_TXS)
  1933  02E7  3086               	movlw	high(STR_11|8000h)
  1934  02E8  00E3               	movwf	((?_TXS))+1
  1935  02E9  120A  118A  2797   	fcall	_TXS
              120A  118A         
  1936                           	line	136
  1937                           	
  1938  02EE                     l3756:	
  1939                           ;servertest.c: 136: TX(13);
  1940  02EE  300D               	movlw	(0Dh)
  1941  02EF  120A  118A  27F1   	fcall	_TX
              120A  118A         
  1942  02F4  2AF5               	goto	l3758
  1943                           	line	138
  1944                           	
  1945  02F5                     l766:	
  1946                           	line	139
  1947                           	
  1948  02F5                     l3758:	
  1949                           ;servertest.c: 138: }
  1950                           ;servertest.c: 139: lcdcmd(0x80);
  1951  02F5  3080               	movlw	low(080h)
  1952  02F6  1283               	bcf	status, 5	;RP0=0, select bank0
  1953  02F7  1303               	bcf	status, 6	;RP1=0, select bank0
  1954  02F8  00E2               	movwf	(?_lcdcmd)
  1955  02F9  3000               	movlw	high(080h)
  1956  02FA  00E3               	movwf	((?_lcdcmd))+1
  1957  02FB  120A  158A  27B8   	fcall	_lcdcmd
              120A  118A         
  1958                           	line	140
  1959                           	
  1960  0300                     l3760:	
  1961                           ;servertest.c: 140: delay(10);
  1962  0300  300A               	movlw	low(0Ah)
  1963  0301  1283               	bcf	status, 5	;RP0=0, select bank0
  1964  0302  1303               	bcf	status, 6	;RP1=0, select bank0
  1965  0303  00DC               	movwf	(?_delay)
  1966  0304  3000               	movlw	high(0Ah)
  1967  0305  00DD               	movwf	((?_delay))+1
  1968  0306  120A  158A  27CC   	fcall	_delay
              120A  118A         
  1969                           	line	141
  1970                           	
  1971  030B                     l3762:	
  1972                           ;servertest.c: 141: display("  request send  ");
  1973  030B  3035               	movlw	low(STR_12|8000h)
  1974  030C  1283               	bcf	status, 5	;RP0=0, select bank0
  1975  030D  1303               	bcf	status, 6	;RP1=0, select bank0
  1976  030E  00E4               	movwf	(?_display)
  1977  030F  3086               	movlw	high(STR_12|8000h)
  1978  0310  00E5               	movwf	((?_display))+1
  1979  0311  120A  118A  275A   	fcall	_display
              120A  118A         
  1980                           	line	142
  1981                           ;servertest.c: 142: lcdcmd(0xc0);
  1982  0316  30C0               	movlw	low(0C0h)
  1983  0317  1283               	bcf	status, 5	;RP0=0, select bank0
  1984  0318  1303               	bcf	status, 6	;RP1=0, select bank0
  1985  0319  00E2               	movwf	(?_lcdcmd)
  1986  031A  3000               	movlw	high(0C0h)
  1987  031B  00E3               	movwf	((?_lcdcmd))+1
  1988  031C  120A  158A  27B8   	fcall	_lcdcmd
              120A  118A         
  1989                           	line	143
  1990                           ;servertest.c: 143: delay(10);
  1991  0321  300A               	movlw	low(0Ah)
  1992  0322  1283               	bcf	status, 5	;RP0=0, select bank0
  1993  0323  1303               	bcf	status, 6	;RP1=0, select bank0
  1994  0324  00DC               	movwf	(?_delay)
  1995  0325  3000               	movlw	high(0Ah)
  1996  0326  00DD               	movwf	((?_delay))+1
  1997  0327  120A  158A  27CC   	fcall	_delay
              120A  118A         
  1998                           	line	144
  1999                           	
  2000  032C                     l3764:	
  2001                           ;servertest.c: 144: display(" *** waiting ***");
  2002  032C  3079               	movlw	low(STR_13|8000h)
  2003  032D  1283               	bcf	status, 5	;RP0=0, select bank0
  2004  032E  1303               	bcf	status, 6	;RP1=0, select bank0
  2005  032F  00E4               	movwf	(?_display)
  2006  0330  3086               	movlw	high(STR_13|8000h)
  2007  0331  00E5               	movwf	((?_display))+1
  2008  0332  120A  118A  275A   	fcall	_display
              120A  118A         
  2009                           	line	145
  2010                           ;servertest.c: 145: while(intrf==0);
  2011  0337  2B39               	goto	l3766
  2012                           	
  2013  0338                     l771:	
  2014  0338  2B39               	goto	l3766
  2015                           	
  2016  0339                     l770:	
  2017                           	
  2018  0339                     l3766:	
  2019  0339  1283               	bcf	status, 5	;RP0=0, select bank0
  2020  033A  1303               	bcf	status, 6	;RP1=0, select bank0
  2021  033B  0857               	movf	(_intrf+1),w
  2022  033C  0456               	iorwf	(_intrf),w
  2023  033D  1903               	skipnz
  2024  033E  2B40               	goto	u4021
  2025  033F  2B41               	goto	u4020
  2026  0340                     u4021:
  2027  0340  2B39               	goto	l3766
  2028  0341                     u4020:
  2029  0341  2B42               	goto	l745
  2030                           	
  2031  0342                     l772:	
  2032                           	line	146
  2033                           	
  2034  0342                     l745:	
  2035                           	line	153
  2036                           ;servertest.c: 146: }
  2037                           ;servertest.c: 153: if(RC1==0)
  2038  0342  1887               	btfsc	(57/8),(57)&7
  2039  0343  2B45               	goto	u4031
  2040  0344  2B46               	goto	u4030
  2041  0345                     u4031:
  2042  0345  2C27               	goto	l773
  2043  0346                     u4030:
  2044  0346  2B48               	goto	l774
  2045                           	line	155
  2046                           	
  2047  0347                     l3768:	
  2048                           ;servertest.c: 154: {
  2049                           ;servertest.c: 155: while(RC1==0);
  2050  0347  2B48               	goto	l774
  2051                           	
  2052  0348                     l775:	
  2053                           	
  2054  0348                     l774:	
  2055  0348  1C87               	btfss	(57/8),(57)&7
  2056  0349  2B4B               	goto	u4041
  2057  034A  2B4C               	goto	u4040
  2058  034B                     u4041:
  2059  034B  2B48               	goto	l774
  2060  034C                     u4040:
  2061  034C  2B4D               	goto	l3770
  2062                           	
  2063  034D                     l776:	
  2064                           	line	159
  2065                           	
  2066  034D                     l3770:	
  2067                           ;servertest.c: 159: lcdcmd(0x01);
  2068  034D  3001               	movlw	low(01h)
  2069  034E  00E2               	movwf	(?_lcdcmd)
  2070  034F  3000               	movlw	high(01h)
  2071  0350  00E3               	movwf	((?_lcdcmd))+1
  2072  0351  120A  158A  27B8   	fcall	_lcdcmd
              120A  118A         
  2073                           	line	160
  2074                           ;servertest.c: 160: delay(10);
  2075  0356  300A               	movlw	low(0Ah)
  2076  0357  1283               	bcf	status, 5	;RP0=0, select bank0
  2077  0358  1303               	bcf	status, 6	;RP1=0, select bank0
  2078  0359  00DC               	movwf	(?_delay)
  2079  035A  3000               	movlw	high(0Ah)
  2080  035B  00DD               	movwf	((?_delay))+1
  2081  035C  120A  158A  27CC   	fcall	_delay
              120A  118A         
  2082                           	line	161
  2083                           	
  2084  0361                     l3772:	
  2085                           ;servertest.c: 161: display(" enter location ");
  2086  0361  3068               	movlw	low(STR_14|8000h)
  2087  0362  1283               	bcf	status, 5	;RP0=0, select bank0
  2088  0363  1303               	bcf	status, 6	;RP1=0, select bank0
  2089  0364  00E4               	movwf	(?_display)
  2090  0365  3086               	movlw	high(STR_14|8000h)
  2091  0366  00E5               	movwf	((?_display))+1
  2092  0367  120A  118A  275A   	fcall	_display
              120A  118A         
  2093                           	line	163
  2094                           ;servertest.c: 163: while(RD0==1 && RD1==1 && RD2==1 && RD3==1);
  2095  036C  2B6D               	goto	l777
  2096                           	
  2097  036D                     l778:	
  2098                           	
  2099  036D                     l777:	
  2100  036D  1283               	bcf	status, 5	;RP0=0, select bank0
  2101  036E  1303               	bcf	status, 6	;RP1=0, select bank0
  2102  036F  1C08               	btfss	(64/8),(64)&7
  2103  0370  2B72               	goto	u4051
  2104  0371  2B73               	goto	u4050
  2105  0372                     u4051:
  2106  0372  2B80               	goto	l781
  2107  0373                     u4050:
  2108                           	
  2109  0373                     l3774:	
  2110  0373  1C88               	btfss	(65/8),(65)&7
  2111  0374  2B76               	goto	u4061
  2112  0375  2B77               	goto	u4060
  2113  0376                     u4061:
  2114  0376  2B80               	goto	l781
  2115  0377                     u4060:
  2116                           	
  2117  0377                     l3776:	
  2118  0377  1D08               	btfss	(66/8),(66)&7
  2119  0378  2B7A               	goto	u4071
  2120  0379  2B7B               	goto	u4070
  2121  037A                     u4071:
  2122  037A  2B80               	goto	l781
  2123  037B                     u4070:
  2124                           	
  2125  037B                     l3778:	
  2126  037B  1988               	btfsc	(67/8),(67)&7
  2127  037C  2B7E               	goto	u4081
  2128  037D  2B7F               	goto	u4080
  2129  037E                     u4081:
  2130  037E  2B6D               	goto	l777
  2131  037F                     u4080:
  2132  037F  2B80               	goto	l781
  2133                           	
  2134  0380                     l780:	
  2135                           	
  2136  0380                     l781:	
  2137                           	line	165
  2138                           ;servertest.c: 165: if(RD0==0)
  2139  0380  1808               	btfsc	(64/8),(64)&7
  2140  0381  2B83               	goto	u4091
  2141  0382  2B84               	goto	u4090
  2142  0383                     u4091:
  2143  0383  2B95               	goto	l3784
  2144  0384                     u4090:
  2145  0384  2B86               	goto	l783
  2146                           	line	167
  2147                           	
  2148  0385                     l3780:	
  2149                           ;servertest.c: 166: {
  2150                           ;servertest.c: 167: while(RD0==0);
  2151  0385  2B86               	goto	l783
  2152                           	
  2153  0386                     l784:	
  2154                           	
  2155  0386                     l783:	
  2156  0386  1C08               	btfss	(64/8),(64)&7
  2157  0387  2B89               	goto	u4101
  2158  0388  2B8A               	goto	u4100
  2159  0389                     u4101:
  2160  0389  2B86               	goto	l783
  2161  038A                     u4100:
  2162  038A  2B8B               	goto	l3782
  2163                           	
  2164  038B                     l785:	
  2165                           	line	168
  2166                           	
  2167  038B                     l3782:	
  2168                           ;servertest.c: 168: TXS("$10110");
  2169  038B  30B1               	movlw	low(STR_15|8000h)
  2170  038C  00E2               	movwf	(?_TXS)
  2171  038D  3086               	movlw	high(STR_15|8000h)
  2172  038E  00E3               	movwf	((?_TXS))+1
  2173  038F  120A  118A  2797   	fcall	_TXS
              120A  118A         
  2174  0394  2B95               	goto	l3784
  2175                           	line	170
  2176                           	
  2177  0395                     l782:	
  2178                           	line	171
  2179                           	
  2180  0395                     l3784:	
  2181                           ;servertest.c: 170: }
  2182                           ;servertest.c: 171: if(RD1==0)
  2183  0395  1283               	bcf	status, 5	;RP0=0, select bank0
  2184  0396  1303               	bcf	status, 6	;RP1=0, select bank0
  2185  0397  1888               	btfsc	(65/8),(65)&7
  2186  0398  2B9A               	goto	u4111
  2187  0399  2B9B               	goto	u4110
  2188  039A                     u4111:
  2189  039A  2BAC               	goto	l3790
  2190  039B                     u4110:
  2191  039B  2B9D               	goto	l787
  2192                           	line	173
  2193                           	
  2194  039C                     l3786:	
  2195                           ;servertest.c: 172: {
  2196                           ;servertest.c: 173: while(RD1==0);
  2197  039C  2B9D               	goto	l787
  2198                           	
  2199  039D                     l788:	
  2200                           	
  2201  039D                     l787:	
  2202  039D  1C88               	btfss	(65/8),(65)&7
  2203  039E  2BA0               	goto	u4121
  2204  039F  2BA1               	goto	u4120
  2205  03A0                     u4121:
  2206  03A0  2B9D               	goto	l787
  2207  03A1                     u4120:
  2208  03A1  2BA2               	goto	l3788
  2209                           	
  2210  03A2                     l789:	
  2211                           	line	174
  2212                           	
  2213  03A2                     l3788:	
  2214                           ;servertest.c: 174: TXS("$10111");
  2215  03A2  30CD               	movlw	low(STR_16|8000h)
  2216  03A3  00E2               	movwf	(?_TXS)
  2217  03A4  3086               	movlw	high(STR_16|8000h)
  2218  03A5  00E3               	movwf	((?_TXS))+1
  2219  03A6  120A  118A  2797   	fcall	_TXS
              120A  118A         
  2220  03AB  2BAC               	goto	l3790
  2221                           	line	176
  2222                           	
  2223  03AC                     l786:	
  2224                           	line	177
  2225                           	
  2226  03AC                     l3790:	
  2227                           ;servertest.c: 176: }
  2228                           ;servertest.c: 177: if(RD2==0)
  2229  03AC  1283               	bcf	status, 5	;RP0=0, select bank0
  2230  03AD  1303               	bcf	status, 6	;RP1=0, select bank0
  2231  03AE  1908               	btfsc	(66/8),(66)&7
  2232  03AF  2BB1               	goto	u4131
  2233  03B0  2BB2               	goto	u4130
  2234  03B1                     u4131:
  2235  03B1  2BC3               	goto	l3796
  2236  03B2                     u4130:
  2237  03B2  2BB4               	goto	l791
  2238                           	line	179
  2239                           	
  2240  03B3                     l3792:	
  2241                           ;servertest.c: 178: {
  2242                           ;servertest.c: 179: while(RD2==0);
  2243  03B3  2BB4               	goto	l791
  2244                           	
  2245  03B4                     l792:	
  2246                           	
  2247  03B4                     l791:	
  2248  03B4  1D08               	btfss	(66/8),(66)&7
  2249  03B5  2BB7               	goto	u4141
  2250  03B6  2BB8               	goto	u4140
  2251  03B7                     u4141:
  2252  03B7  2BB4               	goto	l791
  2253  03B8                     u4140:
  2254  03B8  2BB9               	goto	l3794
  2255                           	
  2256  03B9                     l793:	
  2257                           	line	180
  2258                           	
  2259  03B9                     l3794:	
  2260                           ;servertest.c: 180: TXS("$10112");
  2261  03B9  30E9               	movlw	low(STR_17|8000h)
  2262  03BA  00E2               	movwf	(?_TXS)
  2263  03BB  3086               	movlw	high(STR_17|8000h)
  2264  03BC  00E3               	movwf	((?_TXS))+1
  2265  03BD  120A  118A  2797   	fcall	_TXS
              120A  118A         
  2266  03C2  2BC3               	goto	l3796
  2267                           	line	182
  2268                           	
  2269  03C3                     l790:	
  2270                           	line	183
  2271                           	
  2272  03C3                     l3796:	
  2273                           ;servertest.c: 182: }
  2274                           ;servertest.c: 183: if(RD3==0)
  2275  03C3  1283               	bcf	status, 5	;RP0=0, select bank0
  2276  03C4  1303               	bcf	status, 6	;RP1=0, select bank0
  2277  03C5  1988               	btfsc	(67/8),(67)&7
  2278  03C6  2BC8               	goto	u4151
  2279  03C7  2BC9               	goto	u4150
  2280  03C8                     u4151:
  2281  03C8  2BDA               	goto	l3802
  2282  03C9                     u4150:
  2283  03C9  2BCB               	goto	l795
  2284                           	line	185
  2285                           	
  2286  03CA                     l3798:	
  2287                           ;servertest.c: 184: {
  2288                           ;servertest.c: 185: while(RD3==0);
  2289  03CA  2BCB               	goto	l795
  2290                           	
  2291  03CB                     l796:	
  2292                           	
  2293  03CB                     l795:	
  2294  03CB  1D88               	btfss	(67/8),(67)&7
  2295  03CC  2BCE               	goto	u4161
  2296  03CD  2BCF               	goto	u4160
  2297  03CE                     u4161:
  2298  03CE  2BCB               	goto	l795
  2299  03CF                     u4160:
  2300  03CF  2BD0               	goto	l3800
  2301                           	
  2302  03D0                     l797:	
  2303                           	line	186
  2304                           	
  2305  03D0                     l3800:	
  2306                           ;servertest.c: 186: TXS("$10113");
  2307  03D0  3005               	movlw	low(STR_18|8000h)
  2308  03D1  00E2               	movwf	(?_TXS)
  2309  03D2  3087               	movlw	high(STR_18|8000h)
  2310  03D3  00E3               	movwf	((?_TXS))+1
  2311  03D4  120A  118A  2797   	fcall	_TXS
              120A  118A         
  2312  03D9  2BDA               	goto	l3802
  2313                           	line	189
  2314                           	
  2315  03DA                     l794:	
  2316                           	line	190
  2317                           	
  2318  03DA                     l3802:	
  2319                           ;servertest.c: 189: }
  2320                           ;servertest.c: 190: lcdcmd(0x80);
  2321  03DA  3080               	movlw	low(080h)
  2322  03DB  1283               	bcf	status, 5	;RP0=0, select bank0
  2323  03DC  1303               	bcf	status, 6	;RP1=0, select bank0
  2324  03DD  00E2               	movwf	(?_lcdcmd)
  2325  03DE  3000               	movlw	high(080h)
  2326  03DF  00E3               	movwf	((?_lcdcmd))+1
  2327  03E0  120A  158A  27B8   	fcall	_lcdcmd
              120A  118A         
  2328                           	line	191
  2329                           	
  2330  03E5                     l3804:	
  2331                           ;servertest.c: 191: delay(10);
  2332  03E5  300A               	movlw	low(0Ah)
  2333  03E6  1283               	bcf	status, 5	;RP0=0, select bank0
  2334  03E7  1303               	bcf	status, 6	;RP1=0, select bank0
  2335  03E8  00DC               	movwf	(?_delay)
  2336  03E9  3000               	movlw	high(0Ah)
  2337  03EA  00DD               	movwf	((?_delay))+1
  2338  03EB  120A  158A  27CC   	fcall	_delay
              120A  118A         
  2339                           	line	192
  2340                           ;servertest.c: 192: display("  request send  ");
  2341  03F0  3035               	movlw	low(STR_19|8000h)
  2342  03F1  1283               	bcf	status, 5	;RP0=0, select bank0
  2343  03F2  1303               	bcf	status, 6	;RP1=0, select bank0
  2344  03F3  00E4               	movwf	(?_display)
  2345  03F4  3086               	movlw	high(STR_19|8000h)
  2346  03F5  00E5               	movwf	((?_display))+1
  2347  03F6  120A  118A  275A   	fcall	_display
              120A  118A         
  2348                           	line	193
  2349                           	
  2350  03FB                     l3806:	
  2351                           ;servertest.c: 193: lcdcmd(0xc0);
  2352  03FB  30C0               	movlw	low(0C0h)
  2353  03FC  1283               	bcf	status, 5	;RP0=0, select bank0
  2354  03FD  1303               	bcf	status, 6	;RP1=0, select bank0
  2355  03FE  00E2               	movwf	(?_lcdcmd)
  2356  03FF  3000               	movlw	high(0C0h)
  2357  0400  00E3               	movwf	((?_lcdcmd))+1
  2358  0401  120A  158A  27B8   	fcall	_lcdcmd
              120A  118A         
  2359                           	line	194
  2360                           	
  2361  0406                     l3808:	
  2362                           ;servertest.c: 194: delay(10);
  2363  0406  300A               	movlw	low(0Ah)
  2364  0407  1283               	bcf	status, 5	;RP0=0, select bank0
  2365  0408  1303               	bcf	status, 6	;RP1=0, select bank0
  2366  0409  00DC               	movwf	(?_delay)
  2367  040A  3000               	movlw	high(0Ah)
  2368  040B  00DD               	movwf	((?_delay))+1
  2369  040C  120A  158A  27CC   	fcall	_delay
              120A  118A         
  2370                           	line	195
  2371                           ;servertest.c: 195: display(" *** waiting ***");;
  2372  0411  3079               	movlw	low(STR_20|8000h)
  2373  0412  1283               	bcf	status, 5	;RP0=0, select bank0
  2374  0413  1303               	bcf	status, 6	;RP1=0, select bank0
  2375  0414  00E4               	movwf	(?_display)
  2376  0415  3086               	movlw	high(STR_20|8000h)
  2377  0416  00E5               	movwf	((?_display))+1
  2378  0417  120A  118A  275A   	fcall	_display
              120A  118A         
  2379                           	line	196
  2380                           ;servertest.c: 196: while(intrf==0);
  2381  041C  2C1E               	goto	l3810
  2382                           	
  2383  041D                     l799:	
  2384  041D  2C1E               	goto	l3810
  2385                           	
  2386  041E                     l798:	
  2387                           	
  2388  041E                     l3810:	
  2389  041E  1283               	bcf	status, 5	;RP0=0, select bank0
  2390  041F  1303               	bcf	status, 6	;RP1=0, select bank0
  2391  0420  0857               	movf	(_intrf+1),w
  2392  0421  0456               	iorwf	(_intrf),w
  2393  0422  1903               	skipnz
  2394  0423  2C25               	goto	u4171
  2395  0424  2C26               	goto	u4170
  2396  0425                     u4171:
  2397  0425  2C1E               	goto	l3810
  2398  0426                     u4170:
  2399  0426  2C27               	goto	l773
  2400                           	
  2401  0427                     l800:	
  2402                           	line	198
  2403                           	
  2404  0427                     l773:	
  2405                           	line	205
  2406                           ;servertest.c: 198: }
  2407                           ;servertest.c: 205: if(RC2==0)
  2408  0427  1907               	btfsc	(58/8),(58)&7
  2409  0428  2C2A               	goto	u4181
  2410  0429  2C2B               	goto	u4180
  2411  042A                     u4181:
  2412  042A  2D0C               	goto	l801
  2413  042B                     u4180:
  2414  042B  2C2D               	goto	l802
  2415                           	line	207
  2416                           	
  2417  042C                     l3812:	
  2418                           ;servertest.c: 206: {
  2419                           ;servertest.c: 207: while(RC2==0);
  2420  042C  2C2D               	goto	l802
  2421                           	
  2422  042D                     l803:	
  2423                           	
  2424  042D                     l802:	
  2425  042D  1D07               	btfss	(58/8),(58)&7
  2426  042E  2C30               	goto	u4191
  2427  042F  2C31               	goto	u4190
  2428  0430                     u4191:
  2429  0430  2C2D               	goto	l802
  2430  0431                     u4190:
  2431  0431  2C32               	goto	l3814
  2432                           	
  2433  0432                     l804:	
  2434                           	line	211
  2435                           	
  2436  0432                     l3814:	
  2437                           ;servertest.c: 211: lcdcmd(0x01);
  2438  0432  3001               	movlw	low(01h)
  2439  0433  00E2               	movwf	(?_lcdcmd)
  2440  0434  3000               	movlw	high(01h)
  2441  0435  00E3               	movwf	((?_lcdcmd))+1
  2442  0436  120A  158A  27B8   	fcall	_lcdcmd
              120A  118A         
  2443                           	line	212
  2444                           ;servertest.c: 212: delay(10);
  2445  043B  300A               	movlw	low(0Ah)
  2446  043C  1283               	bcf	status, 5	;RP0=0, select bank0
  2447  043D  1303               	bcf	status, 6	;RP1=0, select bank0
  2448  043E  00DC               	movwf	(?_delay)
  2449  043F  3000               	movlw	high(0Ah)
  2450  0440  00DD               	movwf	((?_delay))+1
  2451  0441  120A  158A  27CC   	fcall	_delay
              120A  118A         
  2452                           	line	213
  2453                           	
  2454  0446                     l3816:	
  2455                           ;servertest.c: 213: display(" enter location ");
  2456  0446  3068               	movlw	low(STR_21|8000h)
  2457  0447  1283               	bcf	status, 5	;RP0=0, select bank0
  2458  0448  1303               	bcf	status, 6	;RP1=0, select bank0
  2459  0449  00E4               	movwf	(?_display)
  2460  044A  3086               	movlw	high(STR_21|8000h)
  2461  044B  00E5               	movwf	((?_display))+1
  2462  044C  120A  118A  275A   	fcall	_display
              120A  118A         
  2463                           	line	215
  2464                           ;servertest.c: 215: while(RD0==1 && RD1==1 && RD2==1 && RD3==1);
  2465  0451  2C52               	goto	l805
  2466                           	
  2467  0452                     l806:	
  2468                           	
  2469  0452                     l805:	
  2470  0452  1283               	bcf	status, 5	;RP0=0, select bank0
  2471  0453  1303               	bcf	status, 6	;RP1=0, select bank0
  2472  0454  1C08               	btfss	(64/8),(64)&7
  2473  0455  2C57               	goto	u4201
  2474  0456  2C58               	goto	u4200
  2475  0457                     u4201:
  2476  0457  2C65               	goto	l809
  2477  0458                     u4200:
  2478                           	
  2479  0458                     l3818:	
  2480  0458  1C88               	btfss	(65/8),(65)&7
  2481  0459  2C5B               	goto	u4211
  2482  045A  2C5C               	goto	u4210
  2483  045B                     u4211:
  2484  045B  2C65               	goto	l809
  2485  045C                     u4210:
  2486                           	
  2487  045C                     l3820:	
  2488  045C  1D08               	btfss	(66/8),(66)&7
  2489  045D  2C5F               	goto	u4221
  2490  045E  2C60               	goto	u4220
  2491  045F                     u4221:
  2492  045F  2C65               	goto	l809
  2493  0460                     u4220:
  2494                           	
  2495  0460                     l3822:	
  2496  0460  1988               	btfsc	(67/8),(67)&7
  2497  0461  2C63               	goto	u4231
  2498  0462  2C64               	goto	u4230
  2499  0463                     u4231:
  2500  0463  2C52               	goto	l805
  2501  0464                     u4230:
  2502  0464  2C65               	goto	l809
  2503                           	
  2504  0465                     l808:	
  2505                           	
  2506  0465                     l809:	
  2507                           	line	217
  2508                           ;servertest.c: 217: if(RD0==0)
  2509  0465  1808               	btfsc	(64/8),(64)&7
  2510  0466  2C68               	goto	u4241
  2511  0467  2C69               	goto	u4240
  2512  0468                     u4241:
  2513  0468  2C7A               	goto	l3828
  2514  0469                     u4240:
  2515  0469  2C6B               	goto	l811
  2516                           	line	219
  2517                           	
  2518  046A                     l3824:	
  2519                           ;servertest.c: 218: {
  2520                           ;servertest.c: 219: while(RD0==0);
  2521  046A  2C6B               	goto	l811
  2522                           	
  2523  046B                     l812:	
  2524                           	
  2525  046B                     l811:	
  2526  046B  1C08               	btfss	(64/8),(64)&7
  2527  046C  2C6E               	goto	u4251
  2528  046D  2C6F               	goto	u4250
  2529  046E                     u4251:
  2530  046E  2C6B               	goto	l811
  2531  046F                     u4250:
  2532  046F  2C70               	goto	l3826
  2533                           	
  2534  0470                     l813:	
  2535                           	line	220
  2536                           	
  2537  0470                     l3826:	
  2538                           ;servertest.c: 220: TXS("$10210");
  2539  0470  30B8               	movlw	low(STR_22|8000h)
  2540  0471  00E2               	movwf	(?_TXS)
  2541  0472  3086               	movlw	high(STR_22|8000h)
  2542  0473  00E3               	movwf	((?_TXS))+1
  2543  0474  120A  118A  2797   	fcall	_TXS
              120A  118A         
  2544  0479  2C7A               	goto	l3828
  2545                           	line	222
  2546                           	
  2547  047A                     l810:	
  2548                           	line	223
  2549                           	
  2550  047A                     l3828:	
  2551                           ;servertest.c: 222: }
  2552                           ;servertest.c: 223: if(RD1==0)
  2553  047A  1283               	bcf	status, 5	;RP0=0, select bank0
  2554  047B  1303               	bcf	status, 6	;RP1=0, select bank0
  2555  047C  1888               	btfsc	(65/8),(65)&7
  2556  047D  2C7F               	goto	u4261
  2557  047E  2C80               	goto	u4260
  2558  047F                     u4261:
  2559  047F  2C91               	goto	l3834
  2560  0480                     u4260:
  2561  0480  2C82               	goto	l815
  2562                           	line	225
  2563                           	
  2564  0481                     l3830:	
  2565                           ;servertest.c: 224: {
  2566                           ;servertest.c: 225: while(RD1==0);
  2567  0481  2C82               	goto	l815
  2568                           	
  2569  0482                     l816:	
  2570                           	
  2571  0482                     l815:	
  2572  0482  1C88               	btfss	(65/8),(65)&7
  2573  0483  2C85               	goto	u4271
  2574  0484  2C86               	goto	u4270
  2575  0485                     u4271:
  2576  0485  2C82               	goto	l815
  2577  0486                     u4270:
  2578  0486  2C87               	goto	l3832
  2579                           	
  2580  0487                     l817:	
  2581                           	line	226
  2582                           	
  2583  0487                     l3832:	
  2584                           ;servertest.c: 226: TXS("$10211");
  2585  0487  30D4               	movlw	low(STR_23|8000h)
  2586  0488  00E2               	movwf	(?_TXS)
  2587  0489  3086               	movlw	high(STR_23|8000h)
  2588  048A  00E3               	movwf	((?_TXS))+1
  2589  048B  120A  118A  2797   	fcall	_TXS
              120A  118A         
  2590  0490  2C91               	goto	l3834
  2591                           	line	228
  2592                           	
  2593  0491                     l814:	
  2594                           	line	229
  2595                           	
  2596  0491                     l3834:	
  2597                           ;servertest.c: 228: }
  2598                           ;servertest.c: 229: if(RD2==0)
  2599  0491  1283               	bcf	status, 5	;RP0=0, select bank0
  2600  0492  1303               	bcf	status, 6	;RP1=0, select bank0
  2601  0493  1908               	btfsc	(66/8),(66)&7
  2602  0494  2C96               	goto	u4281
  2603  0495  2C97               	goto	u4280
  2604  0496                     u4281:
  2605  0496  2CA8               	goto	l3840
  2606  0497                     u4280:
  2607  0497  2C99               	goto	l819
  2608                           	line	231
  2609                           	
  2610  0498                     l3836:	
  2611                           ;servertest.c: 230: {
  2612                           ;servertest.c: 231: while(RD2==0);
  2613  0498  2C99               	goto	l819
  2614                           	
  2615  0499                     l820:	
  2616                           	
  2617  0499                     l819:	
  2618  0499  1D08               	btfss	(66/8),(66)&7
  2619  049A  2C9C               	goto	u4291
  2620  049B  2C9D               	goto	u4290
  2621  049C                     u4291:
  2622  049C  2C99               	goto	l819
  2623  049D                     u4290:
  2624  049D  2C9E               	goto	l3838
  2625                           	
  2626  049E                     l821:	
  2627                           	line	232
  2628                           	
  2629  049E                     l3838:	
  2630                           ;servertest.c: 232: TXS("$10212");
  2631  049E  30F0               	movlw	low(STR_24|8000h)
  2632  049F  00E2               	movwf	(?_TXS)
  2633  04A0  3086               	movlw	high(STR_24|8000h)
  2634  04A1  00E3               	movwf	((?_TXS))+1
  2635  04A2  120A  118A  2797   	fcall	_TXS
              120A  118A         
  2636  04A7  2CA8               	goto	l3840
  2637                           	line	234
  2638                           	
  2639  04A8                     l818:	
  2640                           	line	235
  2641                           	
  2642  04A8                     l3840:	
  2643                           ;servertest.c: 234: }
  2644                           ;servertest.c: 235: if(RD3==0)
  2645  04A8  1283               	bcf	status, 5	;RP0=0, select bank0
  2646  04A9  1303               	bcf	status, 6	;RP1=0, select bank0
  2647  04AA  1988               	btfsc	(67/8),(67)&7
  2648  04AB  2CAD               	goto	u4301
  2649  04AC  2CAE               	goto	u4300
  2650  04AD                     u4301:
  2651  04AD  2CBF               	goto	l3846
  2652  04AE                     u4300:
  2653  04AE  2CB0               	goto	l823
  2654                           	line	237
  2655                           	
  2656  04AF                     l3842:	
  2657                           ;servertest.c: 236: {
  2658                           ;servertest.c: 237: while(RD3==0);
  2659  04AF  2CB0               	goto	l823
  2660                           	
  2661  04B0                     l824:	
  2662                           	
  2663  04B0                     l823:	
  2664  04B0  1D88               	btfss	(67/8),(67)&7
  2665  04B1  2CB3               	goto	u4311
  2666  04B2  2CB4               	goto	u4310
  2667  04B3                     u4311:
  2668  04B3  2CB0               	goto	l823
  2669  04B4                     u4310:
  2670  04B4  2CB5               	goto	l3844
  2671                           	
  2672  04B5                     l825:	
  2673                           	line	238
  2674                           	
  2675  04B5                     l3844:	
  2676                           ;servertest.c: 238: TXS("$10213");
  2677  04B5  300C               	movlw	low(STR_25|8000h)
  2678  04B6  00E2               	movwf	(?_TXS)
  2679  04B7  3087               	movlw	high(STR_25|8000h)
  2680  04B8  00E3               	movwf	((?_TXS))+1
  2681  04B9  120A  118A  2797   	fcall	_TXS
              120A  118A         
  2682  04BE  2CBF               	goto	l3846
  2683                           	line	241
  2684                           	
  2685  04BF                     l822:	
  2686                           	line	242
  2687                           	
  2688  04BF                     l3846:	
  2689                           ;servertest.c: 241: }
  2690                           ;servertest.c: 242: lcdcmd(0x80);
  2691  04BF  3080               	movlw	low(080h)
  2692  04C0  1283               	bcf	status, 5	;RP0=0, select bank0
  2693  04C1  1303               	bcf	status, 6	;RP1=0, select bank0
  2694  04C2  00E2               	movwf	(?_lcdcmd)
  2695  04C3  3000               	movlw	high(080h)
  2696  04C4  00E3               	movwf	((?_lcdcmd))+1
  2697  04C5  120A  158A  27B8   	fcall	_lcdcmd
              120A  118A         
  2698                           	line	243
  2699                           	
  2700  04CA                     l3848:	
  2701                           ;servertest.c: 243: delay(10);
  2702  04CA  300A               	movlw	low(0Ah)
  2703  04CB  1283               	bcf	status, 5	;RP0=0, select bank0
  2704  04CC  1303               	bcf	status, 6	;RP1=0, select bank0
  2705  04CD  00DC               	movwf	(?_delay)
  2706  04CE  3000               	movlw	high(0Ah)
  2707  04CF  00DD               	movwf	((?_delay))+1
  2708  04D0  120A  158A  27CC   	fcall	_delay
              120A  118A         
  2709                           	line	244
  2710                           ;servertest.c: 244: display("  request send  ");
  2711  04D5  3035               	movlw	low(STR_26|8000h)
  2712  04D6  1283               	bcf	status, 5	;RP0=0, select bank0
  2713  04D7  1303               	bcf	status, 6	;RP1=0, select bank0
  2714  04D8  00E4               	movwf	(?_display)
  2715  04D9  3086               	movlw	high(STR_26|8000h)
  2716  04DA  00E5               	movwf	((?_display))+1
  2717  04DB  120A  118A  275A   	fcall	_display
              120A  118A         
  2718                           	line	245
  2719                           	
  2720  04E0                     l3850:	
  2721                           ;servertest.c: 245: lcdcmd(0xc0);
  2722  04E0  30C0               	movlw	low(0C0h)
  2723  04E1  1283               	bcf	status, 5	;RP0=0, select bank0
  2724  04E2  1303               	bcf	status, 6	;RP1=0, select bank0
  2725  04E3  00E2               	movwf	(?_lcdcmd)
  2726  04E4  3000               	movlw	high(0C0h)
  2727  04E5  00E3               	movwf	((?_lcdcmd))+1
  2728  04E6  120A  158A  27B8   	fcall	_lcdcmd
              120A  118A         
  2729                           	line	246
  2730                           	
  2731  04EB                     l3852:	
  2732                           ;servertest.c: 246: delay(10);
  2733  04EB  300A               	movlw	low(0Ah)
  2734  04EC  1283               	bcf	status, 5	;RP0=0, select bank0
  2735  04ED  1303               	bcf	status, 6	;RP1=0, select bank0
  2736  04EE  00DC               	movwf	(?_delay)
  2737  04EF  3000               	movlw	high(0Ah)
  2738  04F0  00DD               	movwf	((?_delay))+1
  2739  04F1  120A  158A  27CC   	fcall	_delay
              120A  118A         
  2740                           	line	247
  2741                           ;servertest.c: 247: display(" *** waiting ***");;
  2742  04F6  3079               	movlw	low(STR_27|8000h)
  2743  04F7  1283               	bcf	status, 5	;RP0=0, select bank0
  2744  04F8  1303               	bcf	status, 6	;RP1=0, select bank0
  2745  04F9  00E4               	movwf	(?_display)
  2746  04FA  3086               	movlw	high(STR_27|8000h)
  2747  04FB  00E5               	movwf	((?_display))+1
  2748  04FC  120A  118A  275A   	fcall	_display
              120A  118A         
  2749                           	line	248
  2750                           ;servertest.c: 248: while(intrf==0);
  2751  0501  2D03               	goto	l3854
  2752                           	
  2753  0502                     l827:	
  2754  0502  2D03               	goto	l3854
  2755                           	
  2756  0503                     l826:	
  2757                           	
  2758  0503                     l3854:	
  2759  0503  1283               	bcf	status, 5	;RP0=0, select bank0
  2760  0504  1303               	bcf	status, 6	;RP1=0, select bank0
  2761  0505  0857               	movf	(_intrf+1),w
  2762  0506  0456               	iorwf	(_intrf),w
  2763  0507  1903               	skipnz
  2764  0508  2D0A               	goto	u4321
  2765  0509  2D0B               	goto	u4320
  2766  050A                     u4321:
  2767  050A  2D03               	goto	l3854
  2768  050B                     u4320:
  2769  050B  2D0C               	goto	l801
  2770                           	
  2771  050C                     l828:	
  2772                           	line	250
  2773                           	
  2774  050C                     l801:	
  2775                           	line	256
  2776                           ;servertest.c: 250: }
  2777                           ;servertest.c: 256: if(RC3==0)
  2778  050C  1987               	btfsc	(59/8),(59)&7
  2779  050D  2D0F               	goto	u4331
  2780  050E  2D10               	goto	u4330
  2781  050F                     u4331:
  2782  050F  290C               	goto	l3664
  2783  0510                     u4330:
  2784  0510  2D12               	goto	l830
  2785                           	line	258
  2786                           	
  2787  0511                     l3856:	
  2788                           ;servertest.c: 257: {
  2789                           ;servertest.c: 258: while(RC3==0);
  2790  0511  2D12               	goto	l830
  2791                           	
  2792  0512                     l831:	
  2793                           	
  2794  0512                     l830:	
  2795  0512  1D87               	btfss	(59/8),(59)&7
  2796  0513  2D15               	goto	u4341
  2797  0514  2D16               	goto	u4340
  2798  0515                     u4341:
  2799  0515  2D12               	goto	l830
  2800  0516                     u4340:
  2801  0516  2D17               	goto	l3858
  2802                           	
  2803  0517                     l832:	
  2804                           	line	262
  2805                           	
  2806  0517                     l3858:	
  2807                           ;servertest.c: 262: lcdcmd(0x01);
  2808  0517  3001               	movlw	low(01h)
  2809  0518  00E2               	movwf	(?_lcdcmd)
  2810  0519  3000               	movlw	high(01h)
  2811  051A  00E3               	movwf	((?_lcdcmd))+1
  2812  051B  120A  158A  27B8   	fcall	_lcdcmd
              120A  118A         
  2813                           	line	263
  2814                           ;servertest.c: 263: delay(10);
  2815  0520  300A               	movlw	low(0Ah)
  2816  0521  1283               	bcf	status, 5	;RP0=0, select bank0
  2817  0522  1303               	bcf	status, 6	;RP1=0, select bank0
  2818  0523  00DC               	movwf	(?_delay)
  2819  0524  3000               	movlw	high(0Ah)
  2820  0525  00DD               	movwf	((?_delay))+1
  2821  0526  120A  158A  27CC   	fcall	_delay
              120A  118A         
  2822                           	line	264
  2823                           	
  2824  052B                     l3860:	
  2825                           ;servertest.c: 264: display(" enter location ");
  2826  052B  3068               	movlw	low(STR_28|8000h)
  2827  052C  1283               	bcf	status, 5	;RP0=0, select bank0
  2828  052D  1303               	bcf	status, 6	;RP1=0, select bank0
  2829  052E  00E4               	movwf	(?_display)
  2830  052F  3086               	movlw	high(STR_28|8000h)
  2831  0530  00E5               	movwf	((?_display))+1
  2832  0531  120A  118A  275A   	fcall	_display
              120A  118A         
  2833                           	line	266
  2834                           ;servertest.c: 266: while(RD0==1 && RD1==1 && RD2==1 && RD3==1);
  2835  0536  2D37               	goto	l833
  2836                           	
  2837  0537                     l834:	
  2838                           	
  2839  0537                     l833:	
  2840  0537  1283               	bcf	status, 5	;RP0=0, select bank0
  2841  0538  1303               	bcf	status, 6	;RP1=0, select bank0
  2842  0539  1C08               	btfss	(64/8),(64)&7
  2843  053A  2D3C               	goto	u4351
  2844  053B  2D3D               	goto	u4350
  2845  053C                     u4351:
  2846  053C  2D4A               	goto	l837
  2847  053D                     u4350:
  2848                           	
  2849  053D                     l3862:	
  2850  053D  1C88               	btfss	(65/8),(65)&7
  2851  053E  2D40               	goto	u4361
  2852  053F  2D41               	goto	u4360
  2853  0540                     u4361:
  2854  0540  2D4A               	goto	l837
  2855  0541                     u4360:
  2856                           	
  2857  0541                     l3864:	
  2858  0541  1D08               	btfss	(66/8),(66)&7
  2859  0542  2D44               	goto	u4371
  2860  0543  2D45               	goto	u4370
  2861  0544                     u4371:
  2862  0544  2D4A               	goto	l837
  2863  0545                     u4370:
  2864                           	
  2865  0545                     l3866:	
  2866  0545  1988               	btfsc	(67/8),(67)&7
  2867  0546  2D48               	goto	u4381
  2868  0547  2D49               	goto	u4380
  2869  0548                     u4381:
  2870  0548  2D37               	goto	l833
  2871  0549                     u4380:
  2872  0549  2D4A               	goto	l837
  2873                           	
  2874  054A                     l836:	
  2875                           	
  2876  054A                     l837:	
  2877                           	line	268
  2878                           ;servertest.c: 268: if(RD0==0)
  2879  054A  1808               	btfsc	(64/8),(64)&7
  2880  054B  2D4D               	goto	u4391
  2881  054C  2D4E               	goto	u4390
  2882  054D                     u4391:
  2883  054D  2D5F               	goto	l3872
  2884  054E                     u4390:
  2885  054E  2D50               	goto	l839
  2886                           	line	270
  2887                           	
  2888  054F                     l3868:	
  2889                           ;servertest.c: 269: {
  2890                           ;servertest.c: 270: while(RD0==0);
  2891  054F  2D50               	goto	l839
  2892                           	
  2893  0550                     l840:	
  2894                           	
  2895  0550                     l839:	
  2896  0550  1C08               	btfss	(64/8),(64)&7
  2897  0551  2D53               	goto	u4401
  2898  0552  2D54               	goto	u4400
  2899  0553                     u4401:
  2900  0553  2D50               	goto	l839
  2901  0554                     u4400:
  2902  0554  2D55               	goto	l3870
  2903                           	
  2904  0555                     l841:	
  2905                           	line	271
  2906                           	
  2907  0555                     l3870:	
  2908                           ;servertest.c: 271: TXS("$10310");
  2909  0555  30BF               	movlw	low(STR_29|8000h)
  2910  0556  00E2               	movwf	(?_TXS)
  2911  0557  3086               	movlw	high(STR_29|8000h)
  2912  0558  00E3               	movwf	((?_TXS))+1
  2913  0559  120A  118A  2797   	fcall	_TXS
              120A  118A         
  2914  055E  2D5F               	goto	l3872
  2915                           	line	273
  2916                           	
  2917  055F                     l838:	
  2918                           	line	274
  2919                           	
  2920  055F                     l3872:	
  2921                           ;servertest.c: 273: }
  2922                           ;servertest.c: 274: if(RD1==0)
  2923  055F  1283               	bcf	status, 5	;RP0=0, select bank0
  2924  0560  1303               	bcf	status, 6	;RP1=0, select bank0
  2925  0561  1888               	btfsc	(65/8),(65)&7
  2926  0562  2D64               	goto	u4411
  2927  0563  2D65               	goto	u4410
  2928  0564                     u4411:
  2929  0564  2D76               	goto	l3878
  2930  0565                     u4410:
  2931  0565  2D67               	goto	l843
  2932                           	line	276
  2933                           	
  2934  0566                     l3874:	
  2935                           ;servertest.c: 275: {
  2936                           ;servertest.c: 276: while(RD1==0);
  2937  0566  2D67               	goto	l843
  2938                           	
  2939  0567                     l844:	
  2940                           	
  2941  0567                     l843:	
  2942  0567  1C88               	btfss	(65/8),(65)&7
  2943  0568  2D6A               	goto	u4421
  2944  0569  2D6B               	goto	u4420
  2945  056A                     u4421:
  2946  056A  2D67               	goto	l843
  2947  056B                     u4420:
  2948  056B  2D6C               	goto	l3876
  2949                           	
  2950  056C                     l845:	
  2951                           	line	277
  2952                           	
  2953  056C                     l3876:	
  2954                           ;servertest.c: 277: TXS("$10311");
  2955  056C  30DB               	movlw	low(STR_30|8000h)
  2956  056D  00E2               	movwf	(?_TXS)
  2957  056E  3086               	movlw	high(STR_30|8000h)
  2958  056F  00E3               	movwf	((?_TXS))+1
  2959  0570  120A  118A  2797   	fcall	_TXS
              120A  118A         
  2960  0575  2D76               	goto	l3878
  2961                           	line	279
  2962                           	
  2963  0576                     l842:	
  2964                           	line	280
  2965                           	
  2966  0576                     l3878:	
  2967                           ;servertest.c: 279: }
  2968                           ;servertest.c: 280: if(RD2==0)
  2969  0576  1283               	bcf	status, 5	;RP0=0, select bank0
  2970  0577  1303               	bcf	status, 6	;RP1=0, select bank0
  2971  0578  1908               	btfsc	(66/8),(66)&7
  2972  0579  2D7B               	goto	u4431
  2973  057A  2D7C               	goto	u4430
  2974  057B                     u4431:
  2975  057B  2D8D               	goto	l3884
  2976  057C                     u4430:
  2977  057C  2D7E               	goto	l847
  2978                           	line	282
  2979                           	
  2980  057D                     l3880:	
  2981                           ;servertest.c: 281: {
  2982                           ;servertest.c: 282: while(RD2==0);
  2983  057D  2D7E               	goto	l847
  2984                           	
  2985  057E                     l848:	
  2986                           	
  2987  057E                     l847:	
  2988  057E  1D08               	btfss	(66/8),(66)&7
  2989  057F  2D81               	goto	u4441
  2990  0580  2D82               	goto	u4440
  2991  0581                     u4441:
  2992  0581  2D7E               	goto	l847
  2993  0582                     u4440:
  2994  0582  2D83               	goto	l3882
  2995                           	
  2996  0583                     l849:	
  2997                           	line	283
  2998                           	
  2999  0583                     l3882:	
  3000                           ;servertest.c: 283: TXS("$10312");
  3001  0583  30F7               	movlw	low(STR_31|8000h)
  3002  0584  00E2               	movwf	(?_TXS)
  3003  0585  3086               	movlw	high(STR_31|8000h)
  3004  0586  00E3               	movwf	((?_TXS))+1
  3005  0587  120A  118A  2797   	fcall	_TXS
              120A  118A         
  3006  058C  2D8D               	goto	l3884
  3007                           	line	285
  3008                           	
  3009  058D                     l846:	
  3010                           	line	287
  3011                           	
  3012  058D                     l3884:	
  3013                           ;servertest.c: 285: }
  3014                           ;servertest.c: 287: if(RD3==0)
  3015  058D  1283               	bcf	status, 5	;RP0=0, select bank0
  3016  058E  1303               	bcf	status, 6	;RP1=0, select bank0
  3017  058F  1988               	btfsc	(67/8),(67)&7
  3018  0590  2D92               	goto	u4451
  3019  0591  2D93               	goto	u4450
  3020  0592                     u4451:
  3021  0592  2DA4               	goto	l3890
  3022  0593                     u4450:
  3023  0593  2D95               	goto	l851
  3024                           	line	289
  3025                           	
  3026  0594                     l3886:	
  3027                           ;servertest.c: 288: {
  3028                           ;servertest.c: 289: while(RD3==0);
  3029  0594  2D95               	goto	l851
  3030                           	
  3031  0595                     l852:	
  3032                           	
  3033  0595                     l851:	
  3034  0595  1D88               	btfss	(67/8),(67)&7
  3035  0596  2D98               	goto	u4461
  3036  0597  2D99               	goto	u4460
  3037  0598                     u4461:
  3038  0598  2D95               	goto	l851
  3039  0599                     u4460:
  3040  0599  2D9A               	goto	l3888
  3041                           	
  3042  059A                     l853:	
  3043                           	line	290
  3044                           	
  3045  059A                     l3888:	
  3046                           ;servertest.c: 290: TXS("$10313");
  3047  059A  3013               	movlw	low(STR_32|8000h)
  3048  059B  00E2               	movwf	(?_TXS)
  3049  059C  3087               	movlw	high(STR_32|8000h)
  3050  059D  00E3               	movwf	((?_TXS))+1
  3051  059E  120A  118A  2797   	fcall	_TXS
              120A  118A         
  3052  05A3  2DA4               	goto	l3890
  3053                           	line	292
  3054                           	
  3055  05A4                     l850:	
  3056                           	line	293
  3057                           	
  3058  05A4                     l3890:	
  3059                           ;servertest.c: 292: }
  3060                           ;servertest.c: 293: lcdcmd(0x80);
  3061  05A4  3080               	movlw	low(080h)
  3062  05A5  1283               	bcf	status, 5	;RP0=0, select bank0
  3063  05A6  1303               	bcf	status, 6	;RP1=0, select bank0
  3064  05A7  00E2               	movwf	(?_lcdcmd)
  3065  05A8  3000               	movlw	high(080h)
  3066  05A9  00E3               	movwf	((?_lcdcmd))+1
  3067  05AA  120A  158A  27B8   	fcall	_lcdcmd
              120A  118A         
  3068                           	line	294
  3069                           	
  3070  05AF                     l3892:	
  3071                           ;servertest.c: 294: delay(10);
  3072  05AF  300A               	movlw	low(0Ah)
  3073  05B0  1283               	bcf	status, 5	;RP0=0, select bank0
  3074  05B1  1303               	bcf	status, 6	;RP1=0, select bank0
  3075  05B2  00DC               	movwf	(?_delay)
  3076  05B3  3000               	movlw	high(0Ah)
  3077  05B4  00DD               	movwf	((?_delay))+1
  3078  05B5  120A  158A  27CC   	fcall	_delay
              120A  118A         
  3079                           	line	295
  3080                           ;servertest.c: 295: display("  request send   ");
  3081  05BA  3000               	movlw	low(STR_33|8000h)
  3082  05BB  1283               	bcf	status, 5	;RP0=0, select bank0
  3083  05BC  1303               	bcf	status, 6	;RP1=0, select bank0
  3084  05BD  00E4               	movwf	(?_display)
  3085  05BE  3086               	movlw	high(STR_33|8000h)
  3086  05BF  00E5               	movwf	((?_display))+1
  3087  05C0  120A  118A  275A   	fcall	_display
              120A  118A         
  3088                           	line	296
  3089                           	
  3090  05C5                     l3894:	
  3091                           ;servertest.c: 296: lcdcmd(0xc0);
  3092  05C5  30C0               	movlw	low(0C0h)
  3093  05C6  1283               	bcf	status, 5	;RP0=0, select bank0
  3094  05C7  1303               	bcf	status, 6	;RP1=0, select bank0
  3095  05C8  00E2               	movwf	(?_lcdcmd)
  3096  05C9  3000               	movlw	high(0C0h)
  3097  05CA  00E3               	movwf	((?_lcdcmd))+1
  3098  05CB  120A  158A  27B8   	fcall	_lcdcmd
              120A  118A         
  3099                           	line	297
  3100                           	
  3101  05D0                     l3896:	
  3102                           ;servertest.c: 297: delay(10);
  3103  05D0  300A               	movlw	low(0Ah)
  3104  05D1  1283               	bcf	status, 5	;RP0=0, select bank0
  3105  05D2  1303               	bcf	status, 6	;RP1=0, select bank0
  3106  05D3  00DC               	movwf	(?_delay)
  3107  05D4  3000               	movlw	high(0Ah)
  3108  05D5  00DD               	movwf	((?_delay))+1
  3109  05D6  120A  158A  27CC   	fcall	_delay
              120A  118A         
  3110                           	line	298
  3111                           ;servertest.c: 298: display(" *** waiting ***");
  3112  05DB  3079               	movlw	low(STR_34|8000h)
  3113  05DC  1283               	bcf	status, 5	;RP0=0, select bank0
  3114  05DD  1303               	bcf	status, 6	;RP1=0, select bank0
  3115  05DE  00E4               	movwf	(?_display)
  3116  05DF  3086               	movlw	high(STR_34|8000h)
  3117  05E0  00E5               	movwf	((?_display))+1
  3118  05E1  120A  118A  275A   	fcall	_display
              120A  118A         
  3119  05E6  290C               	goto	l3664
  3120                           	line	301
  3121                           	
  3122  05E7                     l829:	
  3123  05E7  290C               	goto	l3664
  3124                           	line	303
  3125                           	
  3126  05E8                     l854:	
  3127                           	line	55
  3128  05E8  290C               	goto	l3664
  3129                           	
  3130  05E9                     l855:	
  3131                           	line	307
  3132                           	
  3133  05E9                     l856:	
  3134                           	global	start
  3135  05E9  120A  118A  2812   	ljmp	start
  3136                           	opt stack 0
  3137                           GLOBAL	__end_of_main
  3138  05EC                     	__end_of_main:
  3139 ;; =============== function _main ends ============
  3140                           
  3141                           	signat	_main,88
  3142                           	global	_display
  3143                           psect	text373,local,class=CODE,delta=2
  3144                           global __ptext373
  3145  075A                     __ptext373:
  3146                           
  3147 ;; *************** function _display *****************
  3148 ;; Defined at:
  3149 ;;		line 416 in file "F:\pic projects\BUSSERVER\servertest.c"
  3150 ;; Parameters:    Size  Location     Type
  3151 ;;  p               2    8[BANK0 ] PTR unsigned char 
  3152 ;;		 -> STR_34(17), STR_33(18), STR_28(17), STR_27(17), 
  3153 ;;		 -> STR_26(17), STR_21(17), STR_20(17), STR_19(17), 
  3154 ;;		 -> STR_14(17), STR_13(17), STR_12(17), STR_7(17), 
  3155 ;;		 -> STR_6(18), STR_5(17), STR_4(17), STR_3(16), 
  3156 ;;		 -> STR_2(17), STR_1(16), 
  3157 ;; Auto vars:     Size  Location     Type
  3158 ;;		None
  3159 ;; Return value:  Size  Location     Type
  3160 ;;		None               void
  3161 ;; Registers used:
  3162 ;;		wreg, fsr0l, fsr0h, status,2, status,0, btemp+1, pclath, cstack
  3163 ;; Tracked objects:
  3164 ;;		On entry : 0/0
  3165 ;;		On exit  : 0/0
  3166 ;;		Unchanged: 0/0
  3167 ;; Data sizes:     COMMON   BANK0   BANK1   BANK3   BANK2
  3168 ;;      Params:         0       2       0       0       0
  3169 ;;      Locals:         0       0       0       0       0
  3170 ;;      Temps:          0       2       0       0       0
  3171 ;;      Totals:         0       4       0       0       0
  3172 ;;Total ram usage:        4 bytes
  3173 ;; Hardware stack levels used:    1
  3174 ;; Hardware stack levels required when called:    3
  3175 ;; This function calls:
  3176 ;;		_lcddata
  3177 ;;		_delay
  3178 ;; This function is called by:
  3179 ;;		_main
  3180 ;; This function uses a non-reentrant model
  3181 ;;
  3182                           psect	text373
  3183                           	file	"F:\pic projects\BUSSERVER\servertest.c"
  3184                           	line	416
  3185                           	global	__size_of_display
  3186  003D                     	__size_of_display	equ	__end_of_display-_display
  3187                           	
  3188  075A                     _display:	
  3189                           	opt	stack 4
  3190                           ; Regs used in _display: [wreg-fsr0h+status,2+status,0+btemp+1+pclath+cstack]
  3191                           	line	417
  3192                           	
  3193  075A                     l3604:	
  3194                           ;servertest.c: 417: while (*p)
  3195  075A  2F85               	goto	l3612
  3196                           	
  3197  075B                     l897:	
  3198                           	line	419
  3199                           	
  3200  075B                     l3606:	
  3201                           ;servertest.c: 418: {
  3202                           ;servertest.c: 419: lcddata(*p);
  3203  075B  1283               	bcf	status, 5	;RP0=0, select bank0
  3204  075C  1303               	bcf	status, 6	;RP1=0, select bank0
  3205  075D  0865               	movf	(display@p+1),w
  3206  075E  00FF               	movwf	btemp+1
  3207  075F  0864               	movf	(display@p),w
  3208  0760  0084               	movwf	fsr0
  3209  0761  120A  158A  2000   	fcall	stringtab
              120A  118A         
  3210  0766  00E6               	movwf	(??_display+0)+0
  3211  0767  01E7               	clrf	(??_display+0)+0+1
  3212  0768  0866               	movf	0+(??_display+0)+0,w
  3213  0769  00E2               	movwf	(?_lcddata)
  3214  076A  0867               	movf	1+(??_display+0)+0,w
  3215  076B  00E3               	movwf	(?_lcddata+1)
  3216  076C  120A  118A  25EC   	fcall	_lcddata
              120A  118A         
  3217                           	line	420
  3218                           	
  3219  0771                     l3608:	
  3220                           ;servertest.c: 420: delay(1);
  3221  0771  3001               	movlw	low(01h)
  3222  0772  1283               	bcf	status, 5	;RP0=0, select bank0
  3223  0773  1303               	bcf	status, 6	;RP1=0, select bank0
  3224  0774  00DC               	movwf	(?_delay)
  3225  0775  3000               	movlw	high(01h)
  3226  0776  00DD               	movwf	((?_delay))+1
  3227  0777  120A  158A  27CC   	fcall	_delay
              120A  118A         
  3228                           	line	421
  3229                           	
  3230  077C                     l3610:	
  3231                           ;servertest.c: 421: p++;
  3232  077C  3001               	movlw	low(01h)
  3233  077D  1283               	bcf	status, 5	;RP0=0, select bank0
  3234  077E  1303               	bcf	status, 6	;RP1=0, select bank0
  3235  077F  07E4               	addwf	(display@p),f
  3236  0780  1803               	skipnc
  3237  0781  0AE5               	incf	(display@p+1),f
  3238  0782  3000               	movlw	high(01h)
  3239  0783  07E5               	addwf	(display@p+1),f
  3240  0784  2F85               	goto	l3612
  3241                           	line	422
  3242                           	
  3243  0785                     l896:	
  3244                           	line	417
  3245                           	
  3246  0785                     l3612:	
  3247  0785  1283               	bcf	status, 5	;RP0=0, select bank0
  3248  0786  1303               	bcf	status, 6	;RP1=0, select bank0
  3249  0787  0865               	movf	(display@p+1),w
  3250  0788  00FF               	movwf	btemp+1
  3251  0789  0864               	movf	(display@p),w
  3252  078A  0084               	movwf	fsr0
  3253  078B  120A  158A  2000   	fcall	stringtab
              120A  118A         
  3254  0790  3800               	iorlw	0
  3255  0791  1D03               	skipz
  3256  0792  2F94               	goto	u3791
  3257  0793  2F95               	goto	u3790
  3258  0794                     u3791:
  3259  0794  2F5B               	goto	l3606
  3260  0795                     u3790:
  3261  0795  2F96               	goto	l899
  3262                           	
  3263  0796                     l898:	
  3264                           	line	424
  3265                           ;servertest.c: 422: }
  3266                           ;servertest.c: 423: return;
  3267                           	
  3268  0796                     l899:	
  3269  0796  0008               	return
  3270                           	opt stack 0
  3271                           GLOBAL	__end_of_display
  3272  0797                     	__end_of_display:
  3273 ;; =============== function _display ends ============
  3274                           
  3275                           	signat	_display,4216
  3276                           	global	_TXS
  3277                           psect	text374,local,class=CODE,delta=2
  3278                           global __ptext374
  3279  0797                     __ptext374:
  3280                           
  3281 ;; *************** function _TXS *****************
  3282 ;; Defined at:
  3283 ;;		line 321 in file "F:\pic projects\BUSSERVER\servertest.c"
  3284 ;; Parameters:    Size  Location     Type
  3285 ;;  s               2    6[BANK0 ] PTR unsigned char 
  3286 ;;		 -> STR_32(7), STR_31(7), STR_30(7), STR_29(7), 
  3287 ;;		 -> STR_25(7), STR_24(7), STR_23(7), STR_22(7), 
  3288 ;;		 -> STR_18(7), STR_17(7), STR_16(7), STR_15(7), 
  3289 ;;		 -> STR_11(7), STR_10(7), STR_9(7), STR_8(7), 
  3290 ;; Auto vars:     Size  Location     Type
  3291 ;;		None
  3292 ;; Return value:  Size  Location     Type
  3293 ;;		None               void
  3294 ;; Registers used:
  3295 ;;		wreg, fsr0l, fsr0h, status,2, status,0, btemp+1, pclath, cstack
  3296 ;; Tracked objects:
  3297 ;;		On entry : 0/0
  3298 ;;		On exit  : 0/0
  3299 ;;		Unchanged: 0/0
  3300 ;; Data sizes:     COMMON   BANK0   BANK1   BANK3   BANK2
  3301 ;;      Params:         0       2       0       0       0
  3302 ;;      Locals:         0       0       0       0       0
  3303 ;;      Temps:          0       0       0       0       0
  3304 ;;      Totals:         0       2       0       0       0
  3305 ;;Total ram usage:        2 bytes
  3306 ;; Hardware stack levels used:    1
  3307 ;; Hardware stack levels required when called:    2
  3308 ;; This function calls:
  3309 ;;		_TX
  3310 ;;		_delay
  3311 ;; This function is called by:
  3312 ;;		_main
  3313 ;; This function uses a non-reentrant model
  3314 ;;
  3315                           psect	text374
  3316                           	file	"F:\pic projects\BUSSERVER\servertest.c"
  3317                           	line	321
  3318                           	global	__size_of_TXS
  3319  0037                     	__size_of_TXS	equ	__end_of_TXS-_TXS
  3320                           	
  3321  0797                     _TXS:	
  3322                           	opt	stack 5
  3323                           ; Regs used in _TXS: [wreg-fsr0h+status,2+status,0+btemp+1+pclath+cstack]
  3324                           	line	322
  3325                           	
  3326  0797                     l3594:	
  3327                           ;servertest.c: 322: while (*s)
  3328  0797  2FBC               	goto	l3602
  3329                           	
  3330  0798                     l866:	
  3331                           	line	324
  3332                           	
  3333  0798                     l3596:	
  3334                           ;servertest.c: 323: {
  3335                           ;servertest.c: 324: TX(*s);
  3336  0798  1283               	bcf	status, 5	;RP0=0, select bank0
  3337  0799  1303               	bcf	status, 6	;RP1=0, select bank0
  3338  079A  0863               	movf	(TXS@s+1),w
  3339  079B  00FF               	movwf	btemp+1
  3340  079C  0862               	movf	(TXS@s),w
  3341  079D  0084               	movwf	fsr0
  3342  079E  120A  158A  2000   	fcall	stringtab
              120A  118A         
  3343  07A3  120A  118A  27F1   	fcall	_TX
              120A  118A         
  3344                           	line	325
  3345                           	
  3346  07A8                     l3598:	
  3347                           ;servertest.c: 325: delay(1);
  3348  07A8  3001               	movlw	low(01h)
  3349  07A9  1283               	bcf	status, 5	;RP0=0, select bank0
  3350  07AA  1303               	bcf	status, 6	;RP1=0, select bank0
  3351  07AB  00DC               	movwf	(?_delay)
  3352  07AC  3000               	movlw	high(01h)
  3353  07AD  00DD               	movwf	((?_delay))+1
  3354  07AE  120A  158A  27CC   	fcall	_delay
              120A  118A         
  3355                           	line	326
  3356                           	
  3357  07B3                     l3600:	
  3358                           ;servertest.c: 326: s++;
  3359  07B3  3001               	movlw	low(01h)
  3360  07B4  1283               	bcf	status, 5	;RP0=0, select bank0
  3361  07B5  1303               	bcf	status, 6	;RP1=0, select bank0
  3362  07B6  07E2               	addwf	(TXS@s),f
  3363  07B7  1803               	skipnc
  3364  07B8  0AE3               	incf	(TXS@s+1),f
  3365  07B9  3000               	movlw	high(01h)
  3366  07BA  07E3               	addwf	(TXS@s+1),f
  3367  07BB  2FBC               	goto	l3602
  3368                           	line	327
  3369                           	
  3370  07BC                     l865:	
  3371                           	line	322
  3372                           	
  3373  07BC                     l3602:	
  3374  07BC  1283               	bcf	status, 5	;RP0=0, select bank0
  3375  07BD  1303               	bcf	status, 6	;RP1=0, select bank0
  3376  07BE  0863               	movf	(TXS@s+1),w
  3377  07BF  00FF               	movwf	btemp+1
  3378  07C0  0862               	movf	(TXS@s),w
  3379  07C1  0084               	movwf	fsr0
  3380  07C2  120A  158A  2000   	fcall	stringtab
              120A  118A         
  3381  07C7  3800               	iorlw	0
  3382  07C8  1D03               	skipz
  3383  07C9  2FCB               	goto	u3781
  3384  07CA  2FCC               	goto	u3780
  3385  07CB                     u3781:
  3386  07CB  2F98               	goto	l3596
  3387  07CC                     u3780:
  3388  07CC  2FCD               	goto	l868
  3389                           	
  3390  07CD                     l867:	
  3391                           	line	329
  3392                           ;servertest.c: 327: }
  3393                           ;servertest.c: 328: return;
  3394                           	
  3395  07CD                     l868:	
  3396  07CD  0008               	return
  3397                           	opt stack 0
  3398                           GLOBAL	__end_of_TXS
  3399  07CE                     	__end_of_TXS:
  3400 ;; =============== function _TXS ends ============
  3401                           
  3402                           	signat	_TXS,4216
  3403                           	global	_lcddata
  3404                           psect	text375,local,class=CODE,delta=2
  3405                           global __ptext375
  3406  05EC                     __ptext375:
  3407                           
  3408 ;; *************** function _lcddata *****************
  3409 ;; Defined at:
  3410 ;;		line 404 in file "F:\pic projects\BUSSERVER\servertest.c"
  3411 ;; Parameters:    Size  Location     Type
  3412 ;;  value           2    6[BANK0 ] unsigned int 
  3413 ;; Auto vars:     Size  Location     Type
  3414 ;;		None
  3415 ;; Return value:  Size  Location     Type
  3416 ;;		None               void
  3417 ;; Registers used:
  3418 ;;		wreg, status,2, status,0, pclath, cstack
  3419 ;; Tracked objects:
  3420 ;;		On entry : 0/0
  3421 ;;		On exit  : 0/0
  3422 ;;		Unchanged: 0/0
  3423 ;; Data sizes:     COMMON   BANK0   BANK1   BANK3   BANK2
  3424 ;;      Params:         0       2       0       0       0
  3425 ;;      Locals:         0       0       0       0       0
  3426 ;;      Temps:          0       0       0       0       0
  3427 ;;      Totals:         0       2       0       0       0
  3428 ;;Total ram usage:        2 bytes
  3429 ;; Hardware stack levels used:    1
  3430 ;; Hardware stack levels required when called:    2
  3431 ;; This function calls:
  3432 ;;		_delay
  3433 ;; This function is called by:
  3434 ;;		_main
  3435 ;;		_display
  3436 ;; This function uses a non-reentrant model
  3437 ;;
  3438                           psect	text375
  3439                           	file	"F:\pic projects\BUSSERVER\servertest.c"
  3440                           	line	404
  3441                           	global	__size_of_lcddata
  3442  0014                     	__size_of_lcddata	equ	__end_of_lcddata-_lcddata
  3443                           	
  3444  05EC                     _lcddata:	
  3445                           	opt	stack 5
  3446                           ; Regs used in _lcddata: [wreg+status,2+status,0+pclath+cstack]
  3447                           	line	405
  3448                           	
  3449  05EC                     l3582:	
  3450                           ;servertest.c: 405: PORTB=value;
  3451  05EC  1283               	bcf	status, 5	;RP0=0, select bank0
  3452  05ED  1303               	bcf	status, 6	;RP1=0, select bank0
  3453  05EE  0862               	movf	(lcddata@value),w
  3454  05EF  0086               	movwf	(6)	;volatile
  3455                           	line	406
  3456                           	
  3457  05F0                     l3584:	
  3458                           ;servertest.c: 406: RD6=1;
  3459  05F0  1708               	bsf	(70/8),(70)&7
  3460                           	line	408
  3461                           	
  3462  05F1                     l3586:	
  3463                           ;servertest.c: 408: RD7=1;
  3464  05F1  1788               	bsf	(71/8),(71)&7
  3465                           	line	409
  3466                           	
  3467  05F2                     l3588:	
  3468                           ;servertest.c: 409: delay(1);
  3469  05F2  3001               	movlw	low(01h)
  3470  05F3  00DC               	movwf	(?_delay)
  3471  05F4  3000               	movlw	high(01h)
  3472  05F5  00DD               	movwf	((?_delay))+1
  3473  05F6  120A  158A  27CC   	fcall	_delay
              120A  118A         
  3474                           	line	410
  3475                           	
  3476  05FB                     l3590:	
  3477                           ;servertest.c: 410: RD7=0;
  3478  05FB  1283               	bcf	status, 5	;RP0=0, select bank0
  3479  05FC  1303               	bcf	status, 6	;RP1=0, select bank0
  3480  05FD  1388               	bcf	(71/8),(71)&7
  3481  05FE  2DFF               	goto	l893
  3482                           	line	411
  3483                           	
  3484  05FF                     l3592:	
  3485                           	line	412
  3486                           ;servertest.c: 411: return;
  3487                           	
  3488  05FF                     l893:	
  3489  05FF  0008               	return
  3490                           	opt stack 0
  3491                           GLOBAL	__end_of_lcddata
  3492  0600                     	__end_of_lcddata:
  3493 ;; =============== function _lcddata ends ============
  3494                           
  3495                           	signat	_lcddata,4216
  3496                           	global	_lcdcmd
  3497                           psect	text376,local,class=CODE,delta=2
  3498                           global __ptext376
  3499  0FB8                     __ptext376:
  3500                           
  3501 ;; *************** function _lcdcmd *****************
  3502 ;; Defined at:
  3503 ;;		line 393 in file "F:\pic projects\BUSSERVER\servertest.c"
  3504 ;; Parameters:    Size  Location     Type
  3505 ;;  value           2    6[BANK0 ] unsigned int 
  3506 ;; Auto vars:     Size  Location     Type
  3507 ;;		None
  3508 ;; Return value:  Size  Location     Type
  3509 ;;		None               void
  3510 ;; Registers used:
  3511 ;;		wreg, status,2, status,0, pclath, cstack
  3512 ;; Tracked objects:
  3513 ;;		On entry : 0/0
  3514 ;;		On exit  : 0/0
  3515 ;;		Unchanged: 0/0
  3516 ;; Data sizes:     COMMON   BANK0   BANK1   BANK3   BANK2
  3517 ;;      Params:         0       2       0       0       0
  3518 ;;      Locals:         0       0       0       0       0
  3519 ;;      Temps:          0       0       0       0       0
  3520 ;;      Totals:         0       2       0       0       0
  3521 ;;Total ram usage:        2 bytes
  3522 ;; Hardware stack levels used:    1
  3523 ;; Hardware stack levels required when called:    2
  3524 ;; This function calls:
  3525 ;;		_delay
  3526 ;; This function is called by:
  3527 ;;		_main
  3528 ;; This function uses a non-reentrant model
  3529 ;;
  3530                           psect	text376
  3531                           	file	"F:\pic projects\BUSSERVER\servertest.c"
  3532                           	line	393
  3533                           	global	__size_of_lcdcmd
  3534  0014                     	__size_of_lcdcmd	equ	__end_of_lcdcmd-_lcdcmd
  3535                           	
  3536  0FB8                     _lcdcmd:	
  3537                           	opt	stack 5
  3538                           ; Regs used in _lcdcmd: [wreg+status,2+status,0+pclath+cstack]
  3539                           	line	394
  3540                           	
  3541  0FB8                     l3570:	
  3542                           ;servertest.c: 394: PORTB=value;
  3543  0FB8  1283               	bcf	status, 5	;RP0=0, select bank0
  3544  0FB9  1303               	bcf	status, 6	;RP1=0, select bank0
  3545  0FBA  0862               	movf	(lcdcmd@value),w
  3546  0FBB  0086               	movwf	(6)	;volatile
  3547                           	line	395
  3548                           	
  3549  0FBC                     l3572:	
  3550                           ;servertest.c: 395: RD6=0;
  3551  0FBC  1308               	bcf	(70/8),(70)&7
  3552                           	line	396
  3553                           	
  3554  0FBD                     l3574:	
  3555                           ;servertest.c: 396: RD7=1;
  3556  0FBD  1788               	bsf	(71/8),(71)&7
  3557                           	line	397
  3558                           	
  3559  0FBE                     l3576:	
  3560                           ;servertest.c: 397: delay(1);
  3561  0FBE  3001               	movlw	low(01h)
  3562  0FBF  00DC               	movwf	(?_delay)
  3563  0FC0  3000               	movlw	high(01h)
  3564  0FC1  00DD               	movwf	((?_delay))+1
  3565  0FC2  120A  158A  27CC   	fcall	_delay
              120A  158A         
  3566                           	line	398
  3567                           	
  3568  0FC7                     l3578:	
  3569                           ;servertest.c: 398: RD7=0;
  3570  0FC7  1283               	bcf	status, 5	;RP0=0, select bank0
  3571  0FC8  1303               	bcf	status, 6	;RP1=0, select bank0
  3572  0FC9  1388               	bcf	(71/8),(71)&7
  3573  0FCA  2FCB               	goto	l890
  3574                           	line	399
  3575                           	
  3576  0FCB                     l3580:	
  3577                           	line	400
  3578                           ;servertest.c: 399: return;
  3579                           	
  3580  0FCB                     l890:	
  3581  0FCB  0008               	return
  3582                           	opt stack 0
  3583                           GLOBAL	__end_of_lcdcmd
  3584  0FCC                     	__end_of_lcdcmd:
  3585 ;; =============== function _lcdcmd ends ============
  3586                           
  3587                           	signat	_lcdcmd,4216
  3588                           	global	_TX
  3589                           psect	text377,local,class=CODE,delta=2
  3590                           global __ptext377
  3591  07F1                     __ptext377:
  3592                           
  3593 ;; *************** function _TX *****************
  3594 ;; Defined at:
  3595 ;;		line 312 in file "F:\pic projects\BUSSERVER\servertest.c"
  3596 ;; Parameters:    Size  Location     Type
  3597 ;;  TX_BYTE         1    wreg     unsigned char 
  3598 ;; Auto vars:     Size  Location     Type
  3599 ;;  TX_BYTE         1    0[BANK0 ] unsigned char 
  3600 ;; Return value:  Size  Location     Type
  3601 ;;		None               void
  3602 ;; Registers used:
  3603 ;;		wreg
  3604 ;; Tracked objects:
  3605 ;;		On entry : 0/0
  3606 ;;		On exit  : 0/0
  3607 ;;		Unchanged: 0/0
  3608 ;; Data sizes:     COMMON   BANK0   BANK1   BANK3   BANK2
  3609 ;;      Params:         0       0       0       0       0
  3610 ;;      Locals:         0       1       0       0       0
  3611 ;;      Temps:          0       0       0       0       0
  3612 ;;      Totals:         0       1       0       0       0
  3613 ;;Total ram usage:        1 bytes
  3614 ;; Hardware stack levels used:    1
  3615 ;; Hardware stack levels required when called:    1
  3616 ;; This function calls:
  3617 ;;		Nothing
  3618 ;; This function is called by:
  3619 ;;		_main
  3620 ;;		_TXS
  3621 ;; This function uses a non-reentrant model
  3622 ;;
  3623                           psect	text377
  3624                           	file	"F:\pic projects\BUSSERVER\servertest.c"
  3625                           	line	312
  3626                           	global	__size_of_TX
  3627  000E                     	__size_of_TX	equ	__end_of_TX-_TX
  3628                           	
  3629  07F1                     _TX:	
  3630                           	opt	stack 6
  3631                           ; Regs used in _TX: [wreg]
  3632                           ;TX@TX_BYTE stored from wreg
  3633  07F1  1283               	bcf	status, 5	;RP0=0, select bank0
  3634  07F2  1303               	bcf	status, 6	;RP1=0, select bank0
  3635  07F3  00DC               	movwf	(TX@TX_BYTE)
  3636                           	line	313
  3637                           	
  3638  07F4                     l3568:	
  3639                           ;servertest.c: 313: TXREG = TX_BYTE;
  3640  07F4  085C               	movf	(TX@TX_BYTE),w
  3641  07F5  0099               	movwf	(25)	;volatile
  3642                           	line	314
  3643                           ;servertest.c: 314: while(!TRMT);
  3644  07F6  2FF7               	goto	l859
  3645                           	
  3646  07F7                     l860:	
  3647                           	
  3648  07F7                     l859:	
  3649  07F7  1683               	bsf	status, 5	;RP0=1, select bank1
  3650  07F8  1303               	bcf	status, 6	;RP1=0, select bank1
  3651  07F9  1C98               	btfss	(1217/8)^080h,(1217)&7
  3652  07FA  2FFC               	goto	u3771
  3653  07FB  2FFD               	goto	u3770
  3654  07FC                     u3771:
  3655  07FC  2FF7               	goto	l859
  3656  07FD                     u3770:
  3657                           	
  3658  07FD                     l861:	
  3659                           	line	315
  3660                           ;servertest.c: 315: TRMT=0;
  3661  07FD  1098               	bcf	(1217/8)^080h,(1217)&7
  3662                           	line	317
  3663                           ;servertest.c: 316: return;
  3664                           	
  3665  07FE                     l862:	
  3666  07FE  0008               	return
  3667                           	opt stack 0
  3668                           GLOBAL	__end_of_TX
  3669  07FF                     	__end_of_TX:
  3670 ;; =============== function _TX ends ============
  3671                           
  3672                           	signat	_TX,4216
  3673                           	global	_delay
  3674                           psect	text378,local,class=CODE,delta=2
  3675                           global __ptext378
  3676  0FCC                     __ptext378:
  3677                           
  3678 ;; *************** function _delay *****************
  3679 ;; Defined at:
  3680 ;;		line 377 in file "F:\pic projects\BUSSERVER\servertest.c"
  3681 ;; Parameters:    Size  Location     Type
  3682 ;;  d               2    0[BANK0 ] unsigned int 
  3683 ;; Auto vars:     Size  Location     Type
  3684 ;;  k               2    4[BANK0 ] unsigned int 
  3685 ;;  h               2    2[BANK0 ] unsigned int 
  3686 ;; Return value:  Size  Location     Type
  3687 ;;		None               void
  3688 ;; Registers used:
  3689 ;;		wreg, status,2
  3690 ;; Tracked objects:
  3691 ;;		On entry : 0/0
  3692 ;;		On exit  : 0/0
  3693 ;;		Unchanged: 0/0
  3694 ;; Data sizes:     COMMON   BANK0   BANK1   BANK3   BANK2
  3695 ;;      Params:         0       2       0       0       0
  3696 ;;      Locals:         0       4       0       0       0
  3697 ;;      Temps:          0       0       0       0       0
  3698 ;;      Totals:         0       6       0       0       0
  3699 ;;Total ram usage:        6 bytes
  3700 ;; Hardware stack levels used:    1
  3701 ;; Hardware stack levels required when called:    1
  3702 ;; This function calls:
  3703 ;;		Nothing
  3704 ;; This function is called by:
  3705 ;;		_main
  3706 ;;		_TXS
  3707 ;;		_lcdcmd
  3708 ;;		_lcddata
  3709 ;;		_display
  3710 ;; This function uses a non-reentrant model
  3711 ;;
  3712                           psect	text378
  3713                           	file	"F:\pic projects\BUSSERVER\servertest.c"
  3714                           	line	377
  3715                           	global	__size_of_delay
  3716  0034                     	__size_of_delay	equ	__end_of_delay-_delay
  3717                           	
  3718  0FCC                     _delay:	
  3719                           	opt	stack 5
  3720                           ; Regs used in _delay: [wreg+status,2]
  3721                           	line	379
  3722                           	
  3723  0FCC                     l3556:	
  3724                           ;servertest.c: 378: unsigned int k,h;
  3725                           ;servertest.c: 379: for(h=0;h<d;h++)
  3726  0FCC  1283               	bcf	status, 5	;RP0=0, select bank0
  3727  0FCD  1303               	bcf	status, 6	;RP1=0, select bank0
  3728  0FCE  01DE               	clrf	(delay@h)
  3729  0FCF  01DF               	clrf	(delay@h+1)
  3730  0FD0  2FF4               	goto	l882
  3731                           	line	381
  3732                           	
  3733  0FD1                     l883:	
  3734                           	line	382
  3735                           	
  3736  0FD1                     l3558:	
  3737                           ;servertest.c: 381: {
  3738                           ;servertest.c: 382: for(k=0;k<=250;k++)
  3739  0FD1  01E0               	clrf	(delay@k)
  3740  0FD2  01E1               	clrf	(delay@k+1)
  3741                           	
  3742  0FD3                     l3560:	
  3743  0FD3  3000               	movlw	high(0FBh)
  3744  0FD4  0261               	subwf	(delay@k+1),w
  3745  0FD5  30FB               	movlw	low(0FBh)
  3746  0FD6  1903               	skipnz
  3747  0FD7  0260               	subwf	(delay@k),w
  3748  0FD8  1C03               	skipc
  3749  0FD9  2FDB               	goto	u3741
  3750  0FDA  2FDC               	goto	u3740
  3751  0FDB                     u3741:
  3752  0FDB  2FDE               	goto	l3564
  3753  0FDC                     u3740:
  3754  0FDC  2FEE               	goto	l3566
  3755                           	
  3756  0FDD                     l3562:	
  3757  0FDD  2FEE               	goto	l3566
  3758                           	line	383
  3759                           	
  3760  0FDE                     l884:	
  3761                           	line	382
  3762                           	
  3763  0FDE                     l3564:	
  3764                           ;servertest.c: 383: {
  3765  0FDE  3001               	movlw	low(01h)
  3766  0FDF  07E0               	addwf	(delay@k),f
  3767  0FE0  1803               	skipnc
  3768  0FE1  0AE1               	incf	(delay@k+1),f
  3769  0FE2  3000               	movlw	high(01h)
  3770  0FE3  07E1               	addwf	(delay@k+1),f
  3771  0FE4  3000               	movlw	high(0FBh)
  3772  0FE5  0261               	subwf	(delay@k+1),w
  3773  0FE6  30FB               	movlw	low(0FBh)
  3774  0FE7  1903               	skipnz
  3775  0FE8  0260               	subwf	(delay@k),w
  3776  0FE9  1C03               	skipc
  3777  0FEA  2FEC               	goto	u3751
  3778  0FEB  2FED               	goto	u3750
  3779  0FEC                     u3751:
  3780  0FEC  2FDE               	goto	l3564
  3781  0FED                     u3750:
  3782  0FED  2FEE               	goto	l3566
  3783                           	
  3784  0FEE                     l885:	
  3785                           	line	379
  3786                           	
  3787  0FEE                     l3566:	
  3788  0FEE  3001               	movlw	low(01h)
  3789  0FEF  07DE               	addwf	(delay@h),f
  3790  0FF0  1803               	skipnc
  3791  0FF1  0ADF               	incf	(delay@h+1),f
  3792  0FF2  3000               	movlw	high(01h)
  3793  0FF3  07DF               	addwf	(delay@h+1),f
  3794                           	
  3795  0FF4                     l882:	
  3796  0FF4  085D               	movf	(delay@d+1),w
  3797  0FF5  025F               	subwf	(delay@h+1),w
  3798  0FF6  1D03               	skipz
  3799  0FF7  2FFA               	goto	u3765
  3800  0FF8  085C               	movf	(delay@d),w
  3801  0FF9  025E               	subwf	(delay@h),w
  3802  0FFA                     u3765:
  3803  0FFA  1C03               	skipc
  3804  0FFB  2FFD               	goto	u3761
  3805  0FFC  2FFE               	goto	u3760
  3806  0FFD                     u3761:
  3807  0FFD  2FD1               	goto	l3558
  3808  0FFE                     u3760:
  3809  0FFE  2FFF               	goto	l887
  3810                           	
  3811  0FFF                     l886:	
  3812                           	line	387
  3813                           ;servertest.c: 384: }
  3814                           ;servertest.c: 385: }
  3815                           ;servertest.c: 386: return;
  3816                           	
  3817  0FFF                     l887:	
  3818  0FFF  0008               	return
  3819                           	opt stack 0
  3820                           GLOBAL	__end_of_delay
  3821  1000                     	__end_of_delay:
  3822 ;; =============== function _delay ends ============
  3823                           
  3824                           	signat	_delay,4216
  3825                           	global	_uart_init
  3826                           psect	text379,local,class=CODE,delta=2
  3827                           global __ptext379
  3828  0FA7                     __ptext379:
  3829                           
  3830 ;; *************** function _uart_init *****************
  3831 ;; Defined at:
  3832 ;;		line 354 in file "F:\pic projects\BUSSERVER\servertest.c"
  3833 ;; Parameters:    Size  Location     Type
  3834 ;;		None
  3835 ;; Auto vars:     Size  Location     Type
  3836 ;;		None
  3837 ;; Return value:  Size  Location     Type
  3838 ;;		None               void
  3839 ;; Registers used:
  3840 ;;		wreg
  3841 ;; Tracked objects:
  3842 ;;		On entry : 0/0
  3843 ;;		On exit  : 0/0
  3844 ;;		Unchanged: 0/0
  3845 ;; Data sizes:     COMMON   BANK0   BANK1   BANK3   BANK2
  3846 ;;      Params:         0       0       0       0       0
  3847 ;;      Locals:         0       0       0       0       0
  3848 ;;      Temps:          0       0       0       0       0
  3849 ;;      Totals:         0       0       0       0       0
  3850 ;;Total ram usage:        0 bytes
  3851 ;; Hardware stack levels used:    1
  3852 ;; Hardware stack levels required when called:    1
  3853 ;; This function calls:
  3854 ;;		Nothing
  3855 ;; This function is called by:
  3856 ;;		_main
  3857 ;; This function uses a non-reentrant model
  3858 ;;
  3859                           psect	text379
  3860                           	file	"F:\pic projects\BUSSERVER\servertest.c"
  3861                           	line	354
  3862                           	global	__size_of_uart_init
  3863  0011                     	__size_of_uart_init	equ	__end_of_uart_init-_uart_init
  3864                           	
  3865  0FA7                     _uart_init:	
  3866                           	opt	stack 6
  3867                           ; Regs used in _uart_init: [wreg]
  3868                           	line	355
  3869                           	
  3870  0FA7                     l3548:	
  3871                           ;servertest.c: 355: TRISC7 =1;
  3872  0FA7  1683               	bsf	status, 5	;RP0=1, select bank1
  3873  0FA8  1303               	bcf	status, 6	;RP1=0, select bank1
  3874  0FA9  1787               	bsf	(1087/8)^080h,(1087)&7
  3875                           	line	356
  3876                           ;servertest.c: 356: TRISC6 =0;
  3877  0FAA  1307               	bcf	(1086/8)^080h,(1086)&7
  3878                           	line	357
  3879                           	
  3880  0FAB                     l3550:	
  3881                           ;servertest.c: 357: SPBRG = 129;
  3882  0FAB  3081               	movlw	(081h)
  3883  0FAC  0099               	movwf	(153)^080h	;volatile
  3884                           	line	358
  3885                           ;servertest.c: 358: INTCON=0xc0;
  3886  0FAD  30C0               	movlw	(0C0h)
  3887  0FAE  008B               	movwf	(11)	;volatile
  3888                           	line	359
  3889                           	
  3890  0FAF                     l3552:	
  3891                           ;servertest.c: 359: RCIE =1;
  3892  0FAF  168C               	bsf	(1125/8)^080h,(1125)&7
  3893                           	line	360
  3894                           ;servertest.c: 360: TXSTA = 0x24;
  3895  0FB0  3024               	movlw	(024h)
  3896  0FB1  0098               	movwf	(152)^080h	;volatile
  3897                           	line	361
  3898                           ;servertest.c: 361: RCSTA = 0X90;
  3899  0FB2  3090               	movlw	(090h)
  3900  0FB3  1283               	bcf	status, 5	;RP0=0, select bank0
  3901  0FB4  1303               	bcf	status, 6	;RP1=0, select bank0
  3902  0FB5  0098               	movwf	(24)	;volatile
  3903  0FB6  2FB7               	goto	l876
  3904                           	line	362
  3905                           	
  3906  0FB7                     l3554:	
  3907                           	line	363
  3908                           ;servertest.c: 362: return;
  3909                           	
  3910  0FB7                     l876:	
  3911  0FB7  0008               	return
  3912                           	opt stack 0
  3913                           GLOBAL	__end_of_uart_init
  3914  0FB8                     	__end_of_uart_init:
  3915 ;; =============== function _uart_init ends ============
  3916                           
  3917                           	signat	_uart_init,88
  3918                           	global	_receive
  3919                           psect	text380,local,class=CODE,delta=2
  3920                           global __ptext380
  3921  071A                     __ptext380:
  3922                           
  3923 ;; *************** function _receive *****************
  3924 ;; Defined at:
  3925 ;;		line 333 in file "F:\pic projects\BUSSERVER\servertest.c"
  3926 ;; Parameters:    Size  Location     Type
  3927 ;;		None
  3928 ;; Auto vars:     Size  Location     Type
  3929 ;;  k               2    0        int 
  3930 ;; Return value:  Size  Location     Type
  3931 ;;		None               void
  3932 ;; Registers used:
  3933 ;;		wreg, fsr0l, fsr0h, status,2, status,0
  3934 ;; Tracked objects:
  3935 ;;		On entry : 0/0
  3936 ;;		On exit  : 0/0
  3937 ;;		Unchanged: 0/0
  3938 ;; Data sizes:     COMMON   BANK0   BANK1   BANK3   BANK2
  3939 ;;      Params:         0       0       0       0       0
  3940 ;;      Locals:         0       0       0       0       0
  3941 ;;      Temps:          5       0       0       0       0
  3942 ;;      Totals:         5       0       0       0       0
  3943 ;;Total ram usage:        5 bytes
  3944 ;; Hardware stack levels used:    1
  3945 ;; This function calls:
  3946 ;;		Nothing
  3947 ;; This function is called by:
  3948 ;;		Interrupt level 1
  3949 ;; This function uses a non-reentrant model
  3950 ;;
  3951                           psect	text380
  3952                           	file	"F:\pic projects\BUSSERVER\servertest.c"
  3953                           	line	333
  3954                           	global	__size_of_receive
  3955  0040                     	__size_of_receive	equ	__end_of_receive-_receive
  3956                           	
  3957  071A                     _receive:	
  3958                           	opt	stack 4
  3959                           ; Regs used in _receive: [wreg-fsr0h+status,2+status,0]
  3960                           psect	intentry,class=CODE,delta=2
  3961                           global __pintentry
  3962  0004                     __pintentry:
  3963                           global interrupt_function
  3964  0004                     interrupt_function:
  3965                           	global saved_w
  3966  007E                     	saved_w	set	btemp+0
  3967  0004  00FE               	movwf	saved_w
  3968  0005  0E03               	swapf	status,w
  3969  0006  00F6               	movwf	(??_receive+1)
  3970  0007  0804               	movf	fsr0,w
  3971  0008  00F7               	movwf	(??_receive+2)
  3972  0009  080A               	movf	pclath,w
  3973  000A  00F8               	movwf	(??_receive+3)
  3974  000B  1283               	bcf	status, 5	;RP0=0, select bank0
  3975  000C  1303               	bcf	status, 6	;RP1=0, select bank0
  3976  000D  087F               	movf	btemp+1,w
  3977  000E  00F9               	movwf	(??_receive+4)
  3978  000F  120A  118A  2F1A   	ljmp	_receive
  3979                           psect	text380
  3980                           	line	335
  3981                           	
  3982  071A                     i1l3198:	
  3983                           ;servertest.c: 335: if(RCIE && RCIF)
  3984  071A  1683               	bsf	status, 5	;RP0=1, select bank1
  3985  071B  1303               	bcf	status, 6	;RP1=0, select bank1
  3986  071C  1E8C               	btfss	(1125/8)^080h,(1125)&7
  3987  071D  2F1F               	goto	u302_21
  3988  071E  2F20               	goto	u302_20
  3989  071F                     u302_21:
  3990  071F  2F4E               	goto	i1l873
  3991  0720                     u302_20:
  3992                           	
  3993  0720                     i1l3200:	
  3994  0720  1283               	bcf	status, 5	;RP0=0, select bank0
  3995  0721  1303               	bcf	status, 6	;RP1=0, select bank0
  3996  0722  1E8C               	btfss	(101/8),(101)&7
  3997  0723  2F25               	goto	u303_21
  3998  0724  2F26               	goto	u303_20
  3999  0725                     u303_21:
  4000  0725  2F4E               	goto	i1l873
  4001  0726                     u303_20:
  4002                           	line	338
  4003                           	
  4004  0726                     i1l3202:	
  4005                           ;servertest.c: 336: {
  4006                           ;servertest.c: 337: int k;
  4007                           ;servertest.c: 338: RCIF =0;
  4008  0726  128C               	bcf	(101/8),(101)&7
  4009                           	line	340
  4010                           	
  4011  0727                     i1l3204:	
  4012                           ;servertest.c: 340: aa[ii]=RCREG;
  4013  0727  081A               	movf	(26),w	;volatile
  4014  0728  00F5               	movwf	(??_receive+0)+0
  4015  0729  0854               	movf	(_ii),w
  4016  072A  3E20               	addlw	_aa&0ffh
  4017  072B  0084               	movwf	fsr0
  4018  072C  0875               	movf	(??_receive+0)+0,w
  4019  072D  1383               	bcf	status, 7	;select IRP bank0
  4020  072E  0080               	movwf	indf
  4021                           	line	343
  4022                           ;servertest.c: 343: if(aa[ii]=='&')
  4023  072F  0854               	movf	(_ii),w
  4024  0730  3E20               	addlw	_aa&0ffh
  4025  0731  0084               	movwf	fsr0
  4026  0732  0800               	movf	indf,w
  4027  0733  3A26               	xorlw	026h
  4028  0734  1D03               	skipz
  4029  0735  2F37               	goto	u304_21
  4030  0736  2F38               	goto	u304_20
  4031  0737                     u304_21:
  4032  0737  2F47               	goto	i1l3212
  4033  0738                     u304_20:
  4034                           	line	345
  4035                           	
  4036  0738                     i1l3206:	
  4037                           ;servertest.c: 344: {
  4038                           ;servertest.c: 345: intrf=1;
  4039  0738  3001               	movlw	low(01h)
  4040  0739  00D6               	movwf	(_intrf)
  4041  073A  3000               	movlw	high(01h)
  4042  073B  00D7               	movwf	((_intrf))+1
  4043                           	line	346
  4044                           	
  4045  073C                     i1l3208:	
  4046                           ;servertest.c: 346: aa[ii++]='\0';
  4047  073C  0854               	movf	(_ii),w
  4048  073D  3E20               	addlw	_aa&0ffh
  4049  073E  0084               	movwf	fsr0
  4050  073F  0180               	clrf	indf
  4051                           	
  4052  0740                     i1l3210:	
  4053  0740  3001               	movlw	low(01h)
  4054  0741  07D4               	addwf	(_ii),f
  4055  0742  1803               	skipnc
  4056  0743  0AD5               	incf	(_ii+1),f
  4057  0744  3000               	movlw	high(01h)
  4058  0745  07D5               	addwf	(_ii+1),f
  4059  0746  2F47               	goto	i1l3212
  4060                           	line	347
  4061                           	
  4062  0747                     i1l872:	
  4063                           	line	348
  4064                           	
  4065  0747                     i1l3212:	
  4066                           ;servertest.c: 347: }
  4067                           ;servertest.c: 348: ii++;
  4068  0747  3001               	movlw	low(01h)
  4069  0748  07D4               	addwf	(_ii),f
  4070  0749  1803               	skipnc
  4071  074A  0AD5               	incf	(_ii+1),f
  4072  074B  3000               	movlw	high(01h)
  4073  074C  07D5               	addwf	(_ii+1),f
  4074  074D  2F4E               	goto	i1l873
  4075                           	line	349
  4076                           	
  4077  074E                     i1l871:	
  4078                           	line	351
  4079                           	
  4080  074E                     i1l873:	
  4081  074E  0879               	movf	(??_receive+4),w
  4082  074F  1283               	bcf	status, 5	;RP0=0, select bank0
  4083  0750  00FF               	movwf	btemp+1
  4084  0751  0878               	movf	(??_receive+3),w
  4085  0752  008A               	movwf	pclath
  4086  0753  0877               	movf	(??_receive+2),w
  4087  0754  0084               	movwf	fsr0
  4088  0755  0E76               	swapf	(??_receive+1)^0FFFFFF80h,w
  4089  0756  0083               	movwf	status
  4090  0757  0EFE               	swapf	saved_w,f
  4091  0758  0E7E               	swapf	saved_w,w
  4092  0759  0009               	retfie
  4093                           	opt stack 0
  4094                           GLOBAL	__end_of_receive
  4095  075A                     	__end_of_receive:
  4096 ;; =============== function _receive ends ============
  4097                           
  4098                           	signat	_receive,88
  4099                           psect	text381,local,class=CODE,delta=2
  4100                           global __ptext381
  4101  0000                     __ptext381:
  4102                           	global	btemp
  4103  007E                     	btemp set 07Eh
  4104                           
  4105                           	DABS	1,126,2	;btemp
  4106                           	global	wtemp0
  4107  007E                     	wtemp0 set btemp


HI-TECH Software PICC Macro Assembler V9.83 build 10920 
Symbol Table                                                                                   Mon Oct 27 12:50:05 2014

                   _b 00A0                     _c 00C8                     _d 00DC                     pc 0002  
                  _AA 0190                    _OF 0059                    _RD 0C60                    _ON 005A  
                  _TT 0070                    _WR 0C61                    _TX 07F1                    _aa 0020  
                  _bb 00B4                    _ff 0072                    _gg 0052                    _hh 0073  
                  _ii 0054                    _qq 0074                    fsr 0004                   ?_TX 0075  
                 l800 0427                   l801 050C                   l810 047A                   l802 042D  
                 l811 046B                   l803 042D                   l820 0499                   l812 046B  
                 l804 0432                   l740 018F                   l821 049E                   l813 0470  
                 l805 0452                   l741 01CD                   l830 0512                   l822 04BF  
                 l814 0491                   l806 0452                   l750 0282                   l742 01CC  
                 l831 0512                   l823 04B0                   l815 0482                   l743 01CB  
                 l735 010C                   l840 0550                   l832 0517                   l824 04B0  
                 l816 0482                   l808 0465                   l760 02B2                   l752 0295  
                 l736 0215                   l744 01DB                   l841 0555                   l833 0537  
                 l825 04B5                   l817 0487                   l809 0465                   l761 02B7  
                 l753 0295                   l745 0342                   l737 0154                   l850 05A4  
                 l842 0576                   l834 0537                   l826 0503                   l818 04A8  
                 l770 0339                   l762 02D8                   l754 02AA                   l746 025D  
                 l738 01EF                   l851 0595                   l843 0567                   l827 0502  
                 l819 0499                   l771 0338                   l763 02C9                   l755 029B  
                 l747 025D                   l739 0190                   l860 07F7                   l852 0595  
                 l844 0567                   l836 054A                   l828 050C                   l780 0380  
                 l772 0342                   l764 02C9                   l756 029B                   l748 0262  
                 l861 07FD                   l829 05E7                   l853 059A                   l845 056C  
                 l837 054A                   l781 0380                   l773 0427                   l765 02CE  
                 l757 02A0                   l749 0282                   l862 07FE                   l854 05E8  
                 l846 058D                   l838 055F                   l790 03C3                   l782 0395  
                 l774 0348                   l766 02F5                   l758 02C1                   l855 05E9  
                 l847 057E                   l839 0550                   l791 03B4                   l783 0386  
                 l775 0348                   l767 02E0                   l759 02B2                   l856 05E9  
                 l848 057E                   l792 03B4                   l784 0386                   l776 034D  
                 l768 02E0                   l865 07BC                   l849 0583                   l793 03B9  
                 l785 038B                   l777 036D                   l769 02E5                   l882 0FF4  
                 l890 0FCB                   l866 0798                   l794 03DA                   l786 03AC  
                 l778 036D                   l883 0FD1                   l859 07F7                   l867 07CD  
                 l795 03CB                   l787 039D                   l876 0FB7                   l884 0FDE  
                 l868 07CD                   l796 03CB                   l788 039D                   l885 0FEE  
                 l893 05FF                   l797 03D0                   l789 03A2                   l886 0FFF  
                 l798 041E                   l887 0FFF                   l799 041D                   l896 0785  
                 l897 075B                   l898 0796                   l899 0796                   _GIE 005F  
                 _RC0 0038                   _RC1 0039                   _RD0 0040                   _RC2 003A  
                 _RD1 0041                   _RC3 003B                   _RD2 0042                   _RD3 0043  
                 _RD6 0046                   _RD7 0047                   _MSG 0058                   _TXS 0797  
         lcdcmd@value 0062                   fsr0 0004                   indf 0000                  ??_TX 005C  
                ?_TXS 0062                  l3600 07B3                  l3602 07BC                  l3610 077C  
                l3612 0785                  l3604 075A                  l3700 01DB                  l3620 001F  
                l3550 0FAB                  l3606 075B                  l3710 021E                  l3702 01E1  
                l3630 0050                  l3622 0024                  l3614 0015                  l3552 0FAF  
                l3560 0FD3                  l3608 0771                  l3800 03D0                  l3720 0255  
                l3712 0229                  l3704 01EF                  l3640 0087                  l3632 005B  
                l3624 002F                  l3616 0018                  l3554 0FB7                  l3562 0FDD  
                l3570 0FB8                  l3810 041E                  l3802 03DA                  l3730 028C  
                l3722 025C                  l3714 0234                  l3706 0210                  l3650 00BE  
                l3642 0092                  l3634 0066                  l3626 003A                  l3618 001A  
                l3548 0FA7                  l3564 0FDE                  l3556 0FCC                  l3580 0FCB  
                l3572 0FBC                  l3820 045C                  l3812 042C                  l3804 03E5  
                l3740 02B1                  l3732 0290                  l3724 0262                  l3716 023F  
                l3708 0215                  l3660 00F5                  l3652 00C9                  l3644 009D  
                l3636 0071                  l3628 0045                  l3566 0FEE                  l3558 0FD1  
                l3574 0FBD                  l3590 05FB                  l3582 05EC                  l3830 0481  
                l3822 0460                  l3814 0432                  l3806 03FB                  l3750 02D8  
                l3742 02B7                  l3734 029A                  l3726 0276                  l3718 024A  
                l3670 0120                  l3662 0100                  l3654 00D4                  l3646 00A8  
                l3638 007C                  l3568 07F4                  l3576 0FBE                  l3592 05FF  
                l3584 05F0                  l3840 04A8                  l3832 0487                  l3824 046A  
                l3816 0446                  l3808 0406                  l3760 0300                  l3752 02DF  
                l3744 02C1                  l3736 02A0                  l3728 0288                  l3680 0154  
                l3672 012B                  l3664 010C                  l3656 00DF                  l3648 00B3  
                l3578 0FC7                  l3586 05F1                  l3594 0797                  l3850 04E0  
                l3842 04AF                  l3834 0491                  l3826 0470                  l3818 0458  
                l3770 034D                  l3762 030B                  l3754 02E5                  l3746 02C8  
                l3738 02AA                  l3690 019F                  l3682 0163                  l3674 0136  
                l3666 0115                  l3658 00EA                  l3588 05F2                  l3596 0798  
                l3860 052B                  l3852 04EB                  l3844 04B5                  l3836 0498  
                l3828 047A                  l3780 0385                  l3772 0361                  l3764 032C  
                l3756 02EE                  l3748 02CE                  l3692 01AB                  l3684 016F  
                l3676 0145                  l3668 0117                  l3598 07A8                  l3870 0555  
                l3862 053D                  l3854 0503                  l3846 04BF                  l3838 049E  
                l3790 03AC                  l3782 038B                  l3774 0373                  l3766 0339  
                l3758 02F5                  l3694 01B8                  l3686 017C                  l3678 0153  
                l3880 057D                  l3872 055F                  l3864 0541                  l3856 0511  
                l3848 04CA                  l3792 03B3                  l3784 0395                  l3776 0377  
                l3768 0347                  l3696 01CD                  l3688 0190                  l3890 05A4  
                l3882 0583                  l3874 0566                  l3866 0545                  l3858 0517  
                l3794 03B9                  l3786 039C                  l3778 037B                  l3698 01DA  
                l3892 05AF                  l3884 058D                  l3876 056C                  l3868 054F  
                l3796 03C3                  l3788 03A2                  l3894 05C5                  l3886 0594  
                l3878 0576                  l3798 03CA                  l3896 05D0                  l3888 059A  
                STR_1 068A                  STR_2 0646                  STR_3 069A                  STR_4 0657  
                STR_5 0624                  STR_6 0612                  STR_7 0668                  STR_8 06AA  
                STR_9 06C6                  TXS@s 0062                  u4000 02DE                  u4001 02DD  
                u4010 02E4                  u4011 02E3                  u4100 038A                  u4020 0341  
                u4101 0389                  u4021 0340                  u4110 039B                  u4030 0346  
                u4111 039A                  u4031 0345                  u4200 0458                  u4120 03A1  
                u4040 034C                  u4201 0457                  u4121 03A0                  u4041 034B  
                u4210 045C                  u4130 03B2                  u4050 0373                  u4211 045B  
                u4131 03B1                  u4051 0372                  u4300 04AE                  u4220 0460  
                u4140 03B8                  u4060 0377                  u4301 04AD                  u4221 045F  
                u4141 03B7                  u4061 0376                  u4310 04B4                  u4230 0464  
                u4150 03C9                  u4070 037B                  u4311 04B3                  u4231 0463  
                u4151 03C8                  u4071 037A                  u4400 0554                  u4320 050B  
                u4240 0469                  u4160 03CF                  u4080 037F                  u4401 0553  
                u4321 050A                  u4241 0468                  u4161 03CE                  u4081 037E  
                u4410 0565                  u4330 0510                  u4250 046F                  u4170 0426  
                u4090 0384                  u4411 0564                  u4331 050F                  u4251 046E  
                u4171 0425                  u4091 0383                  u4420 056B                  u4340 0516  
                u4260 0480                  u4180 042B                  u4421 056A                  u4341 0515  
                u4261 047F                  u4181 042A                  u4430 057C                  u4350 053D  
                u4270 0486                  u4190 0431                  u4431 057B                  u4351 053C  
                u4271 0485                  u4191 0430                  u4440 0582                  u4360 0541  
                u4280 0497                  u3800 0115                  u4441 0581                  u4361 0540  
                u4281 0496                  u3801 0114                  u4450 0593                  u4370 0545  
                u4290 049D                  u3810 0152                  u4451 0592                  u4371 0544  
                u4291 049C                  u3811 0151                  u3740 0FDC                  u4460 0599  
                u4380 0549                  u3900 0288                  u3820 0163                  u3741 0FDB  
                u4461 0598                  u4381 0548                  u3901 0287                  u3821 0162  
                u3750 0FED                  u4390 054E                  u3910 028C                  u3830 016F  
                u3751 0FEC                  u4391 054D                  u3911 028B                  u3831 016E  
                u3815 014E                  u3760 0FFE                  u3920 0290                  u3840 019F  
                u3761 0FFD                  u3921 028F                  u3841 019E                  u3825 015F  
                u3770 07FD                  u3930 0294                  u3850 01AB                  u3771 07FC  
                u3931 0293                  u3851 01AA                  _RCIE 0465                  u3780 07CC  
                u3940 0299                  u3860 01D9                  _RCIF 0065                  u3765 0FFA  
                u3781 07CB                  u3941 0298                  u3861 01D8                  u3845 019B  
                u3790 0795                  u3950 029F                  u3870 01EE                  u3791 0794  
                u3951 029E                  u3871 01ED                  u3960 02B0                  u3880 025B  
                u3961 02AF                  u3881 025A                  u3970 02B6                  u3890 0261  
                u3971 02B5                  u3891 0260                  u3875 01EA                  u3980 02C7  
                u3981 02C6                  u3990 02CD                  u3991 02CC                  _TRMT 04C1  
                _WREN 0C62                  __SMS 0071                  _main 0015          lcddata@value 0062  
                btemp 007E                  start 0012                 ??_TXS 0064                 ?_main 0075  
               _EEADR 010D                 STR_10 06E2                 STR_11 06FE                 STR_20 0679  
               STR_12 0635                 STR_21 0668                 STR_13 0679                 STR_14 0668  
               STR_30 06DB                 STR_22 06B8                 STR_31 06F7                 STR_23 06D4  
               STR_15 06B1                 STR_32 0713                 STR_24 06F0                 STR_16 06CD  
               STR_25 070C                 STR_17 06E9                 STR_33 0600                 STR_26 0635  
               STR_34 0679                 STR_18 0705                 STR_19 0635                 STR_27 0679  
               STR_28 0668                 STR_29 06BF                 _CARRY 0018                 i1l871 074E  
               i1l872 0747                 i1l873 074E                 _RCREG 001A                 _RCSTA 0018  
               _SPBRG 0099                 _PORTB 0006                 _TRISB 0086                 _TRISC 0087  
               _TRISD 0088                 _TXREG 0019                 _TXSTA 0098       __end_of_lcddata 0600  
     __end_of_display 0797                 _delay 0FCC                 _intrf 0056       __end_of_receive 075A  
               pclath 000A                 status 0003                 wtemp0 007E          __end_of_main 05EC  
              ??_main 0068                ?_delay 005C                _EEDATA 010C                _EECON1 018C  
              _EECON2 018D                i1l3200 0720                i1l3210 0740                i1l3202 0726  
              i1l3212 0747                i1l3204 0727                i1l3206 0738                i1l3208 073C  
              i1l3198 071A                u302_20 0720                u302_21 071F                u303_20 0726  
              u303_21 0725                u304_20 0738                u304_21 0737                _INTCON 000B  
              _TRISC6 043E                _TRISC7 043F                _lcdcmd 0FB8                delay@d 005C  
              delay@h 005E                delay@k 0060             ??_lcddata 0064                clrloop 0FA0  
           ??_display 0066             ??_receive 0075                saved_w 007E        __pcstackCOMMON 0075  
       __end_of_delay 1000            __end_of_TX 07FF               ??_delay 005E            __pbssBANK0 0020  
          __pbssBANK1 00A0            __pbssBANK3 0190            __pmaintext 0015            __pintentry 0004  
             ?_lcdcmd 0062    __size_of_uart_init 0011             TX@TX_BYTE 005C       __size_of_lcdcmd 0014  
             _lcddata 05EC               _display 075A          __size_of_TXS 0037               _receive 071A  
end_of_initialization 07ED     __end_of_uart_init 0FB8            _serial_chk 005B          __pstringtext 0600  
      __end_of_lcdcmd 0FCC   start_initialization 07CE           __end_of_TXS 07CE              ??_lcdcmd 0064  
         __pbssCOMMON 0070         __pcstackBANK0 005C             __ptext380 071A             __ptext372 0000  
           __ptext381 0000             __ptext373 075A             __ptext374 0797             __ptext375 05EC  
           __ptext376 0FB8             __ptext377 07F1             __ptext378 0FCC             __ptext379 0FA7  
           __pstrings 0800              ?_lcddata 0062              ?_display 0064              ?_receive 0075  
      __size_of_delay 0034           __size_of_TX 000E     interrupt_function 0004             _uart_init 0FA7  
         __stringbase 0812            ?_uart_init 0075      __size_of_lcddata 0014      __size_of_display 003D  
    __size_of_receive 0040         __size_of_main 05D7              clear_ram 0F9F              display@p 0064  
            intlevel1 0000             stringcode 080A           ??_uart_init 005C              stringtab 0800  
