

HI-TECH Software PIC LITE Macro Assembler V9.83 build 10920 
                                                                                               Sat Nov 08 12:25:59 2014

HI-TECH Software Omniscient Code Generator (Lite mode) build 10920
     1  0000                     opt subtitle "HI-TECH Software Omniscient Code Generator (Lite mode) build 10920"
     2                           
     3                           opt pagewidth 120
     4                           
     5                           	opt lm
     6                           
     7                           	processor	16F877A
     8                           clrc	macro
     9                           	bcf	3,0
    10  0000                     	endm
    11                           clrz	macro
    12                           	bcf	3,2
    13  0000                     	endm
    14                           setc	macro
    15                           	bsf	3,0
    16  0000                     	endm
    17                           setz	macro
    18                           	bsf	3,2
    19  0000                     	endm
    20                           skipc	macro
    21                           	btfss	3,0
    22  0000                     	endm
    23                           skipz	macro
    24                           	btfss	3,2
    25  0000                     	endm
    26                           skipnc	macro
    27                           	btfsc	3,0
    28  0000                     	endm
    29                           skipnz	macro
    30                           	btfsc	3,2
    31  0000                     	endm
    32  0000                     indf	equ	0
    33  0000                     indf0	equ	0
    34  0002                     pc	equ	2
    35  0002                     pcl	equ	2
    36  0003                     status	equ	3
    37  0004                     fsr	equ	4
    38  0004                     fsr0	equ	4
    39  0001                     c	equ	1
    40  0000                     z	equ	0
    41  000A                     pclath	equ	10
    42                           # 3 "F:\pic projects\solar charge\solar charge.c"
    43                           	psect config,class=CONFIG,delta=2 ;#
    44                           # 3 "F:\pic projects\solar charge\solar charge.c"
    45  2007  FF72               	dw 0xFFFE & 0xFFFB & 0xFFF7 & 0xFFFF & 0xFFFF & 0xFF7F & 0xFFFF & 0xFFFF ;#
    46                           	FNCALL	_main,_ADC_Init
    47                           	FNCALL	_main,_PWM1_Init
    48                           	FNCALL	_main,_lcdcmd
    49                           	FNCALL	_main,_delay
    50                           	FNCALL	_main,_display
    51                           	FNCALL	_main,_ADC_Read
    52                           	FNCALL	_main,_adc_to_volt
    53                           	FNCALL	_main,_lcddata
    54                           	FNCALL	_main,_PWM1_Stop
    55                           	FNCALL	_main,_PWM1_Start
    56                           	FNCALL	_main,_PWM1_Duty
    57                           	FNCALL	_PWM1_Duty,___lwtoft
    58                           	FNCALL	_PWM1_Duty,___ftdiv
    59                           	FNCALL	_PWM1_Duty,_PWM_Max_Duty
    60                           	FNCALL	_PWM1_Duty,___awtoft
    61                           	FNCALL	_PWM1_Duty,___ftmul
    62                           	FNCALL	_PWM1_Duty,___fttol
    63                           	FNCALL	_adc_to_volt,___wmul
    64                           	FNCALL	_adc_to_volt,___lwdiv
    65                           	FNCALL	_adc_to_volt,_lcdcmd
    66                           	FNCALL	_adc_to_volt,_delay
    67                           	FNCALL	_adc_to_volt,_lcddata
    68                           	FNCALL	_adc_to_volt,___lwmod
    69                           	FNCALL	_display,_lcddata
    70                           	FNCALL	_display,_delay
    71                           	FNCALL	___lwtoft,___ftpack
    72                           	FNCALL	___awtoft,___ftpack
    73                           	FNCALL	___ftmul,___ftpack
    74                           	FNCALL	___ftdiv,___ftpack
    75                           	FNCALL	_PWM_Max_Duty,___aldiv
    76                           	FNCALL	_lcddata,_delay
    77                           	FNCALL	_ADC_Read,_delay
    78                           	FNCALL	_lcdcmd,_delay
    79                           	FNCALL	_PWM1_Init,___aldiv
    80                           	FNROOT	_main
    81                           	global	_u
    82                           	global	_ADCON0
    83                           psect	text518,local,class=CODE,delta=2
    84                           global __ptext518
    85  0000                     __ptext518:
    86  001F                     _ADCON0	set	31
    87                           	global	_ADRESH
    88  001E                     _ADRESH	set	30
    89                           	global	_CCPR1L
    90  0015                     _CCPR1L	set	21
    91                           	global	_PORTB
    92  0006                     _PORTB	set	6
    93                           	global	_CARRY
    94  0018                     _CARRY	set	24
    95                           	global	_CCP1M2
    96  00BA                     _CCP1M2	set	186
    97                           	global	_CCP1M3
    98  00BB                     _CCP1M3	set	187
    99                           	global	_CCP1X
   100  00BD                     _CCP1X	set	189
   101                           	global	_CCP1Y
   102  00BC                     _CCP1Y	set	188
   103                           	global	_GIE
   104  005F                     _GIE	set	95
   105                           	global	_GO_nDONE
   106  00FA                     _GO_nDONE	set	250
   107                           	global	_RC2
   108  003A                     _RC2	set	58
   109                           	global	_RC4
   110  003C                     _RC4	set	60
   111                           	global	_RD6
   112  0046                     _RD6	set	70
   113                           	global	_RD7
   114  0047                     _RD7	set	71
   115                           	global	_TMR2ON
   116  0092                     _TMR2ON	set	146
   117                           	global	_ADCON1
   118  009F                     _ADCON1	set	159
   119                           	global	_PR2
   120  0092                     _PR2	set	146
   121                           	global	_TRISB
   122  0086                     _TRISB	set	134
   123                           	global	_TRISC
   124  0087                     _TRISC	set	135
   125                           	global	_TRISD
   126  0088                     _TRISD	set	136
   127                           	global	_TRISC2
   128  043A                     _TRISC2	set	1082
   129                           	global	_EEADR
   130  010D                     _EEADR	set	269
   131                           	global	_EEDATA
   132  010C                     _EEDATA	set	268
   133                           	global	_EECON1
   134  018C                     _EECON1	set	396
   135                           	global	_EECON2
   136  018D                     _EECON2	set	397
   137                           	global	_RD
   138  0C60                     _RD	set	3168
   139                           	global	_WR
   140  0C61                     _WR	set	3169
   141                           	global	_WREN
   142  0C62                     _WREN	set	3170
   143                           	global	_freq
   144                           psect	nvBANK0,class=BANK0,space=1
   145                           global __pnvBANK0
   146  005A                     __pnvBANK0:
   147  005A                     _freq:
   148  005A                            ds      4
   149                           
   150                           psect	strings,class=STRING,delta=2
   151                           global __pstrings
   152  0003                     __pstrings:
   153                           ;	global	stringdir,stringtab,__stringbase
   154  0003                     stringtab:
   155                           ;	String table - string pointers are 1 byte each
   156  0003                     stringcode:stringdir:
      + 0003                     stringdir:	
   157  0003  3000               movlw high(stringdir)
   158  0004  008A               movwf pclath
   159  0005  0804               movf fsr,w
   160  0006  0A84               incf fsr
   161  0007  0782               	addwf pc
   162  0008                     __stringbase:
   163  0008  3400               	retlw	0
   164                           psect	strings
   165                           	
   166  0009                     STR_6:	
   167  0009  3420               	retlw	32	;' '
   168  000A  3420               	retlw	32	;' '
   169  000B  3420               	retlw	32	;' '
   170  000C  3420               	retlw	32	;' '
   171  000D  3420               	retlw	32	;' '
   172  000E  3420               	retlw	32	;' '
   173  000F  3420               	retlw	32	;' '
   174  0010  3420               	retlw	32	;' '
   175  0011  3420               	retlw	32	;' '
   176  0012  3420               	retlw	32	;' '
   177  0013  3420               	retlw	32	;' '
   178  0014  3420               	retlw	32	;' '
   179  0015  3420               	retlw	32	;' '
   180  0016  3420               	retlw	32	;' '
   181  0017  3420               	retlw	32	;' '
   182  0018  3420               	retlw	32	;' '
   183  0019  3400               	retlw	0
   184                           psect	strings
   185                           	
   186  001A                     STR_2:	
   187  001A  3420               	retlw	32	;' '
   188  001B  3420               	retlw	32	;' '
   189  001C  3420               	retlw	32	;' '
   190  001D  3443               	retlw	67	;'C'
   191  001E  344F               	retlw	79	;'O'
   192  001F  344E               	retlw	78	;'N'
   193  0020  3454               	retlw	84	;'T'
   194  0021  3452               	retlw	82	;'R'
   195  0022  344F               	retlw	79	;'O'
   196  0023  344C               	retlw	76	;'L'
   197  0024  344C               	retlw	76	;'L'
   198  0025  3445               	retlw	69	;'E'
   199  0026  3452               	retlw	82	;'R'
   200  0027  3420               	retlw	32	;' '
   201  0028  3420               	retlw	32	;' '
   202  0029  3420               	retlw	32	;' '
   203  002A  3400               	retlw	0
   204                           psect	strings
   205                           	
   206  002B                     STR_1:	
   207  002B  3420               	retlw	32	;' '
   208  002C  3420               	retlw	32	;' '
   209  002D  3453               	retlw	83	;'S'
   210  002E  344F               	retlw	79	;'O'
   211  002F  344C               	retlw	76	;'L'
   212  0030  3441               	retlw	65	;'A'
   213  0031  3452               	retlw	82	;'R'
   214  0032  3420               	retlw	32	;' '
   215  0033  3443               	retlw	67	;'C'
   216  0034  3448               	retlw	72	;'H'
   217  0035  3441               	retlw	65	;'A'
   218  0036  3452               	retlw	82	;'R'
   219  0037  3447               	retlw	71	;'G'
   220  0038  3445               	retlw	69	;'E'
   221  0039  3420               	retlw	32	;' '
   222  003A  3420               	retlw	32	;' '
   223  003B  3400               	retlw	0
   224                           psect	strings
   225                           	
   226  003C                     STR_7:	
   227  003C  3420               	retlw	32	;' '
   228  003D  3420               	retlw	32	;' '
   229  003E  3462               	retlw	98	;'b'
   230  003F  3461               	retlw	97	;'a'
   231  0040  3474               	retlw	116	;'t'
   232  0041  3474               	retlw	116	;'t'
   233  0042  3465               	retlw	101	;'e'
   234  0043  3472               	retlw	114	;'r'
   235  0044  3479               	retlw	121	;'y'
   236  0045  3420               	retlw	32	;' '
   237  0046  3466               	retlw	102	;'f'
   238  0047  3475               	retlw	117	;'u'
   239  0048  346C               	retlw	108	;'l'
   240  0049  346C               	retlw	108	;'l'
   241  004A  3420               	retlw	32	;' '
   242  004B  3420               	retlw	32	;' '
   243  004C  3400               	retlw	0
   244                           psect	strings
   245                           	
   246  004D                     STR_5:	
   247  004D  342A               	retlw	42	;'*'
   248  004E  342A               	retlw	42	;'*'
   249  004F  3442               	retlw	66	;'B'
   250  0050  3461               	retlw	97	;'a'
   251  0051  3474               	retlw	116	;'t'
   252  0052  3474               	retlw	116	;'t'
   253  0053  3465               	retlw	101	;'e'
   254  0054  3472               	retlw	114	;'r'
   255  0055  3479               	retlw	121	;'y'
   256  0056  3420               	retlw	32	;' '
   257  0057  346C               	retlw	108	;'l'
   258  0058  346F               	retlw	111	;'o'
   259  0059  3477               	retlw	119	;'w'
   260  005A  342A               	retlw	42	;'*'
   261  005B  342A               	retlw	42	;'*'
   262  005C  3400               	retlw	0
   263                           psect	strings
   264                           	
   265  005D                     STR_3:	
   266  005D  3470               	retlw	112	;'p'
   267  005E  3461               	retlw	97	;'a'
   268  005F  346E               	retlw	110	;'n'
   269  0060  3465               	retlw	101	;'e'
   270  0061  346C               	retlw	108	;'l'
   271  0062  3420               	retlw	32	;' '
   272  0063  3420               	retlw	32	;' '
   273  0064  3420               	retlw	32	;' '
   274  0065  343D               	retlw	61	;'='
   275  0066  3400               	retlw	0
   276                           psect	strings
   277                           	
   278  0067                     STR_4:	
   279  0067  3462               	retlw	98	;'b'
   280  0068  3461               	retlw	97	;'a'
   281  0069  3474               	retlw	116	;'t'
   282  006A  3474               	retlw	116	;'t'
   283  006B  3465               	retlw	101	;'e'
   284  006C  3472               	retlw	114	;'r'
   285  006D  3479               	retlw	121	;'y'
   286  006E  3420               	retlw	32	;' '
   287  006F  343D               	retlw	61	;'='
   288  0070  3400               	retlw	0
   289                           psect	strings
   290                           	file	"solar.as"
   291                           	line	#
   292                           psect cinit,class=CODE,delta=2
   293                           global start_initialization
   294  0E10                     start_initialization:
   295                           
   296                           psect	bssBANK0,class=BANK0,space=1
   297                           global __pbssBANK0
   298  005E                     __pbssBANK0:
   299  005E                     _u:
   300  005E                            ds      3
   301                           
   302                           ; Clear objects allocated to BANK0
   303                           psect cinit,class=CODE,delta=2
   304  0E10  01DE               	clrf	((__pbssBANK0)+0)&07Fh
   305  0E11  01DF               	clrf	((__pbssBANK0)+1)&07Fh
   306  0E12  01E0               	clrf	((__pbssBANK0)+2)&07Fh
   307                           psect cinit,class=CODE,delta=2
   308                           global end_of_initialization
   309                           
   310                           ;End of C runtime variable initialization code
   311                           
   312  0E13                     end_of_initialization:
   313  0E13  0183               clrf status
   314  0E14  120A  118A  2E13   ljmp _main	;jump to C main() function
   315                           psect	cstackCOMMON,class=COMMON,space=1
   316                           global __pcstackCOMMON
   317  0070                     __pcstackCOMMON:
   318                           	global	?_ADC_Init
   319  0070                     ?_ADC_Init:	; 0 bytes @ 0x0
   320                           	global	??_ADC_Init
   321  0070                     ??_ADC_Init:	; 0 bytes @ 0x0
   322                           	global	?_delay
   323  0070                     ?_delay:	; 0 bytes @ 0x0
   324                           	global	?_display
   325  0070                     ?_display:	; 0 bytes @ 0x0
   326                           	global	?_adc_to_volt
   327  0070                     ?_adc_to_volt:	; 0 bytes @ 0x0
   328                           	global	?_PWM1_Stop
   329  0070                     ?_PWM1_Stop:	; 0 bytes @ 0x0
   330                           	global	??_PWM1_Stop
   331  0070                     ??_PWM1_Stop:	; 0 bytes @ 0x0
   332                           	global	?_PWM1_Start
   333  0070                     ?_PWM1_Start:	; 0 bytes @ 0x0
   334                           	global	??_PWM1_Start
   335  0070                     ??_PWM1_Start:	; 0 bytes @ 0x0
   336                           	global	?_main
   337  0070                     ?_main:	; 0 bytes @ 0x0
   338                           	global	?___wmul
   339  0070                     ?___wmul:	; 2 bytes @ 0x0
   340                           	global	?___lwdiv
   341  0070                     ?___lwdiv:	; 2 bytes @ 0x0
   342                           	global	?___lwmod
   343  0070                     ?___lwmod:	; 2 bytes @ 0x0
   344                           	global	?___ftpack
   345  0070                     ?___ftpack:	; 3 bytes @ 0x0
   346                           	global	?___aldiv
   347  0070                     ?___aldiv:	; 4 bytes @ 0x0
   348                           	global	delay@d
   349  0070                     delay@d:	; 2 bytes @ 0x0
   350                           	global	___wmul@multiplier
   351  0070                     ___wmul@multiplier:	; 2 bytes @ 0x0
   352                           	global	___lwdiv@divisor
   353  0070                     ___lwdiv@divisor:	; 2 bytes @ 0x0
   354                           	global	___lwmod@divisor
   355  0070                     ___lwmod@divisor:	; 2 bytes @ 0x0
   356                           	global	___ftpack@arg
   357  0070                     ___ftpack@arg:	; 3 bytes @ 0x0
   358                           	global	___aldiv@divisor
   359  0070                     ___aldiv@divisor:	; 4 bytes @ 0x0
   360  0070                     	ds	2
   361                           	global	??_delay
   362  0072                     ??_delay:	; 0 bytes @ 0x2
   363                           	global	delay@h
   364  0072                     delay@h:	; 2 bytes @ 0x2
   365                           	global	___wmul@multiplicand
   366  0072                     ___wmul@multiplicand:	; 2 bytes @ 0x2
   367                           	global	___lwdiv@dividend
   368  0072                     ___lwdiv@dividend:	; 2 bytes @ 0x2
   369                           	global	___lwmod@dividend
   370  0072                     ___lwmod@dividend:	; 2 bytes @ 0x2
   371  0072                     	ds	1
   372                           	global	___ftpack@exp
   373  0073                     ___ftpack@exp:	; 1 bytes @ 0x3
   374  0073                     	ds	1
   375                           	global	??___wmul
   376  0074                     ??___wmul:	; 0 bytes @ 0x4
   377                           	global	??___lwdiv
   378  0074                     ??___lwdiv:	; 0 bytes @ 0x4
   379                           	global	??___lwmod
   380  0074                     ??___lwmod:	; 0 bytes @ 0x4
   381                           	global	___ftpack@sign
   382  0074                     ___ftpack@sign:	; 1 bytes @ 0x4
   383                           	global	delay@k
   384  0074                     delay@k:	; 2 bytes @ 0x4
   385                           	global	___wmul@product
   386  0074                     ___wmul@product:	; 2 bytes @ 0x4
   387                           	global	___aldiv@dividend
   388  0074                     ___aldiv@dividend:	; 4 bytes @ 0x4
   389  0074                     	ds	1
   390                           	global	??___ftpack
   391  0075                     ??___ftpack:	; 0 bytes @ 0x5
   392                           	global	___lwmod@counter
   393  0075                     ___lwmod@counter:	; 1 bytes @ 0x5
   394                           	global	___lwdiv@quotient
   395  0075                     ___lwdiv@quotient:	; 2 bytes @ 0x5
   396  0075                     	ds	1
   397                           	global	?_lcdcmd
   398  0076                     ?_lcdcmd:	; 0 bytes @ 0x6
   399                           	global	?_lcddata
   400  0076                     ?_lcddata:	; 0 bytes @ 0x6
   401                           	global	?_ADC_Read
   402  0076                     ?_ADC_Read:	; 2 bytes @ 0x6
   403                           	global	lcdcmd@value
   404  0076                     lcdcmd@value:	; 2 bytes @ 0x6
   405                           	global	lcddata@value
   406  0076                     lcddata@value:	; 2 bytes @ 0x6
   407  0076                     	ds	1
   408                           	global	___lwdiv@counter
   409  0077                     ___lwdiv@counter:	; 1 bytes @ 0x7
   410  0077                     	ds	1
   411                           	global	??_lcdcmd
   412  0078                     ??_lcdcmd:	; 0 bytes @ 0x8
   413                           	global	??_display
   414  0078                     ??_display:	; 0 bytes @ 0x8
   415                           	global	??_ADC_Read
   416  0078                     ??_ADC_Read:	; 0 bytes @ 0x8
   417                           	global	??_adc_to_volt
   418  0078                     ??_adc_to_volt:	; 0 bytes @ 0x8
   419                           	global	??_lcddata
   420  0078                     ??_lcddata:	; 0 bytes @ 0x8
   421                           	global	??___aldiv
   422  0078                     ??___aldiv:	; 0 bytes @ 0x8
   423  0078                     	ds	1
   424                           	global	??_PWM1_Init
   425  0079                     ??_PWM1_Init:	; 0 bytes @ 0x9
   426                           	global	??___fttol
   427  0079                     ??___fttol:	; 0 bytes @ 0x9
   428  0079                     	ds	1
   429                           	global	display@p
   430  007A                     display@p:	; 1 bytes @ 0xA
   431                           	global	ADC_Read@channel
   432  007A                     ADC_Read@channel:	; 1 bytes @ 0xA
   433  007A                     	ds	3
   434                           	global	??___lwtoft
   435  007D                     ??___lwtoft:	; 0 bytes @ 0xD
   436                           	global	___awtoft@sign
   437  007D                     ___awtoft@sign:	; 1 bytes @ 0xD
   438  007D                     	ds	1
   439                           psect	cstackBANK0,class=BANK0,space=1
   440                           global __pcstackBANK0
   441  0020                     __pcstackBANK0:
   442                           	global	adc_to_volt@ad_value
   443  0020                     adc_to_volt@ad_value:	; 1 bytes @ 0x0
   444                           	global	___aldiv@counter
   445  0020                     ___aldiv@counter:	; 1 bytes @ 0x0
   446  0020                     	ds	1
   447                           	global	___aldiv@sign
   448  0021                     ___aldiv@sign:	; 1 bytes @ 0x1
   449                           	global	adc_to_volt@volt2
   450  0021                     adc_to_volt@volt2:	; 2 bytes @ 0x1
   451  0021                     	ds	1
   452                           	global	___aldiv@quotient
   453  0022                     ___aldiv@quotient:	; 4 bytes @ 0x2
   454  0022                     	ds	1
   455                           	global	adc_to_volt@voltage
   456  0023                     adc_to_volt@voltage:	; 2 bytes @ 0x3
   457  0023                     	ds	3
   458                           	global	?_PWM1_Init
   459  0026                     ?_PWM1_Init:	; 2 bytes @ 0x6
   460                           	global	?___fttol
   461  0026                     ?___fttol:	; 4 bytes @ 0x6
   462                           	global	___fttol@f1
   463  0026                     ___fttol@f1:	; 3 bytes @ 0x6
   464                           	global	PWM1_Init@fre
   465  0026                     PWM1_Init@fre:	; 4 bytes @ 0x6
   466  0026                     	ds	4
   467                           	global	___fttol@sign1
   468  002A                     ___fttol@sign1:	; 1 bytes @ 0xA
   469  002A                     	ds	1
   470                           	global	___fttol@lval
   471  002B                     ___fttol@lval:	; 4 bytes @ 0xB
   472  002B                     	ds	4
   473                           	global	___fttol@exp1
   474  002F                     ___fttol@exp1:	; 1 bytes @ 0xF
   475  002F                     	ds	1
   476                           	global	?_PWM_Max_Duty
   477  0030                     ?_PWM_Max_Duty:	; 2 bytes @ 0x10
   478                           	global	?___lwtoft
   479  0030                     ?___lwtoft:	; 3 bytes @ 0x10
   480                           	global	___lwtoft@c
   481  0030                     ___lwtoft@c:	; 2 bytes @ 0x10
   482  0030                     	ds	2
   483                           	global	??_PWM_Max_Duty
   484  0032                     ??_PWM_Max_Duty:	; 0 bytes @ 0x12
   485  0032                     	ds	1
   486                           	global	?___ftdiv
   487  0033                     ?___ftdiv:	; 3 bytes @ 0x13
   488                           	global	___ftdiv@f2
   489  0033                     ___ftdiv@f2:	; 3 bytes @ 0x13
   490  0033                     	ds	3
   491                           	global	?___awtoft
   492  0036                     ?___awtoft:	; 3 bytes @ 0x16
   493                           	global	___awtoft@c
   494  0036                     ___awtoft@c:	; 2 bytes @ 0x16
   495                           	global	___ftdiv@f1
   496  0036                     ___ftdiv@f1:	; 3 bytes @ 0x16
   497  0036                     	ds	3
   498                           	global	??___ftdiv
   499  0039                     ??___ftdiv:	; 0 bytes @ 0x19
   500                           	global	??___awtoft
   501  0039                     ??___awtoft:	; 0 bytes @ 0x19
   502  0039                     	ds	4
   503                           	global	___ftdiv@cntr
   504  003D                     ___ftdiv@cntr:	; 1 bytes @ 0x1D
   505  003D                     	ds	1
   506                           	global	___ftdiv@f3
   507  003E                     ___ftdiv@f3:	; 3 bytes @ 0x1E
   508  003E                     	ds	3
   509                           	global	___ftdiv@exp
   510  0041                     ___ftdiv@exp:	; 1 bytes @ 0x21
   511  0041                     	ds	1
   512                           	global	___ftdiv@sign
   513  0042                     ___ftdiv@sign:	; 1 bytes @ 0x22
   514  0042                     	ds	1
   515                           	global	?___ftmul
   516  0043                     ?___ftmul:	; 3 bytes @ 0x23
   517                           	global	___ftmul@f1
   518  0043                     ___ftmul@f1:	; 3 bytes @ 0x23
   519  0043                     	ds	3
   520                           	global	___ftmul@f2
   521  0046                     ___ftmul@f2:	; 3 bytes @ 0x26
   522  0046                     	ds	3
   523                           	global	??___ftmul
   524  0049                     ??___ftmul:	; 0 bytes @ 0x29
   525  0049                     	ds	4
   526                           	global	___ftmul@exp
   527  004D                     ___ftmul@exp:	; 1 bytes @ 0x2D
   528  004D                     	ds	1
   529                           	global	___ftmul@f3_as_product
   530  004E                     ___ftmul@f3_as_product:	; 3 bytes @ 0x2E
   531  004E                     	ds	3
   532                           	global	___ftmul@cntr
   533  0051                     ___ftmul@cntr:	; 1 bytes @ 0x31
   534  0051                     	ds	1
   535                           	global	___ftmul@sign
   536  0052                     ___ftmul@sign:	; 1 bytes @ 0x32
   537  0052                     	ds	1
   538                           	global	?_PWM1_Duty
   539  0053                     ?_PWM1_Duty:	; 2 bytes @ 0x33
   540                           	global	PWM1_Duty@duty
   541  0053                     PWM1_Duty@duty:	; 2 bytes @ 0x33
   542  0053                     	ds	2
   543                           	global	??_PWM1_Duty
   544  0055                     ??_PWM1_Duty:	; 0 bytes @ 0x35
   545  0055                     	ds	2
   546                           	global	??_main
   547  0057                     ??_main:	; 0 bytes @ 0x37
   548  0057                     	ds	1
   549                           	global	main@battery
   550  0058                     main@battery:	; 1 bytes @ 0x38
   551  0058                     	ds	1
   552                           	global	main@panel
   553  0059                     main@panel:	; 1 bytes @ 0x39
   554  0059                     	ds	1
   555 ;;Data sizes: Strings 104, constant 0, data 0, bss 3, persistent 4 stack 0
   556 ;;Auto spaces:   Size  Autos    Used
   557 ;; COMMON          14     14      14
   558 ;; BANK0           80     58      65
   559 ;; BANK1           80      0       0
   560 ;; BANK3           96      0       0
   561 ;; BANK2           96      0       0
   562                           
   563 ;;
   564 ;; Pointer list with targets:
   565                           
   566 ;; ?___ftpack	float  size(1) Largest target is 0
   567 ;;
   568 ;; ?___fttol	long  size(1) Largest target is 0
   569 ;;
   570 ;; ?___ftdiv	float  size(1) Largest target is 0
   571 ;;
   572 ;; ?___lwtoft	float  size(1) Largest target is 0
   573 ;;
   574 ;; ?___ftmul	float  size(1) Largest target is 0
   575 ;;
   576 ;; ?___awtoft	float  size(1) Largest target is 0
   577 ;;
   578 ;; ?_PWM_Max_Duty	int  size(1) Largest target is 4
   579 ;;		 -> freq(BANK0[4]), 
   580 ;;
   581 ;; ?___aldiv	long  size(1) Largest target is 0
   582 ;;
   583 ;; ?___wmul	unsigned int  size(1) Largest target is 0
   584 ;;
   585 ;; ?___lwmod	unsigned int  size(1) Largest target is 0
   586 ;;
   587 ;; ?___lwdiv	unsigned int  size(1) Largest target is 0
   588 ;;
   589 ;; ?_ADC_Read	unsigned int  size(1) Largest target is 0
   590 ;;
   591 ;; display@p	PTR unsigned char  size(1) Largest target is 17
   592 ;;		 -> STR_7(CODE[17]), STR_6(CODE[17]), STR_5(CODE[16]), STR_4(CODE[10]), 
   593 ;;		 -> STR_3(CODE[10]), STR_2(CODE[17]), STR_1(CODE[17]), 
   594 ;;
   595                           
   596                           
   597 ;;
   598 ;; Critical Paths under _main in COMMON
   599 ;;
   600 ;;   _PWM1_Duty->___lwtoft
   601 ;;   _PWM1_Duty->___awtoft
   602 ;;   _adc_to_volt->___lwdiv
   603 ;;   _adc_to_volt->_lcdcmd
   604 ;;   _adc_to_volt->_lcddata
   605 ;;   _display->_lcddata
   606 ;;   ___lwtoft->___fttol
   607 ;;   ___awtoft->___fttol
   608 ;;   ___ftmul->___lwtoft
   609 ;;   ___ftmul->___awtoft
   610 ;;   ___ftdiv->___lwtoft
   611 ;;   _PWM_Max_Duty->___fttol
   612 ;;   _lcddata->_delay
   613 ;;   _ADC_Read->_delay
   614 ;;   _lcdcmd->_delay
   615 ;;   _PWM1_Init->___aldiv
   616 ;;   ___fttol->___aldiv
   617 ;;
   618 ;; Critical Paths under _main in BANK0
   619 ;;
   620 ;;   _main->_PWM1_Duty
   621 ;;   _PWM1_Duty->___ftmul
   622 ;;   ___lwtoft->___fttol
   623 ;;   ___awtoft->_PWM_Max_Duty
   624 ;;   ___ftmul->___ftdiv
   625 ;;   ___ftdiv->___lwtoft
   626 ;;   _PWM_Max_Duty->___fttol
   627 ;;   _PWM1_Init->___aldiv
   628 ;;   ___fttol->___aldiv
   629 ;;
   630 ;; Critical Paths under _main in BANK1
   631 ;;
   632 ;;   None.
   633 ;;
   634 ;; Critical Paths under _main in BANK3
   635 ;;
   636 ;;   None.
   637 ;;
   638 ;; Critical Paths under _main in BANK2
   639 ;;
   640 ;;   None.
   641                           
   642 ;;
   643 ;;Main: autosize = 0, tempsize = 1, incstack = 0, save=0
   644 ;;
   645                           
   646 ;;
   647 ;;Call Graph Tables:
   648 ;;
   649 ;; ---------------------------------------------------------------------------------
   650 ;; (Depth) Function   	        Calls       Base Space   Used Autos Params    Refs
   651 ;; ---------------------------------------------------------------------------------
   652 ;; (0) _main                                                 3     3      0    4496
   653 ;;                                             55 BANK0      3     3      0
   654 ;;                           _ADC_Init
   655 ;;                          _PWM1_Init
   656 ;;                             _lcdcmd
   657 ;;                              _delay
   658 ;;                            _display
   659 ;;                           _ADC_Read
   660 ;;                        _adc_to_volt
   661 ;;                            _lcddata
   662 ;;                          _PWM1_Stop
   663 ;;                         _PWM1_Start
   664 ;;                          _PWM1_Duty
   665 ;; ---------------------------------------------------------------------------------
   666 ;; (1) _PWM1_Duty                                            4     2      2    2196
   667 ;;                                             51 BANK0      4     2      2
   668 ;;                           ___lwtoft
   669 ;;                            ___ftdiv
   670 ;;                       _PWM_Max_Duty
   671 ;;                           ___awtoft
   672 ;;                            ___ftmul
   673 ;;                            ___fttol
   674 ;; ---------------------------------------------------------------------------------
   675 ;; (1) _adc_to_volt                                          7     7      0    1005
   676 ;;                                              8 COMMON     2     2      0
   677 ;;                                              0 BANK0      5     5      0
   678 ;;                             ___wmul
   679 ;;                            ___lwdiv
   680 ;;                             _lcdcmd
   681 ;;                              _delay
   682 ;;                            _lcddata
   683 ;;                            ___lwmod
   684 ;; ---------------------------------------------------------------------------------
   685 ;; (1) _display                                              3     3      0     251
   686 ;;                                              8 COMMON     3     3      0
   687 ;;                            _lcddata
   688 ;;                              _delay
   689 ;; ---------------------------------------------------------------------------------
   690 ;; (2) ___lwtoft                                             4     1      3     231
   691 ;;                                             13 COMMON     1     1      0
   692 ;;                                             16 BANK0      3     0      3
   693 ;;                           ___ftpack
   694 ;;                            ___fttol (ARG)
   695 ;; ---------------------------------------------------------------------------------
   696 ;; (2) ___awtoft                                             6     3      3     300
   697 ;;                                             13 COMMON     1     1      0
   698 ;;                                             22 BANK0      5     2      3
   699 ;;                           ___ftpack
   700 ;;                       _PWM_Max_Duty (ARG)
   701 ;;                            ___fttol (ARG)
   702 ;; ---------------------------------------------------------------------------------
   703 ;; (2) ___ftmul                                             16    10      6     535
   704 ;;                                             35 BANK0     16    10      6
   705 ;;                           ___ftpack
   706 ;;                            ___ftdiv (ARG)
   707 ;;                           ___lwtoft (ARG)
   708 ;;                           ___awtoft (ARG)
   709 ;;                       _PWM_Max_Duty (ARG)
   710 ;;                            ___fttol (ARG)
   711 ;; ---------------------------------------------------------------------------------
   712 ;; (2) ___ftdiv                                             16    10      6     489
   713 ;;                                             19 BANK0     16    10      6
   714 ;;                           ___ftpack
   715 ;;                           ___lwtoft (ARG)
   716 ;;                            ___fttol (ARG)
   717 ;; ---------------------------------------------------------------------------------
   718 ;; (2) _PWM_Max_Duty                                         6     4      2     300
   719 ;;                                             16 BANK0      6     4      2
   720 ;;                            ___aldiv
   721 ;;                            ___fttol (ARG)
   722 ;; ---------------------------------------------------------------------------------
   723 ;; (1) _lcddata                                              2     0      2     114
   724 ;;                                              6 COMMON     2     0      2
   725 ;;                              _delay
   726 ;; ---------------------------------------------------------------------------------
   727 ;; (1) _ADC_Read                                             5     3      2     136
   728 ;;                                              6 COMMON     5     3      2
   729 ;;                              _delay
   730 ;; ---------------------------------------------------------------------------------
   731 ;; (2) _lcdcmd                                               2     0      2     114
   732 ;;                                              6 COMMON     2     0      2
   733 ;;                              _delay
   734 ;; ---------------------------------------------------------------------------------
   735 ;; (1) _PWM1_Init                                            8     4      4     322
   736 ;;                                              9 COMMON     4     4      0
   737 ;;                                              6 BANK0      4     0      4
   738 ;;                            ___aldiv
   739 ;; ---------------------------------------------------------------------------------
   740 ;; (3) ___aldiv                                             15     7      8     300
   741 ;;                                              0 COMMON     9     1      8
   742 ;;                                              0 BANK0      6     6      0
   743 ;; ---------------------------------------------------------------------------------
   744 ;; (2) ___fttol                                             14    10      4     252
   745 ;;                                              9 COMMON     4     4      0
   746 ;;                                              6 BANK0     10     6      4
   747 ;;                           ___ftpack (ARG)
   748 ;;                            ___aldiv (ARG)
   749 ;; ---------------------------------------------------------------------------------
   750 ;; (3) ___ftpack                                             8     3      5     209
   751 ;;                                              0 COMMON     8     3      5
   752 ;; ---------------------------------------------------------------------------------
   753 ;; (2) ___lwmod                                              6     2      4     159
   754 ;;                                              0 COMMON     6     2      4
   755 ;; ---------------------------------------------------------------------------------
   756 ;; (2) ___lwdiv                                              8     4      4     162
   757 ;;                                              0 COMMON     8     4      4
   758 ;; ---------------------------------------------------------------------------------
   759 ;; (2) ___wmul                                               6     2      4      92
   760 ;;                                              0 COMMON     6     2      4
   761 ;; ---------------------------------------------------------------------------------
   762 ;; (1) _PWM1_Start                                           0     0      0       0
   763 ;; ---------------------------------------------------------------------------------
   764 ;; (1) _PWM1_Stop                                            0     0      0       0
   765 ;; ---------------------------------------------------------------------------------
   766 ;; (2) _delay                                                6     4      2      92
   767 ;;                                              0 COMMON     6     4      2
   768 ;; ---------------------------------------------------------------------------------
   769 ;; (1) _ADC_Init                                             0     0      0       0
   770 ;; ---------------------------------------------------------------------------------
   771 ;; Estimated maximum stack depth 3
   772 ;; ---------------------------------------------------------------------------------
   773                           
   774 ;; Call Graph Graphs:
   775                           
   776 ;; _main (ROOT)
   777 ;;   _ADC_Init
   778 ;;   _PWM1_Init
   779 ;;     ___aldiv
   780 ;;   _lcdcmd
   781 ;;     _delay
   782 ;;   _delay
   783 ;;   _display
   784 ;;     _lcddata
   785 ;;       _delay
   786 ;;     _delay
   787 ;;   _ADC_Read
   788 ;;     _delay
   789 ;;   _adc_to_volt
   790 ;;     ___wmul
   791 ;;     ___lwdiv
   792 ;;     _lcdcmd
   793 ;;       _delay
   794 ;;     _delay
   795 ;;     _lcddata
   796 ;;       _delay
   797 ;;     ___lwmod
   798 ;;   _lcddata
   799 ;;     _delay
   800 ;;   _PWM1_Stop
   801 ;;   _PWM1_Start
   802 ;;   _PWM1_Duty
   803 ;;     ___lwtoft
   804 ;;       ___ftpack
   805 ;;       ___fttol (ARG)
   806 ;;         ___ftpack (ARG)
   807 ;;         ___aldiv (ARG)
   808 ;;     ___ftdiv
   809 ;;       ___ftpack
   810 ;;       ___lwtoft (ARG)
   811 ;;         ___ftpack
   812 ;;         ___fttol (ARG)
   813 ;;           ___ftpack (ARG)
   814 ;;           ___aldiv (ARG)
   815 ;;       ___fttol (ARG)
   816 ;;         ___ftpack (ARG)
   817 ;;         ___aldiv (ARG)
   818 ;;     _PWM_Max_Duty
   819 ;;       ___aldiv
   820 ;;       ___fttol (ARG)
   821 ;;         ___ftpack (ARG)
   822 ;;         ___aldiv (ARG)
   823 ;;     ___awtoft
   824 ;;       ___ftpack
   825 ;;       _PWM_Max_Duty (ARG)
   826 ;;         ___aldiv
   827 ;;         ___fttol (ARG)
   828 ;;           ___ftpack (ARG)
   829 ;;           ___aldiv (ARG)
   830 ;;       ___fttol (ARG)
   831 ;;         ___ftpack (ARG)
   832 ;;         ___aldiv (ARG)
   833 ;;     ___ftmul
   834 ;;       ___ftpack
   835 ;;       ___ftdiv (ARG)
   836 ;;         ___ftpack
   837 ;;         ___lwtoft (ARG)
   838 ;;           ___ftpack
   839 ;;           ___fttol (ARG)
   840 ;;             ___ftpack (ARG)
   841 ;;             ___aldiv (ARG)
   842 ;;         ___fttol (ARG)
   843 ;;           ___ftpack (ARG)
   844 ;;           ___aldiv (ARG)
   845 ;;       ___lwtoft (ARG)
   846 ;;         ___ftpack
   847 ;;         ___fttol (ARG)
   848 ;;           ___ftpack (ARG)
   849 ;;           ___aldiv (ARG)
   850 ;;       ___awtoft (ARG)
   851 ;;         ___ftpack
   852 ;;         _PWM_Max_Duty (ARG)
   853 ;;           ___aldiv
   854 ;;           ___fttol (ARG)
   855 ;;             ___ftpack (ARG)
   856 ;;             ___aldiv (ARG)
   857 ;;         ___fttol (ARG)
   858 ;;           ___ftpack (ARG)
   859 ;;           ___aldiv (ARG)
   860 ;;       _PWM_Max_Duty (ARG)
   861 ;;         ___aldiv
   862 ;;         ___fttol (ARG)
   863 ;;           ___ftpack (ARG)
   864 ;;           ___aldiv (ARG)
   865 ;;       ___fttol (ARG)
   866 ;;         ___ftpack (ARG)
   867 ;;         ___aldiv (ARG)
   868 ;;     ___fttol
   869 ;;       ___ftpack (ARG)
   870 ;;       ___aldiv (ARG)
   871 ;;
   872                           
   873 ;; Address spaces:
   874                           
   875 ;;Name               Size   Autos  Total    Cost      Usage
   876 ;;BITCOMMON            E      0       0       0        0.0%
   877 ;;EEDATA             100      0       0       0        0.0%
   878 ;;NULL                 0      0       0       0        0.0%
   879 ;;CODE                 0      0       0       0        0.0%
   880 ;;COMMON               E      E       E       1      100.0%
   881 ;;BITSFR0              0      0       0       1        0.0%
   882 ;;SFR0                 0      0       0       1        0.0%
   883 ;;BITSFR1              0      0       0       2        0.0%
   884 ;;SFR1                 0      0       0       2        0.0%
   885 ;;STACK                0      0       3       2        0.0%
   886 ;;ABS                  0      0      4F       3        0.0%
   887 ;;BITBANK0            50      0       0       4        0.0%
   888 ;;BITSFR3              0      0       0       4        0.0%
   889 ;;SFR3                 0      0       0       4        0.0%
   890 ;;BANK0               50     3A      41       5       81.3%
   891 ;;BITSFR2              0      0       0       5        0.0%
   892 ;;SFR2                 0      0       0       5        0.0%
   893 ;;BITBANK1            50      0       0       6        0.0%
   894 ;;BANK1               50      0       0       7        0.0%
   895 ;;BITBANK3            60      0       0       8        0.0%
   896 ;;BANK3               60      0       0       9        0.0%
   897 ;;BITBANK2            60      0       0      10        0.0%
   898 ;;BANK2               60      0       0      11        0.0%
   899 ;;DATA                 0      0      52      12        0.0%
   900                           
   901                           	global	_main
   902                           psect	maintext,global,class=CODE,delta=2
   903                           global __pmaintext
   904  0613                     __pmaintext:
   905                           
   906 ;; *************** function _main *****************
   907 ;; Defined at:
   908 ;;		line 30 in file "F:\pic projects\solar charge\solar charge.c"
   909 ;; Parameters:    Size  Location     Type
   910 ;;		None
   911 ;; Auto vars:     Size  Location     Type
   912 ;;  panel           1   57[BANK0 ] unsigned char 
   913 ;;  battery         1   56[BANK0 ] unsigned char 
   914 ;; Return value:  Size  Location     Type
   915 ;;		None               void
   916 ;; Registers used:
   917 ;;		wreg, fsr0l, fsr0h, status,2, status,0, pclath, cstack
   918 ;; Tracked objects:
   919 ;;		On entry : 17F/0
   920 ;;		On exit  : 0/0
   921 ;;		Unchanged: 0/0
   922 ;; Data sizes:     COMMON   BANK0   BANK1   BANK3   BANK2
   923 ;;      Params:         0       0       0       0       0
   924 ;;      Locals:         0       2       0       0       0
   925 ;;      Temps:          0       1       0       0       0
   926 ;;      Totals:         0       3       0       0       0
   927 ;;Total ram usage:        3 bytes
   928 ;; Hardware stack levels required when called:    3
   929 ;; This function calls:
   930 ;;		_ADC_Init
   931 ;;		_PWM1_Init
   932 ;;		_lcdcmd
   933 ;;		_delay
   934 ;;		_display
   935 ;;		_ADC_Read
   936 ;;		_adc_to_volt
   937 ;;		_lcddata
   938 ;;		_PWM1_Stop
   939 ;;		_PWM1_Start
   940 ;;		_PWM1_Duty
   941 ;; This function is called by:
   942 ;;		Startup code after reset
   943 ;; This function uses a non-reentrant model
   944 ;;
   945                           psect	maintext
   946                           	file	"F:\pic projects\solar charge\solar charge.c"
   947                           	line	30
   948                           	global	__size_of_main
   949  01ED                     	__size_of_main	equ	__end_of_main-_main
   950                           	
   951  0613                     _main:	
   952                           	opt	stack 5
   953                           ; Regs used in _main: [wreg-fsr0h+status,2+status,0+pclath+cstack]
   954                           	line	32
   955                           	
   956  0613                     l3657:	
   957                           ;solar charge.c: 31: unsigned char panel,battery;
   958                           ;solar charge.c: 32: TRISB=0X00;
   959  0613  1683               	bsf	status, 5	;RP0=1, select bank1
   960  0614  1303               	bcf	status, 6	;RP1=0, select bank1
   961  0615  0186               	clrf	(134)^080h	;volatile
   962                           	line	33
   963                           	
   964  0616                     l3659:	
   965                           ;solar charge.c: 33: TRISD=0x0F;
   966  0616  300F               	movlw	(0Fh)
   967  0617  0088               	movwf	(136)^080h	;volatile
   968                           	line	34
   969                           	
   970  0618                     l3661:	
   971                           ;solar charge.c: 34: TRISC=0X00;
   972  0618  0187               	clrf	(135)^080h	;volatile
   973                           	line	35
   974                           	
   975  0619                     l3663:	
   976                           ;solar charge.c: 35: PORTB=0X00;
   977  0619  1283               	bcf	status, 5	;RP0=0, select bank0
   978  061A  1303               	bcf	status, 6	;RP1=0, select bank0
   979  061B  0186               	clrf	(6)	;volatile
   980                           	line	36
   981                           	
   982  061C                     l3665:	
   983                           ;solar charge.c: 36: ADC_Init();
   984  061C  120A  158A  2617   	fcall	_ADC_Init
              120A  118A         
   985                           	line	37
   986                           	
   987  0621                     l3667:	
   988                           ;solar charge.c: 37: PWM1_Init(5000);
   989  0621  3000               	movlw	0
   990  0622  1283               	bcf	status, 5	;RP0=0, select bank0
   991  0623  1303               	bcf	status, 6	;RP1=0, select bank0
   992  0624  00A9               	movwf	(?_PWM1_Init+3)
   993  0625  3000               	movlw	0
   994  0626  00A8               	movwf	(?_PWM1_Init+2)
   995  0627  3013               	movlw	013h
   996  0628  00A7               	movwf	(?_PWM1_Init+1)
   997  0629  3088               	movlw	088h
   998  062A  00A6               	movwf	(?_PWM1_Init)
   999                           
  1000  062B  120A  158A  277B   	fcall	_PWM1_Init
              120A  118A         
  1001                           	line	38
  1002                           	
  1003  0630                     l3669:	
  1004                           ;solar charge.c: 38: lcdcmd(0x38);
  1005  0630  3038               	movlw	low(038h)
  1006  0631  00F6               	movwf	(?_lcdcmd)
  1007  0632  3000               	movlw	high(038h)
  1008  0633  00F7               	movwf	((?_lcdcmd))+1
  1009  0634  120A  158A  2629   	fcall	_lcdcmd
              120A  118A         
  1010                           	line	39
  1011                           	
  1012  0639                     l3671:	
  1013                           ;solar charge.c: 39: delay(10);
  1014  0639  300A               	movlw	low(0Ah)
  1015  063A  00F0               	movwf	(?_delay)
  1016  063B  3000               	movlw	high(0Ah)
  1017  063C  00F1               	movwf	((?_delay))+1
  1018  063D  120A  158A  26DE   	fcall	_delay
              120A  118A         
  1019                           	line	40
  1020                           	
  1021  0642                     l3673:	
  1022                           ;solar charge.c: 40: lcdcmd(0x0C);
  1023  0642  300C               	movlw	low(0Ch)
  1024  0643  00F6               	movwf	(?_lcdcmd)
  1025  0644  3000               	movlw	high(0Ch)
  1026  0645  00F7               	movwf	((?_lcdcmd))+1
  1027  0646  120A  158A  2629   	fcall	_lcdcmd
              120A  118A         
  1028                           	line	41
  1029                           	
  1030  064B                     l3675:	
  1031                           ;solar charge.c: 41: delay(10);
  1032  064B  300A               	movlw	low(0Ah)
  1033  064C  00F0               	movwf	(?_delay)
  1034  064D  3000               	movlw	high(0Ah)
  1035  064E  00F1               	movwf	((?_delay))+1
  1036  064F  120A  158A  26DE   	fcall	_delay
              120A  118A         
  1037                           	line	42
  1038                           	
  1039  0654                     l3677:	
  1040                           ;solar charge.c: 42: lcdcmd(0x80);
  1041  0654  3080               	movlw	low(080h)
  1042  0655  00F6               	movwf	(?_lcdcmd)
  1043  0656  3000               	movlw	high(080h)
  1044  0657  00F7               	movwf	((?_lcdcmd))+1
  1045  0658  120A  158A  2629   	fcall	_lcdcmd
              120A  118A         
  1046                           	line	43
  1047                           	
  1048  065D                     l3679:	
  1049                           ;solar charge.c: 43: delay(10);
  1050  065D  300A               	movlw	low(0Ah)
  1051  065E  00F0               	movwf	(?_delay)
  1052  065F  3000               	movlw	high(0Ah)
  1053  0660  00F1               	movwf	((?_delay))+1
  1054  0661  120A  158A  26DE   	fcall	_delay
              120A  118A         
  1055                           	line	44
  1056                           	
  1057  0666                     l3681:	
  1058                           ;solar charge.c: 44: lcdcmd(0x01);
  1059  0666  3001               	movlw	low(01h)
  1060  0667  00F6               	movwf	(?_lcdcmd)
  1061  0668  3000               	movlw	high(01h)
  1062  0669  00F7               	movwf	((?_lcdcmd))+1
  1063  066A  120A  158A  2629   	fcall	_lcdcmd
              120A  118A         
  1064                           	line	45
  1065                           	
  1066  066F                     l3683:	
  1067                           ;solar charge.c: 45: delay(10);
  1068  066F  300A               	movlw	low(0Ah)
  1069  0670  00F0               	movwf	(?_delay)
  1070  0671  3000               	movlw	high(0Ah)
  1071  0672  00F1               	movwf	((?_delay))+1
  1072  0673  120A  158A  26DE   	fcall	_delay
              120A  118A         
  1073                           	line	46
  1074                           	
  1075  0678                     l3685:	
  1076                           ;solar charge.c: 46: display("  SOLAR CHARGE  ");
  1077  0678  3023               	movlw	((STR_1-__stringbase))&0ffh
  1078  0679  120A  158A  26AE   	fcall	_display
              120A  118A         
  1079                           	line	48
  1080                           	
  1081  067E                     l3687:	
  1082                           ;solar charge.c: 48: delay(10);
  1083  067E  300A               	movlw	low(0Ah)
  1084  067F  00F0               	movwf	(?_delay)
  1085  0680  3000               	movlw	high(0Ah)
  1086  0681  00F1               	movwf	((?_delay))+1
  1087  0682  120A  158A  26DE   	fcall	_delay
              120A  118A         
  1088                           	line	49
  1089                           	
  1090  0687                     l3689:	
  1091                           ;solar charge.c: 49: lcdcmd(0xC0);
  1092  0687  30C0               	movlw	low(0C0h)
  1093  0688  00F6               	movwf	(?_lcdcmd)
  1094  0689  3000               	movlw	high(0C0h)
  1095  068A  00F7               	movwf	((?_lcdcmd))+1
  1096  068B  120A  158A  2629   	fcall	_lcdcmd
              120A  118A         
  1097                           	line	50
  1098                           	
  1099  0690                     l3691:	
  1100                           ;solar charge.c: 50: display("   CONTROLLER   ");
  1101  0690  3012               	movlw	((STR_2-__stringbase))&0ffh
  1102  0691  120A  158A  26AE   	fcall	_display
              120A  118A         
  1103                           	line	51
  1104                           	
  1105  0696                     l3693:	
  1106                           ;solar charge.c: 51: delay(1500);
  1107  0696  30DC               	movlw	low(05DCh)
  1108  0697  00F0               	movwf	(?_delay)
  1109  0698  3005               	movlw	high(05DCh)
  1110  0699  00F1               	movwf	((?_delay))+1
  1111  069A  120A  158A  26DE   	fcall	_delay
              120A  118A         
  1112  069F  2EA0               	goto	l3695
  1113                           	line	53
  1114                           ;solar charge.c: 53: while(1)
  1115                           	
  1116  06A0                     l711:	
  1117                           	line	57
  1118                           	
  1119  06A0                     l3695:	
  1120                           ;solar charge.c: 54: {
  1121                           ;solar charge.c: 57: panel =ADC_Read(0);
  1122  06A0  3000               	movlw	(0)
  1123  06A1  120A  158A  2742   	fcall	_ADC_Read
              120A  118A         
  1124  06A6  0876               	movf	(0+(?_ADC_Read)),w
  1125  06A7  1283               	bcf	status, 5	;RP0=0, select bank0
  1126  06A8  1303               	bcf	status, 6	;RP1=0, select bank0
  1127  06A9  00D7               	movwf	(??_main+0)+0
  1128  06AA  0857               	movf	(??_main+0)+0,w
  1129  06AB  00D9               	movwf	(main@panel)
  1130                           	line	58
  1131                           	
  1132  06AC                     l3697:	
  1133                           ;solar charge.c: 58: lcdcmd(0x80);
  1134  06AC  3080               	movlw	low(080h)
  1135  06AD  00F6               	movwf	(?_lcdcmd)
  1136  06AE  3000               	movlw	high(080h)
  1137  06AF  00F7               	movwf	((?_lcdcmd))+1
  1138  06B0  120A  158A  2629   	fcall	_lcdcmd
              120A  118A         
  1139                           	line	59
  1140                           	
  1141  06B5                     l3699:	
  1142                           ;solar charge.c: 59: delay(10);
  1143  06B5  300A               	movlw	low(0Ah)
  1144  06B6  00F0               	movwf	(?_delay)
  1145  06B7  3000               	movlw	high(0Ah)
  1146  06B8  00F1               	movwf	((?_delay))+1
  1147  06B9  120A  158A  26DE   	fcall	_delay
              120A  118A         
  1148                           	line	60
  1149                           	
  1150  06BE                     l3701:	
  1151                           ;solar charge.c: 60: display("panel   =");
  1152  06BE  3055               	movlw	((STR_3-__stringbase))&0ffh
  1153  06BF  120A  158A  26AE   	fcall	_display
              120A  118A         
  1154                           	line	61
  1155                           	
  1156  06C4                     l3703:	
  1157                           ;solar charge.c: 61: adc_to_volt(panel);
  1158  06C4  1283               	bcf	status, 5	;RP0=0, select bank0
  1159  06C5  1303               	bcf	status, 6	;RP1=0, select bank0
  1160  06C6  0859               	movf	(main@panel),w
  1161  06C7  120A  118A  24D2   	fcall	_adc_to_volt
              120A  118A         
  1162                           	line	62
  1163                           	
  1164  06CC                     l3705:	
  1165                           ;solar charge.c: 62: lcddata('V');
  1166  06CC  3056               	movlw	low(056h)
  1167  06CD  00F6               	movwf	(?_lcddata)
  1168  06CE  3000               	movlw	high(056h)
  1169  06CF  00F7               	movwf	((?_lcddata))+1
  1170  06D0  120A  118A  2072   	fcall	_lcddata
              120A  118A         
  1171                           	line	64
  1172                           	
  1173  06D5                     l3707:	
  1174                           ;solar charge.c: 64: PWM1_Stop();
  1175  06D5  120A  158A  260B   	fcall	_PWM1_Stop
              120A  118A         
  1176                           	line	65
  1177                           	
  1178  06DA                     l3709:	
  1179                           ;solar charge.c: 65: RC2=0;
  1180  06DA  1283               	bcf	status, 5	;RP0=0, select bank0
  1181  06DB  1303               	bcf	status, 6	;RP1=0, select bank0
  1182  06DC  1107               	bcf	(58/8),(58)&7
  1183                           	line	66
  1184                           	
  1185  06DD                     l3711:	
  1186                           ;solar charge.c: 66: delay(2500);
  1187  06DD  30C4               	movlw	low(09C4h)
  1188  06DE  00F0               	movwf	(?_delay)
  1189  06DF  3009               	movlw	high(09C4h)
  1190  06E0  00F1               	movwf	((?_delay))+1
  1191  06E1  120A  158A  26DE   	fcall	_delay
              120A  118A         
  1192                           	line	67
  1193                           	
  1194  06E6                     l3713:	
  1195                           ;solar charge.c: 67: battery =ADC_Read(1);
  1196  06E6  3001               	movlw	(01h)
  1197  06E7  120A  158A  2742   	fcall	_ADC_Read
              120A  118A         
  1198  06EC  0876               	movf	(0+(?_ADC_Read)),w
  1199  06ED  1283               	bcf	status, 5	;RP0=0, select bank0
  1200  06EE  1303               	bcf	status, 6	;RP1=0, select bank0
  1201  06EF  00D7               	movwf	(??_main+0)+0
  1202  06F0  0857               	movf	(??_main+0)+0,w
  1203  06F1  00D8               	movwf	(main@battery)
  1204                           	line	68
  1205                           	
  1206  06F2                     l3715:	
  1207                           ;solar charge.c: 68: lcdcmd(0x80);
  1208  06F2  3080               	movlw	low(080h)
  1209  06F3  00F6               	movwf	(?_lcdcmd)
  1210  06F4  3000               	movlw	high(080h)
  1211  06F5  00F7               	movwf	((?_lcdcmd))+1
  1212  06F6  120A  158A  2629   	fcall	_lcdcmd
              120A  118A         
  1213                           	line	69
  1214                           	
  1215  06FB                     l3717:	
  1216                           ;solar charge.c: 69: delay(10);
  1217  06FB  300A               	movlw	low(0Ah)
  1218  06FC  00F0               	movwf	(?_delay)
  1219  06FD  3000               	movlw	high(0Ah)
  1220  06FE  00F1               	movwf	((?_delay))+1
  1221  06FF  120A  158A  26DE   	fcall	_delay
              120A  118A         
  1222                           	line	70
  1223                           	
  1224  0704                     l3719:	
  1225                           ;solar charge.c: 70: display("battery =");
  1226  0704  305F               	movlw	((STR_4-__stringbase))&0ffh
  1227  0705  120A  158A  26AE   	fcall	_display
              120A  118A         
  1228                           	line	71
  1229                           	
  1230  070A                     l3721:	
  1231                           ;solar charge.c: 71: adc_to_volt(battery);
  1232  070A  1283               	bcf	status, 5	;RP0=0, select bank0
  1233  070B  1303               	bcf	status, 6	;RP1=0, select bank0
  1234  070C  0858               	movf	(main@battery),w
  1235  070D  120A  118A  24D2   	fcall	_adc_to_volt
              120A  118A         
  1236                           	line	72
  1237                           	
  1238  0712                     l3723:	
  1239                           ;solar charge.c: 72: lcddata('V');
  1240  0712  3056               	movlw	low(056h)
  1241  0713  00F6               	movwf	(?_lcddata)
  1242  0714  3000               	movlw	high(056h)
  1243  0715  00F7               	movwf	((?_lcddata))+1
  1244  0716  120A  118A  2072   	fcall	_lcddata
              120A  118A         
  1245                           	line	74
  1246                           	
  1247  071B                     l3725:	
  1248                           ;solar charge.c: 74: if(battery<=100)
  1249  071B  3065               	movlw	(065h)
  1250  071C  1283               	bcf	status, 5	;RP0=0, select bank0
  1251  071D  1303               	bcf	status, 6	;RP1=0, select bank0
  1252  071E  0258               	subwf	(main@battery),w
  1253  071F  1803               	skipnc
  1254  0720  2F22               	goto	u3621
  1255  0721  2F23               	goto	u3620
  1256  0722                     u3621:
  1257  0722  2F44               	goto	l3735
  1258  0723                     u3620:
  1259                           	line	76
  1260                           	
  1261  0723                     l3727:	
  1262                           ;solar charge.c: 75: {
  1263                           ;solar charge.c: 76: lcdcmd(0xC0);
  1264  0723  30C0               	movlw	low(0C0h)
  1265  0724  00F6               	movwf	(?_lcdcmd)
  1266  0725  3000               	movlw	high(0C0h)
  1267  0726  00F7               	movwf	((?_lcdcmd))+1
  1268  0727  120A  158A  2629   	fcall	_lcdcmd
              120A  118A         
  1269                           	line	77
  1270                           ;solar charge.c: 77: delay(1);
  1271  072C  3001               	movlw	low(01h)
  1272  072D  00F0               	movwf	(?_delay)
  1273  072E  3000               	movlw	high(01h)
  1274  072F  00F1               	movwf	((?_delay))+1
  1275  0730  120A  158A  26DE   	fcall	_delay
              120A  118A         
  1276                           	line	78
  1277                           	
  1278  0735                     l3729:	
  1279                           ;solar charge.c: 78: display("**Battery low**");
  1280  0735  3045               	movlw	((STR_5-__stringbase))&0ffh
  1281  0736  120A  158A  26AE   	fcall	_display
              120A  118A         
  1282                           	line	79
  1283                           	
  1284  073B                     l3731:	
  1285                           ;solar charge.c: 79: PWM1_Start();
  1286  073B  120A  158A  2620   	fcall	_PWM1_Start
              120A  118A         
  1287                           	line	80
  1288                           	
  1289  0740                     l3733:	
  1290                           ;solar charge.c: 80: RC4=0;
  1291  0740  1283               	bcf	status, 5	;RP0=0, select bank0
  1292  0741  1303               	bcf	status, 6	;RP1=0, select bank0
  1293  0742  1207               	bcf	(60/8),(60)&7
  1294  0743  2F44               	goto	l3735
  1295                           	line	81
  1296                           	
  1297  0744                     l712:	
  1298                           	line	82
  1299                           	
  1300  0744                     l3735:	
  1301                           ;solar charge.c: 81: }
  1302                           ;solar charge.c: 82: if(battery>100 && battery<135 )
  1303  0744  3065               	movlw	(065h)
  1304  0745  0258               	subwf	(main@battery),w
  1305  0746  1C03               	skipc
  1306  0747  2F49               	goto	u3631
  1307  0748  2F4A               	goto	u3630
  1308  0749                     u3631:
  1309  0749  2F71               	goto	l3747
  1310  074A                     u3630:
  1311                           	
  1312  074A                     l3737:	
  1313  074A  3087               	movlw	(087h)
  1314  074B  0258               	subwf	(main@battery),w
  1315  074C  1803               	skipnc
  1316  074D  2F4F               	goto	u3641
  1317  074E  2F50               	goto	u3640
  1318  074F                     u3641:
  1319  074F  2F71               	goto	l3747
  1320  0750                     u3640:
  1321                           	line	84
  1322                           	
  1323  0750                     l3739:	
  1324                           ;solar charge.c: 83: {
  1325                           ;solar charge.c: 84: lcdcmd(0xC0);
  1326  0750  30C0               	movlw	low(0C0h)
  1327  0751  00F6               	movwf	(?_lcdcmd)
  1328  0752  3000               	movlw	high(0C0h)
  1329  0753  00F7               	movwf	((?_lcdcmd))+1
  1330  0754  120A  158A  2629   	fcall	_lcdcmd
              120A  118A         
  1331                           	line	85
  1332                           ;solar charge.c: 85: delay(1);
  1333  0759  3001               	movlw	low(01h)
  1334  075A  00F0               	movwf	(?_delay)
  1335  075B  3000               	movlw	high(01h)
  1336  075C  00F1               	movwf	((?_delay))+1
  1337  075D  120A  158A  26DE   	fcall	_delay
              120A  118A         
  1338                           	line	86
  1339                           	
  1340  0762                     l3741:	
  1341                           ;solar charge.c: 86: display("                ");
  1342  0762  3001               	movlw	((STR_6-__stringbase))&0ffh
  1343  0763  120A  158A  26AE   	fcall	_display
              120A  118A         
  1344                           	line	87
  1345                           	
  1346  0768                     l3743:	
  1347                           ;solar charge.c: 87: PWM1_Start();
  1348  0768  120A  158A  2620   	fcall	_PWM1_Start
              120A  118A         
  1349                           	line	88
  1350                           	
  1351  076D                     l3745:	
  1352                           ;solar charge.c: 88: RC4=1;
  1353  076D  1283               	bcf	status, 5	;RP0=0, select bank0
  1354  076E  1303               	bcf	status, 6	;RP1=0, select bank0
  1355  076F  1607               	bsf	(60/8),(60)&7
  1356  0770  2F71               	goto	l3747
  1357                           	line	89
  1358                           	
  1359  0771                     l713:	
  1360                           	line	91
  1361                           	
  1362  0771                     l3747:	
  1363                           ;solar charge.c: 89: }
  1364                           ;solar charge.c: 91: if(battery>=135 )
  1365  0771  3087               	movlw	(087h)
  1366  0772  0258               	subwf	(main@battery),w
  1367  0773  1C03               	skipc
  1368  0774  2F76               	goto	u3651
  1369  0775  2F77               	goto	u3650
  1370  0776                     u3651:
  1371  0776  2F99               	goto	l3759
  1372  0777                     u3650:
  1373                           	line	93
  1374                           	
  1375  0777                     l3749:	
  1376                           ;solar charge.c: 92: {
  1377                           ;solar charge.c: 93: lcdcmd(0xC0);
  1378  0777  30C0               	movlw	low(0C0h)
  1379  0778  00F6               	movwf	(?_lcdcmd)
  1380  0779  3000               	movlw	high(0C0h)
  1381  077A  00F7               	movwf	((?_lcdcmd))+1
  1382  077B  120A  158A  2629   	fcall	_lcdcmd
              120A  118A         
  1383                           	line	94
  1384                           ;solar charge.c: 94: delay(1);
  1385  0780  3001               	movlw	low(01h)
  1386  0781  00F0               	movwf	(?_delay)
  1387  0782  3000               	movlw	high(01h)
  1388  0783  00F1               	movwf	((?_delay))+1
  1389  0784  120A  158A  26DE   	fcall	_delay
              120A  118A         
  1390                           	line	95
  1391                           	
  1392  0789                     l3751:	
  1393                           ;solar charge.c: 95: display("  battery full  ");
  1394  0789  3034               	movlw	((STR_7-__stringbase))&0ffh
  1395  078A  120A  158A  26AE   	fcall	_display
              120A  118A         
  1396                           	line	96
  1397                           	
  1398  078F                     l3753:	
  1399                           ;solar charge.c: 96: PWM1_Stop();
  1400  078F  120A  158A  260B   	fcall	_PWM1_Stop
              120A  118A         
  1401                           	line	97
  1402                           	
  1403  0794                     l3755:	
  1404                           ;solar charge.c: 97: RC2=0;
  1405  0794  1283               	bcf	status, 5	;RP0=0, select bank0
  1406  0795  1303               	bcf	status, 6	;RP1=0, select bank0
  1407  0796  1107               	bcf	(58/8),(58)&7
  1408                           	line	98
  1409                           	
  1410  0797                     l3757:	
  1411                           ;solar charge.c: 98: RC4=1;
  1412  0797  1607               	bsf	(60/8),(60)&7
  1413  0798  2F99               	goto	l3759
  1414                           	line	99
  1415                           	
  1416  0799                     l714:	
  1417                           	line	105
  1418                           	
  1419  0799                     l3759:	
  1420                           ;solar charge.c: 99: }
  1421                           ;solar charge.c: 105: if(panel<130)
  1422  0799  3082               	movlw	(082h)
  1423  079A  0259               	subwf	(main@panel),w
  1424  079B  1803               	skipnc
  1425  079C  2F9E               	goto	u3661
  1426  079D  2F9F               	goto	u3660
  1427  079E                     u3661:
  1428  079E  2FA9               	goto	l3763
  1429  079F                     u3660:
  1430                           	line	107
  1431                           	
  1432  079F                     l3761:	
  1433                           ;solar charge.c: 106: {
  1434                           ;solar charge.c: 107: PWM1_Duty(1022);
  1435  079F  30FE               	movlw	low(03FEh)
  1436  07A0  00D3               	movwf	(?_PWM1_Duty)
  1437  07A1  3003               	movlw	high(03FEh)
  1438  07A2  00D4               	movwf	((?_PWM1_Duty))+1
  1439  07A3  120A  118A  214F   	fcall	_PWM1_Duty
              120A  118A         
  1440  07A8  2FA9               	goto	l3763
  1441                           	line	108
  1442                           	
  1443  07A9                     l715:	
  1444                           	line	109
  1445                           	
  1446  07A9                     l3763:	
  1447                           ;solar charge.c: 108: }
  1448                           ;solar charge.c: 109: if(panel<145 && panel>=130)
  1449  07A9  3091               	movlw	(091h)
  1450  07AA  1283               	bcf	status, 5	;RP0=0, select bank0
  1451  07AB  1303               	bcf	status, 6	;RP1=0, select bank0
  1452  07AC  0259               	subwf	(main@panel),w
  1453  07AD  1803               	skipnc
  1454  07AE  2FB0               	goto	u3671
  1455  07AF  2FB1               	goto	u3670
  1456  07B0                     u3671:
  1457  07B0  2FC1               	goto	l3769
  1458  07B1                     u3670:
  1459                           	
  1460  07B1                     l3765:	
  1461  07B1  3082               	movlw	(082h)
  1462  07B2  0259               	subwf	(main@panel),w
  1463  07B3  1C03               	skipc
  1464  07B4  2FB6               	goto	u3681
  1465  07B5  2FB7               	goto	u3680
  1466  07B6                     u3681:
  1467  07B6  2FC1               	goto	l3769
  1468  07B7                     u3680:
  1469                           	line	111
  1470                           	
  1471  07B7                     l3767:	
  1472                           ;solar charge.c: 110: {
  1473                           ;solar charge.c: 111: PWM1_Duty(950);
  1474  07B7  30B6               	movlw	low(03B6h)
  1475  07B8  00D3               	movwf	(?_PWM1_Duty)
  1476  07B9  3003               	movlw	high(03B6h)
  1477  07BA  00D4               	movwf	((?_PWM1_Duty))+1
  1478  07BB  120A  118A  214F   	fcall	_PWM1_Duty
              120A  118A         
  1479  07C0  2FC1               	goto	l3769
  1480                           	line	112
  1481                           	
  1482  07C1                     l716:	
  1483                           	line	113
  1484                           	
  1485  07C1                     l3769:	
  1486                           ;solar charge.c: 112: }
  1487                           ;solar charge.c: 113: if(panel<180 && panel>=145)
  1488  07C1  30B4               	movlw	(0B4h)
  1489  07C2  1283               	bcf	status, 5	;RP0=0, select bank0
  1490  07C3  1303               	bcf	status, 6	;RP1=0, select bank0
  1491  07C4  0259               	subwf	(main@panel),w
  1492  07C5  1803               	skipnc
  1493  07C6  2FC8               	goto	u3691
  1494  07C7  2FC9               	goto	u3690
  1495  07C8                     u3691:
  1496  07C8  2FD8               	goto	l717
  1497  07C9                     u3690:
  1498                           	
  1499  07C9                     l3771:	
  1500  07C9  3091               	movlw	(091h)
  1501  07CA  0259               	subwf	(main@panel),w
  1502  07CB  1C03               	skipc
  1503  07CC  2FCE               	goto	u3701
  1504  07CD  2FCF               	goto	u3700
  1505  07CE                     u3701:
  1506  07CE  2FD8               	goto	l717
  1507  07CF                     u3700:
  1508                           	line	115
  1509                           	
  1510  07CF                     l3773:	
  1511                           ;solar charge.c: 114: {
  1512                           ;solar charge.c: 115: PWM1_Duty(800);
  1513  07CF  3020               	movlw	low(0320h)
  1514  07D0  00D3               	movwf	(?_PWM1_Duty)
  1515  07D1  3003               	movlw	high(0320h)
  1516  07D2  00D4               	movwf	((?_PWM1_Duty))+1
  1517  07D3  120A  118A  214F   	fcall	_PWM1_Duty
              120A  118A         
  1518                           	line	116
  1519                           	
  1520  07D8                     l717:	
  1521                           	line	117
  1522                           ;solar charge.c: 116: }
  1523                           ;solar charge.c: 117: delay(2500);
  1524  07D8  30C4               	movlw	low(09C4h)
  1525  07D9  00F0               	movwf	(?_delay)
  1526  07DA  3009               	movlw	high(09C4h)
  1527  07DB  00F1               	movwf	((?_delay))+1
  1528  07DC  120A  158A  26DE   	fcall	_delay
              120A  118A         
  1529                           	line	118
  1530                           	
  1531  07E1                     l3775:	
  1532                           ;solar charge.c: 118: if(panel>180 )
  1533  07E1  30B5               	movlw	(0B5h)
  1534  07E2  1283               	bcf	status, 5	;RP0=0, select bank0
  1535  07E3  1303               	bcf	status, 6	;RP1=0, select bank0
  1536  07E4  0259               	subwf	(main@panel),w
  1537  07E5  1C03               	skipc
  1538  07E6  2FE8               	goto	u3711
  1539  07E7  2FE9               	goto	u3710
  1540  07E8                     u3711:
  1541  07E8  2FF2               	goto	l718
  1542  07E9                     u3710:
  1543                           	line	120
  1544                           	
  1545  07E9                     l3777:	
  1546                           ;solar charge.c: 119: {
  1547                           ;solar charge.c: 120: PWM1_Duty(600);
  1548  07E9  3058               	movlw	low(0258h)
  1549  07EA  00D3               	movwf	(?_PWM1_Duty)
  1550  07EB  3002               	movlw	high(0258h)
  1551  07EC  00D4               	movwf	((?_PWM1_Duty))+1
  1552  07ED  120A  118A  214F   	fcall	_PWM1_Duty
              120A  118A         
  1553                           	line	121
  1554                           	
  1555  07F2                     l718:	
  1556                           	line	122
  1557                           ;solar charge.c: 121: }
  1558                           ;solar charge.c: 122: delay(2500);
  1559  07F2  30C4               	movlw	low(09C4h)
  1560  07F3  00F0               	movwf	(?_delay)
  1561  07F4  3009               	movlw	high(09C4h)
  1562  07F5  00F1               	movwf	((?_delay))+1
  1563  07F6  120A  158A  26DE   	fcall	_delay
              120A  118A         
  1564  07FB  2EA0               	goto	l3695
  1565                           	line	123
  1566                           	
  1567  07FC                     l719:	
  1568                           	line	53
  1569  07FC  2EA0               	goto	l3695
  1570                           	
  1571  07FD                     l720:	
  1572                           	line	125
  1573                           	
  1574  07FD                     l721:	
  1575                           	global	start
  1576  07FD  120A  118A  2800   	ljmp	start
  1577                           	opt stack 0
  1578                           GLOBAL	__end_of_main
  1579  0800                     	__end_of_main:
  1580 ;; =============== function _main ends ============
  1581                           
  1582                           	signat	_main,88
  1583                           	global	_PWM1_Duty
  1584                           psect	text519,local,class=CODE,delta=2
  1585                           global __ptext519
  1586  014F                     __ptext519:
  1587                           
  1588 ;; *************** function _PWM1_Duty *****************
  1589 ;; Defined at:
  1590 ;;		line 239 in file "F:\pic projects\solar charge\solar charge.c"
  1591 ;; Parameters:    Size  Location     Type
  1592 ;;  duty            2   51[BANK0 ] unsigned int 
  1593 ;; Auto vars:     Size  Location     Type
  1594 ;;		None
  1595 ;; Return value:  Size  Location     Type
  1596 ;;                  2   51[BANK0 ] int 
  1597 ;; Registers used:
  1598 ;;		wreg, status,2, status,0, pclath, cstack
  1599 ;; Tracked objects:
  1600 ;;		On entry : 0/0
  1601 ;;		On exit  : 0/0
  1602 ;;		Unchanged: 0/0
  1603 ;; Data sizes:     COMMON   BANK0   BANK1   BANK3   BANK2
  1604 ;;      Params:         0       2       0       0       0
  1605 ;;      Locals:         0       0       0       0       0
  1606 ;;      Temps:          0       2       0       0       0
  1607 ;;      Totals:         0       4       0       0       0
  1608 ;;Total ram usage:        4 bytes
  1609 ;; Hardware stack levels used:    1
  1610 ;; Hardware stack levels required when called:    2
  1611 ;; This function calls:
  1612 ;;		___lwtoft
  1613 ;;		___ftdiv
  1614 ;;		_PWM_Max_Duty
  1615 ;;		___awtoft
  1616 ;;		___ftmul
  1617 ;;		___fttol
  1618 ;; This function is called by:
  1619 ;;		_main
  1620 ;; This function uses a non-reentrant model
  1621 ;;
  1622                           psect	text519
  1623                           	file	"F:\pic projects\solar charge\solar charge.c"
  1624                           	line	239
  1625                           	global	__size_of_PWM1_Duty
  1626  007F                     	__size_of_PWM1_Duty	equ	__end_of_PWM1_Duty-_PWM1_Duty
  1627                           	
  1628  014F                     _PWM1_Duty:	
  1629                           	opt	stack 5
  1630                           ; Regs used in _PWM1_Duty: [wreg+status,2+status,0+pclath+cstack]
  1631                           	line	240
  1632                           	
  1633  014F                     l3647:	
  1634                           ;solar charge.c: 240: if(duty<1024)
  1635  014F  3004               	movlw	high(0400h)
  1636  0150  1283               	bcf	status, 5	;RP0=0, select bank0
  1637  0151  1303               	bcf	status, 6	;RP1=0, select bank0
  1638  0152  0254               	subwf	(PWM1_Duty@duty+1),w
  1639  0153  3000               	movlw	low(0400h)
  1640  0154  1903               	skipnz
  1641  0155  0253               	subwf	(PWM1_Duty@duty),w
  1642  0156  1803               	skipnc
  1643  0157  2959               	goto	u3581
  1644  0158  295A               	goto	u3580
  1645  0159                     u3581:
  1646  0159  29CD               	goto	l764
  1647  015A                     u3580:
  1648                           	line	242
  1649                           	
  1650  015A                     l3649:	
  1651                           ;solar charge.c: 241: {
  1652                           ;solar charge.c: 242: duty = ((float)duty/1023)*PWM_Max_Duty();
  1653  015A  0854               	movf	(PWM1_Duty@duty+1),w
  1654  015B  01B1               	clrf	(?___lwtoft+1)
  1655  015C  07B1               	addwf	(?___lwtoft+1)
  1656  015D  0853               	movf	(PWM1_Duty@duty),w
  1657  015E  01B0               	clrf	(?___lwtoft)
  1658  015F  07B0               	addwf	(?___lwtoft)
  1659                           
  1660  0160  120A  158A  263D   	fcall	___lwtoft
              120A  118A         
  1661  0165  1283               	bcf	status, 5	;RP0=0, select bank0
  1662  0166  1303               	bcf	status, 6	;RP1=0, select bank0
  1663  0167  0830               	movf	(0+(?___lwtoft)),w
  1664  0168  00B6               	movwf	0+(?___ftdiv)+03h
  1665  0169  0831               	movf	(1+(?___lwtoft)),w
  1666  016A  00B7               	movwf	1+(?___ftdiv)+03h
  1667  016B  0832               	movf	(2+(?___lwtoft)),w
  1668  016C  00B8               	movwf	2+(?___ftdiv)+03h
  1669  016D  30C0               	movlw	0xc0
  1670  016E  00B3               	movwf	(?___ftdiv)
  1671  016F  307F               	movlw	0x7f
  1672  0170  00B4               	movwf	(?___ftdiv+1)
  1673  0171  3044               	movlw	0x44
  1674  0172  00B5               	movwf	(?___ftdiv+2)
  1675  0173  120A  118A  231C   	fcall	___ftdiv
              120A  118A         
  1676  0178  1283               	bcf	status, 5	;RP0=0, select bank0
  1677  0179  1303               	bcf	status, 6	;RP1=0, select bank0
  1678  017A  0833               	movf	(0+(?___ftdiv)),w
  1679  017B  00C6               	movwf	0+(?___ftmul)+03h
  1680  017C  0834               	movf	(1+(?___ftdiv)),w
  1681  017D  00C7               	movwf	1+(?___ftmul)+03h
  1682  017E  0835               	movf	(2+(?___ftdiv)),w
  1683  017F  00C8               	movwf	2+(?___ftmul)+03h
  1684  0180  120A  158A  2710   	fcall	_PWM_Max_Duty
              120A  118A         
  1685  0185  1283               	bcf	status, 5	;RP0=0, select bank0
  1686  0186  1303               	bcf	status, 6	;RP1=0, select bank0
  1687  0187  0831               	movf	(1+(?_PWM_Max_Duty)),w
  1688  0188  01B7               	clrf	(?___awtoft+1)
  1689  0189  07B7               	addwf	(?___awtoft+1)
  1690  018A  0830               	movf	(0+(?_PWM_Max_Duty)),w
  1691  018B  01B6               	clrf	(?___awtoft)
  1692  018C  07B6               	addwf	(?___awtoft)
  1693                           
  1694  018D  120A  158A  2682   	fcall	___awtoft
              120A  118A         
  1695  0192  1283               	bcf	status, 5	;RP0=0, select bank0
  1696  0193  1303               	bcf	status, 6	;RP1=0, select bank0
  1697  0194  0836               	movf	(0+(?___awtoft)),w
  1698  0195  00C3               	movwf	(?___ftmul)
  1699  0196  0837               	movf	(1+(?___awtoft)),w
  1700  0197  00C4               	movwf	(?___ftmul+1)
  1701  0198  0838               	movf	(2+(?___awtoft)),w
  1702  0199  00C5               	movwf	(?___ftmul+2)
  1703  019A  120A  118A  23E4   	fcall	___ftmul
              120A  118A         
  1704  019F  1283               	bcf	status, 5	;RP0=0, select bank0
  1705  01A0  1303               	bcf	status, 6	;RP1=0, select bank0
  1706  01A1  0843               	movf	(0+(?___ftmul)),w
  1707  01A2  00A6               	movwf	(?___fttol)
  1708  01A3  0844               	movf	(1+(?___ftmul)),w
  1709  01A4  00A7               	movwf	(?___fttol+1)
  1710  01A5  0845               	movf	(2+(?___ftmul)),w
  1711  01A6  00A8               	movwf	(?___fttol+2)
  1712  01A7  120A  118A  21CE   	fcall	___fttol
              120A  118A         
  1713  01AC  1283               	bcf	status, 5	;RP0=0, select bank0
  1714  01AD  1303               	bcf	status, 6	;RP1=0, select bank0
  1715  01AE  0827               	movf	1+(((0+(?___fttol)))),w
  1716  01AF  01D4               	clrf	(PWM1_Duty@duty+1)
  1717  01B0  07D4               	addwf	(PWM1_Duty@duty+1)
  1718  01B1  0826               	movf	0+(((0+(?___fttol)))),w
  1719  01B2  01D3               	clrf	(PWM1_Duty@duty)
  1720  01B3  07D3               	addwf	(PWM1_Duty@duty)
  1721                           
  1722                           	line	243
  1723                           	
  1724  01B4                     l3651:	
  1725                           ;solar charge.c: 243: CCP1X = duty & 2;
  1726  01B4  1297               	bcf	(189/8),(189)&7
  1727                           	line	244
  1728                           	
  1729  01B5                     l3653:	
  1730                           ;solar charge.c: 244: CCP1Y = duty & 1;
  1731  01B5  1853               	btfsc	(PWM1_Duty@duty),0
  1732  01B6  29B8               	goto	u3591
  1733  01B7  29BC               	goto	u3590
  1734                           	
  1735  01B8                     u3591:
  1736  01B8  1283               	bcf	status, 5	;RP0=0, select bank0
  1737  01B9  1303               	bcf	status, 6	;RP1=0, select bank0
  1738  01BA  1617               	bsf	(188/8),(188)&7
  1739  01BB  29BF               	goto	u3604
  1740  01BC                     u3590:
  1741  01BC  1283               	bcf	status, 5	;RP0=0, select bank0
  1742  01BD  1303               	bcf	status, 6	;RP1=0, select bank0
  1743  01BE  1217               	bcf	(188/8),(188)&7
  1744  01BF                     u3604:
  1745                           	line	245
  1746                           	
  1747  01BF                     l3655:	
  1748                           ;solar charge.c: 245: CCPR1L = duty>>2;
  1749  01BF  0854               	movf	(PWM1_Duty@duty+1),w
  1750  01C0  00D6               	movwf	(??_PWM1_Duty+0)+0+1
  1751  01C1  0853               	movf	(PWM1_Duty@duty),w
  1752  01C2  00D5               	movwf	(??_PWM1_Duty+0)+0
  1753  01C3  3002               	movlw	02h
  1754  01C4                     u3615:
  1755  01C4  1003               	clrc
  1756  01C5  0CD6               	rrf	(??_PWM1_Duty+0)+1,f
  1757  01C6  0CD5               	rrf	(??_PWM1_Duty+0)+0,f
  1758  01C7  3EFF               	addlw	-1
  1759  01C8  1D03               	skipz
  1760  01C9  29C4               	goto	u3615
  1761  01CA  0855               	movf	0+(??_PWM1_Duty+0)+0,w
  1762  01CB  0095               	movwf	(21)	;volatile
  1763  01CC  29CD               	goto	l764
  1764                           	line	246
  1765                           	
  1766  01CD                     l763:	
  1767                           	line	247
  1768                           	
  1769  01CD                     l764:	
  1770  01CD  0008               	return
  1771                           	opt stack 0
  1772                           GLOBAL	__end_of_PWM1_Duty
  1773  01CE                     	__end_of_PWM1_Duty:
  1774 ;; =============== function _PWM1_Duty ends ============
  1775                           
  1776                           	signat	_PWM1_Duty,4218
  1777                           	global	_adc_to_volt
  1778                           psect	text520,local,class=CODE,delta=2
  1779                           global __ptext520
  1780  04D2                     __ptext520:
  1781                           
  1782 ;; *************** function _adc_to_volt *****************
  1783 ;; Defined at:
  1784 ;;		line 199 in file "F:\pic projects\solar charge\solar charge.c"
  1785 ;; Parameters:    Size  Location     Type
  1786 ;;  ad_value        1    wreg     unsigned char 
  1787 ;; Auto vars:     Size  Location     Type
  1788 ;;  ad_value        1    0[BANK0 ] unsigned char 
  1789 ;;  voltage         2    3[BANK0 ] unsigned int 
  1790 ;;  volt2           2    1[BANK0 ] unsigned int 
  1791 ;; Return value:  Size  Location     Type
  1792 ;;		None               void
  1793 ;; Registers used:
  1794 ;;		wreg, status,2, status,0, pclath, cstack
  1795 ;; Tracked objects:
  1796 ;;		On entry : 0/0
  1797 ;;		On exit  : 0/0
  1798 ;;		Unchanged: 0/0
  1799 ;; Data sizes:     COMMON   BANK0   BANK1   BANK3   BANK2
  1800 ;;      Params:         0       0       0       0       0
  1801 ;;      Locals:         0       5       0       0       0
  1802 ;;      Temps:          2       0       0       0       0
  1803 ;;      Totals:         2       5       0       0       0
  1804 ;;Total ram usage:        7 bytes
  1805 ;; Hardware stack levels used:    1
  1806 ;; Hardware stack levels required when called:    2
  1807 ;; This function calls:
  1808 ;;		___wmul
  1809 ;;		___lwdiv
  1810 ;;		_lcdcmd
  1811 ;;		_delay
  1812 ;;		_lcddata
  1813 ;;		___lwmod
  1814 ;; This function is called by:
  1815 ;;		_main
  1816 ;; This function uses a non-reentrant model
  1817 ;;
  1818                           psect	text520
  1819                           	file	"F:\pic projects\solar charge\solar charge.c"
  1820                           	line	199
  1821                           	global	__size_of_adc_to_volt
  1822  0141                     	__size_of_adc_to_volt	equ	__end_of_adc_to_volt-_adc_to_volt
  1823                           	
  1824  04D2                     _adc_to_volt:	
  1825                           	opt	stack 5
  1826                           ; Regs used in _adc_to_volt: [wreg+status,2+status,0+pclath+cstack]
  1827                           ;adc_to_volt@ad_value stored from wreg
  1828                           	line	201
  1829  04D2  1283               	bcf	status, 5	;RP0=0, select bank0
  1830  04D3  1303               	bcf	status, 6	;RP1=0, select bank0
  1831  04D4  00A0               	movwf	(adc_to_volt@ad_value)
  1832                           	
  1833  04D5                     l3645:	
  1834                           ;solar charge.c: 200: unsigned int voltage,volt2;
  1835                           ;solar charge.c: 201: voltage = ad_value * 60;
  1836  04D5  0820               	movf	(adc_to_volt@ad_value),w
  1837  04D6  00F8               	movwf	(??_adc_to_volt+0)+0
  1838  04D7  01F9               	clrf	(??_adc_to_volt+0)+0+1
  1839  04D8  0878               	movf	0+(??_adc_to_volt+0)+0,w
  1840  04D9  00F0               	movwf	(?___wmul)
  1841  04DA  0879               	movf	1+(??_adc_to_volt+0)+0,w
  1842  04DB  00F1               	movwf	(?___wmul+1)
  1843  04DC  303C               	movlw	low(03Ch)
  1844  04DD  00F2               	movwf	0+(?___wmul)+02h
  1845  04DE  3000               	movlw	high(03Ch)
  1846  04DF  00F3               	movwf	(0+(?___wmul)+02h)+1
  1847  04E0  120A  158A  2658   	fcall	___wmul
              120A  118A         
  1848  04E5  0871               	movf	(1+(?___wmul)),w
  1849  04E6  1283               	bcf	status, 5	;RP0=0, select bank0
  1850  04E7  1303               	bcf	status, 6	;RP1=0, select bank0
  1851  04E8  01A4               	clrf	(adc_to_volt@voltage+1)
  1852  04E9  07A4               	addwf	(adc_to_volt@voltage+1)
  1853  04EA  0870               	movf	(0+(?___wmul)),w
  1854  04EB  01A3               	clrf	(adc_to_volt@voltage)
  1855  04EC  07A3               	addwf	(adc_to_volt@voltage)
  1856                           
  1857                           	line	202
  1858                           ;solar charge.c: 202: volt2 =voltage/10000;
  1859  04ED  3010               	movlw	low(02710h)
  1860  04EE  00F0               	movwf	(?___lwdiv)
  1861  04EF  3027               	movlw	high(02710h)
  1862  04F0  00F1               	movwf	((?___lwdiv))+1
  1863  04F1  0824               	movf	(adc_to_volt@voltage+1),w
  1864  04F2  01F3               	clrf	1+(?___lwdiv)+02h
  1865  04F3  07F3               	addwf	1+(?___lwdiv)+02h
  1866  04F4  0823               	movf	(adc_to_volt@voltage),w
  1867  04F5  01F2               	clrf	0+(?___lwdiv)+02h
  1868  04F6  07F2               	addwf	0+(?___lwdiv)+02h
  1869                           
  1870  04F7  120A  118A  2086   	fcall	___lwdiv
              120A  118A         
  1871  04FC  0871               	movf	(1+(?___lwdiv)),w
  1872  04FD  1283               	bcf	status, 5	;RP0=0, select bank0
  1873  04FE  1303               	bcf	status, 6	;RP1=0, select bank0
  1874  04FF  01A2               	clrf	(adc_to_volt@volt2+1)
  1875  0500  07A2               	addwf	(adc_to_volt@volt2+1)
  1876  0501  0870               	movf	(0+(?___lwdiv)),w
  1877  0502  01A1               	clrf	(adc_to_volt@volt2)
  1878  0503  07A1               	addwf	(adc_to_volt@volt2)
  1879                           
  1880                           	line	203
  1881                           ;solar charge.c: 203: lcdcmd(0x89);
  1882  0504  3089               	movlw	low(089h)
  1883  0505  00F6               	movwf	(?_lcdcmd)
  1884  0506  3000               	movlw	high(089h)
  1885  0507  00F7               	movwf	((?_lcdcmd))+1
  1886  0508  120A  158A  2629   	fcall	_lcdcmd
              120A  118A         
  1887                           	line	204
  1888                           ;solar charge.c: 204: delay(1);
  1889  050D  3001               	movlw	low(01h)
  1890  050E  00F0               	movwf	(?_delay)
  1891  050F  3000               	movlw	high(01h)
  1892  0510  00F1               	movwf	((?_delay))+1
  1893  0511  120A  158A  26DE   	fcall	_delay
              120A  118A         
  1894                           	line	205
  1895                           ;solar charge.c: 205: lcddata(volt2+0x30);
  1896  0516  1283               	bcf	status, 5	;RP0=0, select bank0
  1897  0517  1303               	bcf	status, 6	;RP1=0, select bank0
  1898  0518  0821               	movf	(adc_to_volt@volt2),w
  1899  0519  3E30               	addlw	low(030h)
  1900  051A  00F6               	movwf	(?_lcddata)
  1901  051B  0822               	movf	(adc_to_volt@volt2+1),w
  1902  051C  1803               	skipnc
  1903  051D  3E01               	addlw	1
  1904  051E  3E00               	addlw	high(030h)
  1905  051F  00F7               	movwf	1+(?_lcddata)
  1906  0520  120A  118A  2072   	fcall	_lcddata
              120A  118A         
  1907                           	line	206
  1908                           ;solar charge.c: 206: delay(1);
  1909  0525  3001               	movlw	low(01h)
  1910  0526  00F0               	movwf	(?_delay)
  1911  0527  3000               	movlw	high(01h)
  1912  0528  00F1               	movwf	((?_delay))+1
  1913  0529  120A  158A  26DE   	fcall	_delay
              120A  118A         
  1914                           	line	207
  1915                           ;solar charge.c: 207: voltage =voltage%10000;
  1916  052E  3010               	movlw	low(02710h)
  1917  052F  00F0               	movwf	(?___lwmod)
  1918  0530  3027               	movlw	high(02710h)
  1919  0531  00F1               	movwf	((?___lwmod))+1
  1920  0532  1283               	bcf	status, 5	;RP0=0, select bank0
  1921  0533  1303               	bcf	status, 6	;RP1=0, select bank0
  1922  0534  0824               	movf	(adc_to_volt@voltage+1),w
  1923  0535  01F3               	clrf	1+(?___lwmod)+02h
  1924  0536  07F3               	addwf	1+(?___lwmod)+02h
  1925  0537  0823               	movf	(adc_to_volt@voltage),w
  1926  0538  01F2               	clrf	0+(?___lwmod)+02h
  1927  0539  07F2               	addwf	0+(?___lwmod)+02h
  1928                           
  1929  053A  120A  158A  27BC   	fcall	___lwmod
              120A  118A         
  1930  053F  0871               	movf	(1+(?___lwmod)),w
  1931  0540  1283               	bcf	status, 5	;RP0=0, select bank0
  1932  0541  1303               	bcf	status, 6	;RP1=0, select bank0
  1933  0542  01A4               	clrf	(adc_to_volt@voltage+1)
  1934  0543  07A4               	addwf	(adc_to_volt@voltage+1)
  1935  0544  0870               	movf	(0+(?___lwmod)),w
  1936  0545  01A3               	clrf	(adc_to_volt@voltage)
  1937  0546  07A3               	addwf	(adc_to_volt@voltage)
  1938                           
  1939                           	line	208
  1940                           ;solar charge.c: 208: volt2 =voltage/1000;
  1941  0547  30E8               	movlw	low(03E8h)
  1942  0548  00F0               	movwf	(?___lwdiv)
  1943  0549  3003               	movlw	high(03E8h)
  1944  054A  00F1               	movwf	((?___lwdiv))+1
  1945  054B  0824               	movf	(adc_to_volt@voltage+1),w
  1946  054C  01F3               	clrf	1+(?___lwdiv)+02h
  1947  054D  07F3               	addwf	1+(?___lwdiv)+02h
  1948  054E  0823               	movf	(adc_to_volt@voltage),w
  1949  054F  01F2               	clrf	0+(?___lwdiv)+02h
  1950  0550  07F2               	addwf	0+(?___lwdiv)+02h
  1951                           
  1952  0551  120A  118A  2086   	fcall	___lwdiv
              120A  118A         
  1953  0556  0871               	movf	(1+(?___lwdiv)),w
  1954  0557  1283               	bcf	status, 5	;RP0=0, select bank0
  1955  0558  1303               	bcf	status, 6	;RP1=0, select bank0
  1956  0559  01A2               	clrf	(adc_to_volt@volt2+1)
  1957  055A  07A2               	addwf	(adc_to_volt@volt2+1)
  1958  055B  0870               	movf	(0+(?___lwdiv)),w
  1959  055C  01A1               	clrf	(adc_to_volt@volt2)
  1960  055D  07A1               	addwf	(adc_to_volt@volt2)
  1961                           
  1962                           	line	209
  1963                           ;solar charge.c: 209: lcddata(volt2+0x30);
  1964  055E  0821               	movf	(adc_to_volt@volt2),w
  1965  055F  3E30               	addlw	low(030h)
  1966  0560  00F6               	movwf	(?_lcddata)
  1967  0561  0822               	movf	(adc_to_volt@volt2+1),w
  1968  0562  1803               	skipnc
  1969  0563  3E01               	addlw	1
  1970  0564  3E00               	addlw	high(030h)
  1971  0565  00F7               	movwf	1+(?_lcddata)
  1972  0566  120A  118A  2072   	fcall	_lcddata
              120A  118A         
  1973                           	line	210
  1974                           ;solar charge.c: 210: delay(1);
  1975  056B  3001               	movlw	low(01h)
  1976  056C  00F0               	movwf	(?_delay)
  1977  056D  3000               	movlw	high(01h)
  1978  056E  00F1               	movwf	((?_delay))+1
  1979  056F  120A  158A  26DE   	fcall	_delay
              120A  118A         
  1980                           	line	211
  1981                           ;solar charge.c: 211: lcddata('.');
  1982  0574  302E               	movlw	low(02Eh)
  1983  0575  00F6               	movwf	(?_lcddata)
  1984  0576  3000               	movlw	high(02Eh)
  1985  0577  00F7               	movwf	((?_lcddata))+1
  1986  0578  120A  118A  2072   	fcall	_lcddata
              120A  118A         
  1987                           	line	212
  1988                           ;solar charge.c: 212: delay(1);
  1989  057D  3001               	movlw	low(01h)
  1990  057E  00F0               	movwf	(?_delay)
  1991  057F  3000               	movlw	high(01h)
  1992  0580  00F1               	movwf	((?_delay))+1
  1993  0581  120A  158A  26DE   	fcall	_delay
              120A  118A         
  1994                           	line	213
  1995                           ;solar charge.c: 213: voltage =voltage%1000;
  1996  0586  30E8               	movlw	low(03E8h)
  1997  0587  00F0               	movwf	(?___lwmod)
  1998  0588  3003               	movlw	high(03E8h)
  1999  0589  00F1               	movwf	((?___lwmod))+1
  2000  058A  1283               	bcf	status, 5	;RP0=0, select bank0
  2001  058B  1303               	bcf	status, 6	;RP1=0, select bank0
  2002  058C  0824               	movf	(adc_to_volt@voltage+1),w
  2003  058D  01F3               	clrf	1+(?___lwmod)+02h
  2004  058E  07F3               	addwf	1+(?___lwmod)+02h
  2005  058F  0823               	movf	(adc_to_volt@voltage),w
  2006  0590  01F2               	clrf	0+(?___lwmod)+02h
  2007  0591  07F2               	addwf	0+(?___lwmod)+02h
  2008                           
  2009  0592  120A  158A  27BC   	fcall	___lwmod
              120A  118A         
  2010  0597  0871               	movf	(1+(?___lwmod)),w
  2011  0598  1283               	bcf	status, 5	;RP0=0, select bank0
  2012  0599  1303               	bcf	status, 6	;RP1=0, select bank0
  2013  059A  01A4               	clrf	(adc_to_volt@voltage+1)
  2014  059B  07A4               	addwf	(adc_to_volt@voltage+1)
  2015  059C  0870               	movf	(0+(?___lwmod)),w
  2016  059D  01A3               	clrf	(adc_to_volt@voltage)
  2017  059E  07A3               	addwf	(adc_to_volt@voltage)
  2018                           
  2019                           	line	214
  2020                           ;solar charge.c: 214: volt2 =voltage/100;
  2021  059F  3064               	movlw	low(064h)
  2022  05A0  00F0               	movwf	(?___lwdiv)
  2023  05A1  3000               	movlw	high(064h)
  2024  05A2  00F1               	movwf	((?___lwdiv))+1
  2025  05A3  0824               	movf	(adc_to_volt@voltage+1),w
  2026  05A4  01F3               	clrf	1+(?___lwdiv)+02h
  2027  05A5  07F3               	addwf	1+(?___lwdiv)+02h
  2028  05A6  0823               	movf	(adc_to_volt@voltage),w
  2029  05A7  01F2               	clrf	0+(?___lwdiv)+02h
  2030  05A8  07F2               	addwf	0+(?___lwdiv)+02h
  2031                           
  2032  05A9  120A  118A  2086   	fcall	___lwdiv
              120A  118A         
  2033  05AE  0871               	movf	(1+(?___lwdiv)),w
  2034  05AF  1283               	bcf	status, 5	;RP0=0, select bank0
  2035  05B0  1303               	bcf	status, 6	;RP1=0, select bank0
  2036  05B1  01A2               	clrf	(adc_to_volt@volt2+1)
  2037  05B2  07A2               	addwf	(adc_to_volt@volt2+1)
  2038  05B3  0870               	movf	(0+(?___lwdiv)),w
  2039  05B4  01A1               	clrf	(adc_to_volt@volt2)
  2040  05B5  07A1               	addwf	(adc_to_volt@volt2)
  2041                           
  2042                           	line	215
  2043                           ;solar charge.c: 215: lcddata(volt2+0x30);
  2044  05B6  0821               	movf	(adc_to_volt@volt2),w
  2045  05B7  3E30               	addlw	low(030h)
  2046  05B8  00F6               	movwf	(?_lcddata)
  2047  05B9  0822               	movf	(adc_to_volt@volt2+1),w
  2048  05BA  1803               	skipnc
  2049  05BB  3E01               	addlw	1
  2050  05BC  3E00               	addlw	high(030h)
  2051  05BD  00F7               	movwf	1+(?_lcddata)
  2052  05BE  120A  118A  2072   	fcall	_lcddata
              120A  118A         
  2053                           	line	216
  2054                           ;solar charge.c: 216: delay(1);
  2055  05C3  3001               	movlw	low(01h)
  2056  05C4  00F0               	movwf	(?_delay)
  2057  05C5  3000               	movlw	high(01h)
  2058  05C6  00F1               	movwf	((?_delay))+1
  2059  05C7  120A  158A  26DE   	fcall	_delay
              120A  118A         
  2060                           	line	217
  2061                           ;solar charge.c: 217: voltage =voltage%100;
  2062  05CC  3064               	movlw	low(064h)
  2063  05CD  00F0               	movwf	(?___lwmod)
  2064  05CE  3000               	movlw	high(064h)
  2065  05CF  00F1               	movwf	((?___lwmod))+1
  2066  05D0  1283               	bcf	status, 5	;RP0=0, select bank0
  2067  05D1  1303               	bcf	status, 6	;RP1=0, select bank0
  2068  05D2  0824               	movf	(adc_to_volt@voltage+1),w
  2069  05D3  01F3               	clrf	1+(?___lwmod)+02h
  2070  05D4  07F3               	addwf	1+(?___lwmod)+02h
  2071  05D5  0823               	movf	(adc_to_volt@voltage),w
  2072  05D6  01F2               	clrf	0+(?___lwmod)+02h
  2073  05D7  07F2               	addwf	0+(?___lwmod)+02h
  2074                           
  2075  05D8  120A  158A  27BC   	fcall	___lwmod
              120A  118A         
  2076  05DD  0871               	movf	(1+(?___lwmod)),w
  2077  05DE  1283               	bcf	status, 5	;RP0=0, select bank0
  2078  05DF  1303               	bcf	status, 6	;RP1=0, select bank0
  2079  05E0  01A4               	clrf	(adc_to_volt@voltage+1)
  2080  05E1  07A4               	addwf	(adc_to_volt@voltage+1)
  2081  05E2  0870               	movf	(0+(?___lwmod)),w
  2082  05E3  01A3               	clrf	(adc_to_volt@voltage)
  2083  05E4  07A3               	addwf	(adc_to_volt@voltage)
  2084                           
  2085                           	line	218
  2086                           ;solar charge.c: 218: volt2 =voltage/10;
  2087  05E5  300A               	movlw	low(0Ah)
  2088  05E6  00F0               	movwf	(?___lwdiv)
  2089  05E7  3000               	movlw	high(0Ah)
  2090  05E8  00F1               	movwf	((?___lwdiv))+1
  2091  05E9  0824               	movf	(adc_to_volt@voltage+1),w
  2092  05EA  01F3               	clrf	1+(?___lwdiv)+02h
  2093  05EB  07F3               	addwf	1+(?___lwdiv)+02h
  2094  05EC  0823               	movf	(adc_to_volt@voltage),w
  2095  05ED  01F2               	clrf	0+(?___lwdiv)+02h
  2096  05EE  07F2               	addwf	0+(?___lwdiv)+02h
  2097                           
  2098  05EF  120A  118A  2086   	fcall	___lwdiv
              120A  118A         
  2099  05F4  0871               	movf	(1+(?___lwdiv)),w
  2100  05F5  1283               	bcf	status, 5	;RP0=0, select bank0
  2101  05F6  1303               	bcf	status, 6	;RP1=0, select bank0
  2102  05F7  01A2               	clrf	(adc_to_volt@volt2+1)
  2103  05F8  07A2               	addwf	(adc_to_volt@volt2+1)
  2104  05F9  0870               	movf	(0+(?___lwdiv)),w
  2105  05FA  01A1               	clrf	(adc_to_volt@volt2)
  2106  05FB  07A1               	addwf	(adc_to_volt@volt2)
  2107                           
  2108                           	line	219
  2109                           ;solar charge.c: 219: lcddata(volt2+0x30);
  2110  05FC  0821               	movf	(adc_to_volt@volt2),w
  2111  05FD  3E30               	addlw	low(030h)
  2112  05FE  00F6               	movwf	(?_lcddata)
  2113  05FF  0822               	movf	(adc_to_volt@volt2+1),w
  2114  0600  1803               	skipnc
  2115  0601  3E01               	addlw	1
  2116  0602  3E00               	addlw	high(030h)
  2117  0603  00F7               	movwf	1+(?_lcddata)
  2118  0604  120A  118A  2072   	fcall	_lcddata
              120A  118A         
  2119                           	line	220
  2120                           ;solar charge.c: 220: delay(1);
  2121  0609  3001               	movlw	low(01h)
  2122  060A  00F0               	movwf	(?_delay)
  2123  060B  3000               	movlw	high(01h)
  2124  060C  00F1               	movwf	((?_delay))+1
  2125  060D  120A  158A  26DE   	fcall	_delay
              120A  118A         
  2126                           	line	222
  2127                           	
  2128  0612                     l754:	
  2129  0612  0008               	return
  2130                           	opt stack 0
  2131                           GLOBAL	__end_of_adc_to_volt
  2132  0613                     	__end_of_adc_to_volt:
  2133 ;; =============== function _adc_to_volt ends ============
  2134                           
  2135                           	signat	_adc_to_volt,4216
  2136                           	global	_display
  2137                           psect	text521,local,class=CODE,delta=2
  2138                           global __ptext521
  2139  0EAE                     __ptext521:
  2140                           
  2141 ;; *************** function _display *****************
  2142 ;; Defined at:
  2143 ;;		line 168 in file "F:\pic projects\solar charge\solar charge.c"
  2144 ;; Parameters:    Size  Location     Type
  2145 ;;  p               1    wreg     PTR unsigned char 
  2146 ;;		 -> STR_7(17), STR_6(17), STR_5(16), STR_4(10), 
  2147 ;;		 -> STR_3(10), STR_2(17), STR_1(17), 
  2148 ;; Auto vars:     Size  Location     Type
  2149 ;;  p               1   10[COMMON] PTR unsigned char 
  2150 ;;		 -> STR_7(17), STR_6(17), STR_5(16), STR_4(10), 
  2151 ;;		 -> STR_3(10), STR_2(17), STR_1(17), 
  2152 ;; Return value:  Size  Location     Type
  2153 ;;		None               void
  2154 ;; Registers used:
  2155 ;;		wreg, fsr0l, fsr0h, status,2, status,0, pclath, cstack
  2156 ;; Tracked objects:
  2157 ;;		On entry : 0/0
  2158 ;;		On exit  : 0/0
  2159 ;;		Unchanged: 0/0
  2160 ;; Data sizes:     COMMON   BANK0   BANK1   BANK3   BANK2
  2161 ;;      Params:         0       0       0       0       0
  2162 ;;      Locals:         1       0       0       0       0
  2163 ;;      Temps:          2       0       0       0       0
  2164 ;;      Totals:         3       0       0       0       0
  2165 ;;Total ram usage:        3 bytes
  2166 ;; Hardware stack levels used:    1
  2167 ;; Hardware stack levels required when called:    2
  2168 ;; This function calls:
  2169 ;;		_lcddata
  2170 ;;		_delay
  2171 ;; This function is called by:
  2172 ;;		_main
  2173 ;; This function uses a non-reentrant model
  2174 ;;
  2175                           psect	text521
  2176                           	file	"F:\pic projects\solar charge\solar charge.c"
  2177                           	line	168
  2178                           	global	__size_of_display
  2179  0030                     	__size_of_display	equ	__end_of_display-_display
  2180                           	
  2181  0EAE                     _display:	
  2182                           	opt	stack 5
  2183                           ; Regs used in _display: [wreg-fsr0h+status,2+status,0+pclath+cstack]
  2184                           ;display@p stored from wreg
  2185  0EAE  00FA               	movwf	(display@p)
  2186                           	line	169
  2187                           	
  2188  0EAF                     l3635:	
  2189                           ;solar charge.c: 169: while (*p)
  2190  0EAF  2ED0               	goto	l3643
  2191                           	
  2192  0EB0                     l739:	
  2193                           	line	171
  2194                           	
  2195  0EB0                     l3637:	
  2196                           ;solar charge.c: 170: {
  2197                           ;solar charge.c: 171: lcddata(*p);
  2198  0EB0  087A               	movf	(display@p),w
  2199  0EB1  0084               	movwf	fsr0
  2200  0EB2  120A  118A  2003   	fcall	stringdir
              120A  158A         
  2201  0EB7  00F8               	movwf	(??_display+0)+0
  2202  0EB8  01F9               	clrf	(??_display+0)+0+1
  2203  0EB9  0878               	movf	0+(??_display+0)+0,w
  2204  0EBA  00F6               	movwf	(?_lcddata)
  2205  0EBB  0879               	movf	1+(??_display+0)+0,w
  2206  0EBC  00F7               	movwf	(?_lcddata+1)
  2207  0EBD  120A  118A  2072   	fcall	_lcddata
              120A  158A         
  2208                           	line	172
  2209                           	
  2210  0EC2                     l3639:	
  2211                           ;solar charge.c: 172: delay(1);
  2212  0EC2  3001               	movlw	low(01h)
  2213  0EC3  00F0               	movwf	(?_delay)
  2214  0EC4  3000               	movlw	high(01h)
  2215  0EC5  00F1               	movwf	((?_delay))+1
  2216  0EC6  120A  158A  26DE   	fcall	_delay
              120A  158A         
  2217                           	line	173
  2218                           	
  2219  0ECB                     l3641:	
  2220                           ;solar charge.c: 173: p++;
  2221  0ECB  3001               	movlw	(01h)
  2222  0ECC  00F8               	movwf	(??_display+0)+0
  2223  0ECD  0878               	movf	(??_display+0)+0,w
  2224  0ECE  07FA               	addwf	(display@p),f
  2225  0ECF  2ED0               	goto	l3643
  2226                           	line	174
  2227                           	
  2228  0ED0                     l738:	
  2229                           	line	169
  2230                           	
  2231  0ED0                     l3643:	
  2232  0ED0  087A               	movf	(display@p),w
  2233  0ED1  0084               	movwf	fsr0
  2234  0ED2  120A  118A  2003   	fcall	stringdir
              120A  158A         
  2235  0ED7  3800               	iorlw	0
  2236  0ED8  1D03               	skipz
  2237  0ED9  2EDB               	goto	u3571
  2238  0EDA  2EDC               	goto	u3570
  2239  0EDB                     u3571:
  2240  0EDB  2EB0               	goto	l3637
  2241  0EDC                     u3570:
  2242  0EDC  2EDD               	goto	l741
  2243                           	
  2244  0EDD                     l740:	
  2245                           	line	176
  2246                           ;solar charge.c: 174: }
  2247                           ;solar charge.c: 175: return;
  2248                           	
  2249  0EDD                     l741:	
  2250  0EDD  0008               	return
  2251                           	opt stack 0
  2252                           GLOBAL	__end_of_display
  2253  0EDE                     	__end_of_display:
  2254 ;; =============== function _display ends ============
  2255                           
  2256                           	signat	_display,4216
  2257                           	global	___lwtoft
  2258                           psect	text522,local,class=CODE,delta=2
  2259                           global __ptext522
  2260  0E3D                     __ptext522:
  2261                           
  2262 ;; *************** function ___lwtoft *****************
  2263 ;; Defined at:
  2264 ;;		line 29 in file "C:\Program Files (x86)\HI-TECH Software\PICC\9.83\sources\lwtoft.c"
  2265 ;; Parameters:    Size  Location     Type
  2266 ;;  c               2   16[BANK0 ] unsigned int 
  2267 ;; Auto vars:     Size  Location     Type
  2268 ;;		None
  2269 ;; Return value:  Size  Location     Type
  2270 ;;                  3   16[BANK0 ] float 
  2271 ;; Registers used:
  2272 ;;		wreg, status,2, status,0, pclath, cstack
  2273 ;; Tracked objects:
  2274 ;;		On entry : 0/0
  2275 ;;		On exit  : 0/0
  2276 ;;		Unchanged: 0/0
  2277 ;; Data sizes:     COMMON   BANK0   BANK1   BANK3   BANK2
  2278 ;;      Params:         0       3       0       0       0
  2279 ;;      Locals:         0       0       0       0       0
  2280 ;;      Temps:          1       0       0       0       0
  2281 ;;      Totals:         1       3       0       0       0
  2282 ;;Total ram usage:        4 bytes
  2283 ;; Hardware stack levels used:    1
  2284 ;; Hardware stack levels required when called:    1
  2285 ;; This function calls:
  2286 ;;		___ftpack
  2287 ;; This function is called by:
  2288 ;;		_PWM1_Duty
  2289 ;; This function uses a non-reentrant model
  2290 ;;
  2291                           psect	text522
  2292                           	file	"C:\Program Files (x86)\HI-TECH Software\PICC\9.83\sources\lwtoft.c"
  2293                           	line	29
  2294                           	global	__size_of___lwtoft
  2295  001B                     	__size_of___lwtoft	equ	__end_of___lwtoft-___lwtoft
  2296                           	
  2297  0E3D                     ___lwtoft:	
  2298                           	opt	stack 5
  2299                           ; Regs used in ___lwtoft: [wreg+status,2+status,0+pclath+cstack]
  2300                           	line	30
  2301                           	
  2302  0E3D                     l3631:	
  2303  0E3D  1283               	bcf	status, 5	;RP0=0, select bank0
  2304  0E3E  1303               	bcf	status, 6	;RP1=0, select bank0
  2305  0E3F  0830               	movf	(___lwtoft@c),w
  2306  0E40  00F0               	movwf	(?___ftpack)
  2307  0E41  0831               	movf	(___lwtoft@c+1),w
  2308  0E42  00F1               	movwf	(?___ftpack+1)
  2309  0E43  01F2               	clrf	(?___ftpack+2)
  2310  0E44  308E               	movlw	(08Eh)
  2311  0E45  00FD               	movwf	(??___lwtoft+0)+0
  2312  0E46  087D               	movf	(??___lwtoft+0)+0,w
  2313  0E47  00F3               	movwf	0+(?___ftpack)+03h
  2314  0E48  01F4               	clrf	0+(?___ftpack)+04h
  2315  0E49  120A  118A  20D4   	fcall	___ftpack
              120A  158A         
  2316  0E4E  0870               	movf	(0+(?___ftpack)),w
  2317  0E4F  1283               	bcf	status, 5	;RP0=0, select bank0
  2318  0E50  1303               	bcf	status, 6	;RP1=0, select bank0
  2319  0E51  00B0               	movwf	(?___lwtoft)
  2320  0E52  0871               	movf	(1+(?___ftpack)),w
  2321  0E53  00B1               	movwf	(?___lwtoft+1)
  2322  0E54  0872               	movf	(2+(?___ftpack)),w
  2323  0E55  00B2               	movwf	(?___lwtoft+2)
  2324  0E56  2E57               	goto	l1676
  2325                           	
  2326  0E57                     l3633:	
  2327                           	line	31
  2328                           	
  2329  0E57                     l1676:	
  2330  0E57  0008               	return
  2331                           	opt stack 0
  2332                           GLOBAL	__end_of___lwtoft
  2333  0E58                     	__end_of___lwtoft:
  2334 ;; =============== function ___lwtoft ends ============
  2335                           
  2336                           	signat	___lwtoft,4219
  2337                           	global	___awtoft
  2338                           psect	text523,local,class=CODE,delta=2
  2339                           global __ptext523
  2340  0E82                     __ptext523:
  2341                           
  2342 ;; *************** function ___awtoft *****************
  2343 ;; Defined at:
  2344 ;;		line 33 in file "C:\Program Files (x86)\HI-TECH Software\PICC\9.83\sources\awtoft.c"
  2345 ;; Parameters:    Size  Location     Type
  2346 ;;  c               2   22[BANK0 ] int 
  2347 ;; Auto vars:     Size  Location     Type
  2348 ;;  sign            1   13[COMMON] unsigned char 
  2349 ;; Return value:  Size  Location     Type
  2350 ;;                  3   22[BANK0 ] float 
  2351 ;; Registers used:
  2352 ;;		wreg, status,2, status,0, pclath, cstack
  2353 ;; Tracked objects:
  2354 ;;		On entry : 0/0
  2355 ;;		On exit  : 0/0
  2356 ;;		Unchanged: 0/0
  2357 ;; Data sizes:     COMMON   BANK0   BANK1   BANK3   BANK2
  2358 ;;      Params:         0       3       0       0       0
  2359 ;;      Locals:         1       0       0       0       0
  2360 ;;      Temps:          0       2       0       0       0
  2361 ;;      Totals:         1       5       0       0       0
  2362 ;;Total ram usage:        6 bytes
  2363 ;; Hardware stack levels used:    1
  2364 ;; Hardware stack levels required when called:    1
  2365 ;; This function calls:
  2366 ;;		___ftpack
  2367 ;; This function is called by:
  2368 ;;		_PWM1_Duty
  2369 ;; This function uses a non-reentrant model
  2370 ;;
  2371                           psect	text523
  2372                           	file	"C:\Program Files (x86)\HI-TECH Software\PICC\9.83\sources\awtoft.c"
  2373                           	line	33
  2374                           	global	__size_of___awtoft
  2375  002C                     	__size_of___awtoft	equ	__end_of___awtoft-___awtoft
  2376                           	
  2377  0E82                     ___awtoft:	
  2378                           	opt	stack 5
  2379                           ; Regs used in ___awtoft: [wreg+status,2+status,0+pclath+cstack]
  2380                           	line	36
  2381                           	
  2382  0E82                     l3623:	
  2383  0E82  01FD               	clrf	(___awtoft@sign)
  2384                           	line	37
  2385  0E83  1283               	bcf	status, 5	;RP0=0, select bank0
  2386  0E84  1303               	bcf	status, 6	;RP1=0, select bank0
  2387  0E85  1FB7               	btfss	(___awtoft@c+1),7
  2388  0E86  2E88               	goto	u3561
  2389  0E87  2E89               	goto	u3560
  2390  0E88                     u3561:
  2391  0E88  2E92               	goto	l3627
  2392  0E89                     u3560:
  2393                           	line	38
  2394                           	
  2395  0E89                     l3625:	
  2396  0E89  09B6               	comf	(___awtoft@c),f
  2397  0E8A  09B7               	comf	(___awtoft@c+1),f
  2398  0E8B  0AB6               	incf	(___awtoft@c),f
  2399  0E8C  1903               	skipnz
  2400  0E8D  0AB7               	incf	(___awtoft@c+1),f
  2401                           	line	39
  2402  0E8E  01FD               	clrf	(___awtoft@sign)
  2403  0E8F  1403               	bsf	status,0
  2404  0E90  0DFD               	rlf	(___awtoft@sign),f
  2405  0E91  2E92               	goto	l3627
  2406                           	line	40
  2407                           	
  2408  0E92                     l1589:	
  2409                           	line	41
  2410                           	
  2411  0E92                     l3627:	
  2412  0E92  0836               	movf	(___awtoft@c),w
  2413  0E93  00F0               	movwf	(?___ftpack)
  2414  0E94  0837               	movf	(___awtoft@c+1),w
  2415  0E95  00F1               	movwf	(?___ftpack+1)
  2416  0E96  01F2               	clrf	(?___ftpack+2)
  2417  0E97  308E               	movlw	(08Eh)
  2418  0E98  00B9               	movwf	(??___awtoft+0)+0
  2419  0E99  0839               	movf	(??___awtoft+0)+0,w
  2420  0E9A  00F3               	movwf	0+(?___ftpack)+03h
  2421  0E9B  087D               	movf	(___awtoft@sign),w
  2422  0E9C  00BA               	movwf	(??___awtoft+1)+0
  2423  0E9D  083A               	movf	(??___awtoft+1)+0,w
  2424  0E9E  00F4               	movwf	0+(?___ftpack)+04h
  2425  0E9F  120A  118A  20D4   	fcall	___ftpack
              120A  158A         
  2426  0EA4  0870               	movf	(0+(?___ftpack)),w
  2427  0EA5  1283               	bcf	status, 5	;RP0=0, select bank0
  2428  0EA6  1303               	bcf	status, 6	;RP1=0, select bank0
  2429  0EA7  00B6               	movwf	(?___awtoft)
  2430  0EA8  0871               	movf	(1+(?___ftpack)),w
  2431  0EA9  00B7               	movwf	(?___awtoft+1)
  2432  0EAA  0872               	movf	(2+(?___ftpack)),w
  2433  0EAB  00B8               	movwf	(?___awtoft+2)
  2434  0EAC  2EAD               	goto	l1590
  2435                           	
  2436  0EAD                     l3629:	
  2437                           	line	42
  2438                           	
  2439  0EAD                     l1590:	
  2440  0EAD  0008               	return
  2441                           	opt stack 0
  2442                           GLOBAL	__end_of___awtoft
  2443  0EAE                     	__end_of___awtoft:
  2444 ;; =============== function ___awtoft ends ============
  2445                           
  2446                           	signat	___awtoft,4219
  2447                           	global	___ftmul
  2448                           psect	text524,local,class=CODE,delta=2
  2449                           global __ptext524
  2450  03E4                     __ptext524:
  2451                           
  2452 ;; *************** function ___ftmul *****************
  2453 ;; Defined at:
  2454 ;;		line 52 in file "C:\Program Files (x86)\HI-TECH Software\PICC\9.83\sources\ftmul.c"
  2455 ;; Parameters:    Size  Location     Type
  2456 ;;  f1              3   35[BANK0 ] float 
  2457 ;;  f2              3   38[BANK0 ] float 
  2458 ;; Auto vars:     Size  Location     Type
  2459 ;;  f3_as_produc    3   46[BANK0 ] unsigned um
  2460 ;;  sign            1   50[BANK0 ] unsigned char 
  2461 ;;  cntr            1   49[BANK0 ] unsigned char 
  2462 ;;  exp             1   45[BANK0 ] unsigned char 
  2463 ;; Return value:  Size  Location     Type
  2464 ;;                  3   35[BANK0 ] float 
  2465 ;; Registers used:
  2466 ;;		wreg, status,2, status,0, pclath, cstack
  2467 ;; Tracked objects:
  2468 ;;		On entry : 0/0
  2469 ;;		On exit  : 0/0
  2470 ;;		Unchanged: 0/0
  2471 ;; Data sizes:     COMMON   BANK0   BANK1   BANK3   BANK2
  2472 ;;      Params:         0       6       0       0       0
  2473 ;;      Locals:         0       6       0       0       0
  2474 ;;      Temps:          0       4       0       0       0
  2475 ;;      Totals:         0      16       0       0       0
  2476 ;;Total ram usage:       16 bytes
  2477 ;; Hardware stack levels used:    1
  2478 ;; Hardware stack levels required when called:    1
  2479 ;; This function calls:
  2480 ;;		___ftpack
  2481 ;; This function is called by:
  2482 ;;		_PWM1_Duty
  2483 ;; This function uses a non-reentrant model
  2484 ;;
  2485                           psect	text524
  2486                           	file	"C:\Program Files (x86)\HI-TECH Software\PICC\9.83\sources\ftmul.c"
  2487                           	line	52
  2488                           	global	__size_of___ftmul
  2489  00EE                     	__size_of___ftmul	equ	__end_of___ftmul-___ftmul
  2490                           	
  2491  03E4                     ___ftmul:	
  2492                           	opt	stack 5
  2493                           ; Regs used in ___ftmul: [wreg+status,2+status,0+pclath+cstack]
  2494                           	line	56
  2495                           	
  2496  03E4                     l3573:	
  2497  03E4  1283               	bcf	status, 5	;RP0=0, select bank0
  2498  03E5  1303               	bcf	status, 6	;RP1=0, select bank0
  2499  03E6  0843               	movf	(___ftmul@f1),w
  2500  03E7  00C9               	movwf	((??___ftmul+0)+0)
  2501  03E8  0844               	movf	(___ftmul@f1+1),w
  2502  03E9  00CA               	movwf	((??___ftmul+0)+0+1)
  2503  03EA  0845               	movf	(___ftmul@f1+2),w
  2504  03EB  00CB               	movwf	((??___ftmul+0)+0+2)
  2505  03EC  1003               	clrc
  2506  03ED  0D4A               	rlf	(??___ftmul+0)+1,w
  2507  03EE  0D4B               	rlf	(??___ftmul+0)+2,w
  2508  03EF  00CC               	movwf	(??___ftmul+3)+0
  2509  03F0  084C               	movf	(??___ftmul+3)+0,w
  2510  03F1  00CD               	movwf	(___ftmul@exp)
  2511  03F2  08CD               	movf	((___ftmul@exp)),f
  2512  03F3  1D03               	skipz
  2513  03F4  2BF6               	goto	u3421
  2514  03F5  2BF7               	goto	u3420
  2515  03F6                     u3421:
  2516  03F6  2BFF               	goto	l3579
  2517  03F7                     u3420:
  2518                           	line	57
  2519                           	
  2520  03F7                     l3575:	
  2521  03F7  3000               	movlw	0x0
  2522  03F8  00C3               	movwf	(?___ftmul)
  2523  03F9  3000               	movlw	0x0
  2524  03FA  00C4               	movwf	(?___ftmul+1)
  2525  03FB  3000               	movlw	0x0
  2526  03FC  00C5               	movwf	(?___ftmul+2)
  2527  03FD  2CD1               	goto	l1552
  2528                           	
  2529  03FE                     l3577:	
  2530  03FE  2CD1               	goto	l1552
  2531                           	
  2532  03FF                     l1551:	
  2533                           	line	58
  2534                           	
  2535  03FF                     l3579:	
  2536  03FF  0846               	movf	(___ftmul@f2),w
  2537  0400  00C9               	movwf	((??___ftmul+0)+0)
  2538  0401  0847               	movf	(___ftmul@f2+1),w
  2539  0402  00CA               	movwf	((??___ftmul+0)+0+1)
  2540  0403  0848               	movf	(___ftmul@f2+2),w
  2541  0404  00CB               	movwf	((??___ftmul+0)+0+2)
  2542  0405  1003               	clrc
  2543  0406  0D4A               	rlf	(??___ftmul+0)+1,w
  2544  0407  0D4B               	rlf	(??___ftmul+0)+2,w
  2545  0408  00CC               	movwf	(??___ftmul+3)+0
  2546  0409  084C               	movf	(??___ftmul+3)+0,w
  2547  040A  00D2               	movwf	(___ftmul@sign)
  2548  040B  08D2               	movf	((___ftmul@sign)),f
  2549  040C  1D03               	skipz
  2550  040D  2C0F               	goto	u3431
  2551  040E  2C10               	goto	u3430
  2552  040F                     u3431:
  2553  040F  2C18               	goto	l3585
  2554  0410                     u3430:
  2555                           	line	59
  2556                           	
  2557  0410                     l3581:	
  2558  0410  3000               	movlw	0x0
  2559  0411  00C3               	movwf	(?___ftmul)
  2560  0412  3000               	movlw	0x0
  2561  0413  00C4               	movwf	(?___ftmul+1)
  2562  0414  3000               	movlw	0x0
  2563  0415  00C5               	movwf	(?___ftmul+2)
  2564  0416  2CD1               	goto	l1552
  2565                           	
  2566  0417                     l3583:	
  2567  0417  2CD1               	goto	l1552
  2568                           	
  2569  0418                     l1553:	
  2570                           	line	60
  2571                           	
  2572  0418                     l3585:	
  2573  0418  0852               	movf	(___ftmul@sign),w
  2574  0419  3E7B               	addlw	07Bh
  2575  041A  00C9               	movwf	(??___ftmul+0)+0
  2576  041B  0849               	movf	(??___ftmul+0)+0,w
  2577  041C  07CD               	addwf	(___ftmul@exp),f
  2578                           	line	61
  2579  041D  0843               	movf	(___ftmul@f1),w
  2580  041E  00C9               	movwf	((??___ftmul+0)+0)
  2581  041F  0844               	movf	(___ftmul@f1+1),w
  2582  0420  00CA               	movwf	((??___ftmul+0)+0+1)
  2583  0421  0845               	movf	(___ftmul@f1+2),w
  2584  0422  00CB               	movwf	((??___ftmul+0)+0+2)
  2585  0423  3010               	movlw	010h
  2586  0424                     u3445:
  2587  0424  1003               	clrc
  2588  0425  0CCB               	rrf	(??___ftmul+0)+2,f
  2589  0426  0CCA               	rrf	(??___ftmul+0)+1,f
  2590  0427  0CC9               	rrf	(??___ftmul+0)+0,f
  2591  0428                     u3440:
  2592  0428  3EFF               	addlw	-1
  2593  0429  1D03               	skipz
  2594  042A  2C24               	goto	u3445
  2595  042B  0849               	movf	0+(??___ftmul+0)+0,w
  2596  042C  00CC               	movwf	(??___ftmul+3)+0
  2597  042D  084C               	movf	(??___ftmul+3)+0,w
  2598  042E  00D2               	movwf	(___ftmul@sign)
  2599                           	line	62
  2600  042F  0846               	movf	(___ftmul@f2),w
  2601  0430  00C9               	movwf	((??___ftmul+0)+0)
  2602  0431  0847               	movf	(___ftmul@f2+1),w
  2603  0432  00CA               	movwf	((??___ftmul+0)+0+1)
  2604  0433  0848               	movf	(___ftmul@f2+2),w
  2605  0434  00CB               	movwf	((??___ftmul+0)+0+2)
  2606  0435  3010               	movlw	010h
  2607  0436                     u3455:
  2608  0436  1003               	clrc
  2609  0437  0CCB               	rrf	(??___ftmul+0)+2,f
  2610  0438  0CCA               	rrf	(??___ftmul+0)+1,f
  2611  0439  0CC9               	rrf	(??___ftmul+0)+0,f
  2612  043A                     u3450:
  2613  043A  3EFF               	addlw	-1
  2614  043B  1D03               	skipz
  2615  043C  2C36               	goto	u3455
  2616  043D  0849               	movf	0+(??___ftmul+0)+0,w
  2617  043E  00CC               	movwf	(??___ftmul+3)+0
  2618  043F  084C               	movf	(??___ftmul+3)+0,w
  2619  0440  06D2               	xorwf	(___ftmul@sign),f
  2620                           	line	63
  2621  0441  3080               	movlw	(080h)
  2622  0442  00C9               	movwf	(??___ftmul+0)+0
  2623  0443  0849               	movf	(??___ftmul+0)+0,w
  2624  0444  05D2               	andwf	(___ftmul@sign),f
  2625                           	line	64
  2626                           	
  2627  0445                     l3587:	
  2628  0445  17C4               	bsf	(___ftmul@f1)+(15/8),(15)&7
  2629                           	line	66
  2630                           	
  2631  0446                     l3589:	
  2632  0446  17C7               	bsf	(___ftmul@f2)+(15/8),(15)&7
  2633                           	line	67
  2634                           	
  2635  0447                     l3591:	
  2636  0447  30FF               	movlw	0FFh
  2637  0448  05C6               	andwf	(___ftmul@f2),f
  2638  0449  30FF               	movlw	0FFh
  2639  044A  05C7               	andwf	(___ftmul@f2+1),f
  2640  044B  3000               	movlw	0
  2641  044C  05C8               	andwf	(___ftmul@f2+2),f
  2642                           	line	68
  2643                           	
  2644  044D                     l3593:	
  2645  044D  3000               	movlw	0
  2646  044E  00CE               	movwf	(___ftmul@f3_as_product)
  2647  044F  3000               	movlw	0
  2648  0450  00CF               	movwf	(___ftmul@f3_as_product+1)
  2649  0451  3000               	movlw	0
  2650  0452  00D0               	movwf	(___ftmul@f3_as_product+2)
  2651                           	line	69
  2652                           	
  2653  0453                     l3595:	
  2654  0453  3007               	movlw	(07h)
  2655  0454  00C9               	movwf	(??___ftmul+0)+0
  2656  0455  0849               	movf	(??___ftmul+0)+0,w
  2657  0456  00D1               	movwf	(___ftmul@cntr)
  2658  0457  2C58               	goto	l3597
  2659                           	line	70
  2660                           	
  2661  0458                     l1554:	
  2662                           	line	71
  2663                           	
  2664  0458                     l3597:	
  2665  0458  1C43               	btfss	(___ftmul@f1),(0)&7
  2666  0459  2C5B               	goto	u3461
  2667  045A  2C5C               	goto	u3460
  2668  045B                     u3461:
  2669  045B  2C6D               	goto	l3601
  2670  045C                     u3460:
  2671                           	line	72
  2672                           	
  2673  045C                     l3599:	
  2674  045C  0846               	movf	(___ftmul@f2),w
  2675  045D  07CE               	addwf	(___ftmul@f3_as_product),f
  2676  045E  0847               	movf	(___ftmul@f2+1),w
  2677  045F  1103               	clrz
  2678  0460  1803               	skipnc
  2679  0461  0A47               	incf	(___ftmul@f2+1),w
  2680  0462  1903               	skipnz
  2681  0463  2C65               	goto	u3471
  2682  0464  07CF               	addwf	(___ftmul@f3_as_product+1),f
  2683  0465                     u3471:
  2684  0465  0848               	movf	(___ftmul@f2+2),w
  2685  0466  1103               	clrz
  2686  0467  1803               	skipnc
  2687  0468  0A48               	incf	(___ftmul@f2+2),w
  2688  0469  1903               	skipnz
  2689  046A  2C6C               	goto	u3472
  2690  046B  07D0               	addwf	(___ftmul@f3_as_product+2),f
  2691  046C                     u3472:
  2692                           
  2693  046C  2C6D               	goto	l3601
  2694                           	
  2695  046D                     l1555:	
  2696                           	line	73
  2697                           	
  2698  046D                     l3601:	
  2699  046D  3001               	movlw	01h
  2700  046E                     u3485:
  2701  046E  1003               	clrc
  2702  046F  0CC5               	rrf	(___ftmul@f1+2),f
  2703  0470  0CC4               	rrf	(___ftmul@f1+1),f
  2704  0471  0CC3               	rrf	(___ftmul@f1),f
  2705  0472  3EFF               	addlw	-1
  2706  0473  1D03               	skipz
  2707  0474  2C6E               	goto	u3485
  2708                           
  2709                           	line	74
  2710                           	
  2711  0475                     l3603:	
  2712  0475  3001               	movlw	01h
  2713  0476                     u3495:
  2714  0476  1003               	clrc
  2715  0477  0DC6               	rlf	(___ftmul@f2),f
  2716  0478  0DC7               	rlf	(___ftmul@f2+1),f
  2717  0479  0DC8               	rlf	(___ftmul@f2+2),f
  2718  047A  3EFF               	addlw	-1
  2719  047B  1D03               	skipz
  2720  047C  2C76               	goto	u3495
  2721                           	line	75
  2722                           	
  2723  047D                     l3605:	
  2724  047D  3001               	movlw	low(01h)
  2725  047E  02D1               	subwf	(___ftmul@cntr),f
  2726  047F  1D03               	btfss	status,2
  2727  0480  2C82               	goto	u3501
  2728  0481  2C83               	goto	u3500
  2729  0482                     u3501:
  2730  0482  2C58               	goto	l3597
  2731  0483                     u3500:
  2732  0483  2C84               	goto	l3607
  2733                           	
  2734  0484                     l1556:	
  2735                           	line	76
  2736                           	
  2737  0484                     l3607:	
  2738  0484  3009               	movlw	(09h)
  2739  0485  00C9               	movwf	(??___ftmul+0)+0
  2740  0486  0849               	movf	(??___ftmul+0)+0,w
  2741  0487  00D1               	movwf	(___ftmul@cntr)
  2742  0488  2C89               	goto	l3609
  2743                           	line	77
  2744                           	
  2745  0489                     l1557:	
  2746                           	line	78
  2747                           	
  2748  0489                     l3609:	
  2749  0489  1C43               	btfss	(___ftmul@f1),(0)&7
  2750  048A  2C8C               	goto	u3511
  2751  048B  2C8D               	goto	u3510
  2752  048C                     u3511:
  2753  048C  2C9E               	goto	l3613
  2754  048D                     u3510:
  2755                           	line	79
  2756                           	
  2757  048D                     l3611:	
  2758  048D  0846               	movf	(___ftmul@f2),w
  2759  048E  07CE               	addwf	(___ftmul@f3_as_product),f
  2760  048F  0847               	movf	(___ftmul@f2+1),w
  2761  0490  1103               	clrz
  2762  0491  1803               	skipnc
  2763  0492  0A47               	incf	(___ftmul@f2+1),w
  2764  0493  1903               	skipnz
  2765  0494  2C96               	goto	u3521
  2766  0495  07CF               	addwf	(___ftmul@f3_as_product+1),f
  2767  0496                     u3521:
  2768  0496  0848               	movf	(___ftmul@f2+2),w
  2769  0497  1103               	clrz
  2770  0498  1803               	skipnc
  2771  0499  0A48               	incf	(___ftmul@f2+2),w
  2772  049A  1903               	skipnz
  2773  049B  2C9D               	goto	u3522
  2774  049C  07D0               	addwf	(___ftmul@f3_as_product+2),f
  2775  049D                     u3522:
  2776                           
  2777  049D  2C9E               	goto	l3613
  2778                           	
  2779  049E                     l1558:	
  2780                           	line	80
  2781                           	
  2782  049E                     l3613:	
  2783  049E  3001               	movlw	01h
  2784  049F                     u3535:
  2785  049F  1003               	clrc
  2786  04A0  0CC5               	rrf	(___ftmul@f1+2),f
  2787  04A1  0CC4               	rrf	(___ftmul@f1+1),f
  2788  04A2  0CC3               	rrf	(___ftmul@f1),f
  2789  04A3  3EFF               	addlw	-1
  2790  04A4  1D03               	skipz
  2791  04A5  2C9F               	goto	u3535
  2792                           
  2793                           	line	81
  2794                           	
  2795  04A6                     l3615:	
  2796  04A6  3001               	movlw	01h
  2797  04A7                     u3545:
  2798  04A7  1003               	clrc
  2799  04A8  0CD0               	rrf	(___ftmul@f3_as_product+2),f
  2800  04A9  0CCF               	rrf	(___ftmul@f3_as_product+1),f
  2801  04AA  0CCE               	rrf	(___ftmul@f3_as_product),f
  2802  04AB  3EFF               	addlw	-1
  2803  04AC  1D03               	skipz
  2804  04AD  2CA7               	goto	u3545
  2805                           
  2806                           	line	82
  2807                           	
  2808  04AE                     l3617:	
  2809  04AE  3001               	movlw	low(01h)
  2810  04AF  02D1               	subwf	(___ftmul@cntr),f
  2811  04B0  1D03               	btfss	status,2
  2812  04B1  2CB3               	goto	u3551
  2813  04B2  2CB4               	goto	u3550
  2814  04B3                     u3551:
  2815  04B3  2C89               	goto	l3609
  2816  04B4                     u3550:
  2817  04B4  2CB5               	goto	l3619
  2818                           	
  2819  04B5                     l1559:	
  2820                           	line	83
  2821                           	
  2822  04B5                     l3619:	
  2823  04B5  084E               	movf	(___ftmul@f3_as_product),w
  2824  04B6  00F0               	movwf	(?___ftpack)
  2825  04B7  084F               	movf	(___ftmul@f3_as_product+1),w
  2826  04B8  00F1               	movwf	(?___ftpack+1)
  2827  04B9  0850               	movf	(___ftmul@f3_as_product+2),w
  2828  04BA  00F2               	movwf	(?___ftpack+2)
  2829  04BB  084D               	movf	(___ftmul@exp),w
  2830  04BC  00C9               	movwf	(??___ftmul+0)+0
  2831  04BD  0849               	movf	(??___ftmul+0)+0,w
  2832  04BE  00F3               	movwf	0+(?___ftpack)+03h
  2833  04BF  0852               	movf	(___ftmul@sign),w
  2834  04C0  00CA               	movwf	(??___ftmul+1)+0
  2835  04C1  084A               	movf	(??___ftmul+1)+0,w
  2836  04C2  00F4               	movwf	0+(?___ftpack)+04h
  2837  04C3  120A  118A  20D4   	fcall	___ftpack
              120A  118A         
  2838  04C8  0870               	movf	(0+(?___ftpack)),w
  2839  04C9  1283               	bcf	status, 5	;RP0=0, select bank0
  2840  04CA  1303               	bcf	status, 6	;RP1=0, select bank0
  2841  04CB  00C3               	movwf	(?___ftmul)
  2842  04CC  0871               	movf	(1+(?___ftpack)),w
  2843  04CD  00C4               	movwf	(?___ftmul+1)
  2844  04CE  0872               	movf	(2+(?___ftpack)),w
  2845  04CF  00C5               	movwf	(?___ftmul+2)
  2846  04D0  2CD1               	goto	l1552
  2847                           	
  2848  04D1                     l3621:	
  2849                           	line	84
  2850                           	
  2851  04D1                     l1552:	
  2852  04D1  0008               	return
  2853                           	opt stack 0
  2854                           GLOBAL	__end_of___ftmul
  2855  04D2                     	__end_of___ftmul:
  2856 ;; =============== function ___ftmul ends ============
  2857                           
  2858                           	signat	___ftmul,8315
  2859                           	global	___ftdiv
  2860                           psect	text525,local,class=CODE,delta=2
  2861                           global __ptext525
  2862  031C                     __ptext525:
  2863                           
  2864 ;; *************** function ___ftdiv *****************
  2865 ;; Defined at:
  2866 ;;		line 50 in file "C:\Program Files (x86)\HI-TECH Software\PICC\9.83\sources\ftdiv.c"
  2867 ;; Parameters:    Size  Location     Type
  2868 ;;  f2              3   19[BANK0 ] float 
  2869 ;;  f1              3   22[BANK0 ] float 
  2870 ;; Auto vars:     Size  Location     Type
  2871 ;;  f3              3   30[BANK0 ] float 
  2872 ;;  sign            1   34[BANK0 ] unsigned char 
  2873 ;;  exp             1   33[BANK0 ] unsigned char 
  2874 ;;  cntr            1   29[BANK0 ] unsigned char 
  2875 ;; Return value:  Size  Location     Type
  2876 ;;                  3   19[BANK0 ] float 
  2877 ;; Registers used:
  2878 ;;		wreg, status,2, status,0, pclath, cstack
  2879 ;; Tracked objects:
  2880 ;;		On entry : 0/0
  2881 ;;		On exit  : 0/0
  2882 ;;		Unchanged: 0/0
  2883 ;; Data sizes:     COMMON   BANK0   BANK1   BANK3   BANK2
  2884 ;;      Params:         0       6       0       0       0
  2885 ;;      Locals:         0       6       0       0       0
  2886 ;;      Temps:          0       4       0       0       0
  2887 ;;      Totals:         0      16       0       0       0
  2888 ;;Total ram usage:       16 bytes
  2889 ;; Hardware stack levels used:    1
  2890 ;; Hardware stack levels required when called:    1
  2891 ;; This function calls:
  2892 ;;		___ftpack
  2893 ;; This function is called by:
  2894 ;;		_PWM1_Duty
  2895 ;; This function uses a non-reentrant model
  2896 ;;
  2897                           psect	text525
  2898                           	file	"C:\Program Files (x86)\HI-TECH Software\PICC\9.83\sources\ftdiv.c"
  2899                           	line	50
  2900                           	global	__size_of___ftdiv
  2901  00C8                     	__size_of___ftdiv	equ	__end_of___ftdiv-___ftdiv
  2902                           	
  2903  031C                     ___ftdiv:	
  2904                           	opt	stack 5
  2905                           ; Regs used in ___ftdiv: [wreg+status,2+status,0+pclath+cstack]
  2906                           	line	55
  2907                           	
  2908  031C                     l3531:	
  2909  031C  1283               	bcf	status, 5	;RP0=0, select bank0
  2910  031D  1303               	bcf	status, 6	;RP1=0, select bank0
  2911  031E  0836               	movf	(___ftdiv@f1),w
  2912  031F  00B9               	movwf	((??___ftdiv+0)+0)
  2913  0320  0837               	movf	(___ftdiv@f1+1),w
  2914  0321  00BA               	movwf	((??___ftdiv+0)+0+1)
  2915  0322  0838               	movf	(___ftdiv@f1+2),w
  2916  0323  00BB               	movwf	((??___ftdiv+0)+0+2)
  2917  0324  1003               	clrc
  2918  0325  0D3A               	rlf	(??___ftdiv+0)+1,w
  2919  0326  0D3B               	rlf	(??___ftdiv+0)+2,w
  2920  0327  00BC               	movwf	(??___ftdiv+3)+0
  2921  0328  083C               	movf	(??___ftdiv+3)+0,w
  2922  0329  00C1               	movwf	(___ftdiv@exp)
  2923  032A  08C1               	movf	((___ftdiv@exp)),f
  2924  032B  1D03               	skipz
  2925  032C  2B2E               	goto	u3341
  2926  032D  2B2F               	goto	u3340
  2927  032E                     u3341:
  2928  032E  2B37               	goto	l3537
  2929  032F                     u3340:
  2930                           	line	56
  2931                           	
  2932  032F                     l3533:	
  2933  032F  3000               	movlw	0x0
  2934  0330  00B3               	movwf	(?___ftdiv)
  2935  0331  3000               	movlw	0x0
  2936  0332  00B4               	movwf	(?___ftdiv+1)
  2937  0333  3000               	movlw	0x0
  2938  0334  00B5               	movwf	(?___ftdiv+2)
  2939  0335  2BE3               	goto	l1542
  2940                           	
  2941  0336                     l3535:	
  2942  0336  2BE3               	goto	l1542
  2943                           	
  2944  0337                     l1541:	
  2945                           	line	57
  2946                           	
  2947  0337                     l3537:	
  2948  0337  0833               	movf	(___ftdiv@f2),w
  2949  0338  00B9               	movwf	((??___ftdiv+0)+0)
  2950  0339  0834               	movf	(___ftdiv@f2+1),w
  2951  033A  00BA               	movwf	((??___ftdiv+0)+0+1)
  2952  033B  0835               	movf	(___ftdiv@f2+2),w
  2953  033C  00BB               	movwf	((??___ftdiv+0)+0+2)
  2954  033D  1003               	clrc
  2955  033E  0D3A               	rlf	(??___ftdiv+0)+1,w
  2956  033F  0D3B               	rlf	(??___ftdiv+0)+2,w
  2957  0340  00BC               	movwf	(??___ftdiv+3)+0
  2958  0341  083C               	movf	(??___ftdiv+3)+0,w
  2959  0342  00C2               	movwf	(___ftdiv@sign)
  2960  0343  08C2               	movf	((___ftdiv@sign)),f
  2961  0344  1D03               	skipz
  2962  0345  2B47               	goto	u3351
  2963  0346  2B48               	goto	u3350
  2964  0347                     u3351:
  2965  0347  2B50               	goto	l3543
  2966  0348                     u3350:
  2967                           	line	58
  2968                           	
  2969  0348                     l3539:	
  2970  0348  3000               	movlw	0x0
  2971  0349  00B3               	movwf	(?___ftdiv)
  2972  034A  3000               	movlw	0x0
  2973  034B  00B4               	movwf	(?___ftdiv+1)
  2974  034C  3000               	movlw	0x0
  2975  034D  00B5               	movwf	(?___ftdiv+2)
  2976  034E  2BE3               	goto	l1542
  2977                           	
  2978  034F                     l3541:	
  2979  034F  2BE3               	goto	l1542
  2980                           	
  2981  0350                     l1543:	
  2982                           	line	59
  2983                           	
  2984  0350                     l3543:	
  2985  0350  3000               	movlw	0
  2986  0351  00BE               	movwf	(___ftdiv@f3)
  2987  0352  3000               	movlw	0
  2988  0353  00BF               	movwf	(___ftdiv@f3+1)
  2989  0354  3000               	movlw	0
  2990  0355  00C0               	movwf	(___ftdiv@f3+2)
  2991                           	line	60
  2992                           	
  2993  0356                     l3545:	
  2994  0356  3089               	movlw	(089h)
  2995  0357  0742               	addwf	(___ftdiv@sign),w
  2996  0358  00B9               	movwf	(??___ftdiv+0)+0
  2997  0359  0839               	movf	0+(??___ftdiv+0)+0,w
  2998  035A  02C1               	subwf	(___ftdiv@exp),f
  2999                           	line	61
  3000                           	
  3001  035B                     l3547:	
  3002  035B  0836               	movf	(___ftdiv@f1),w
  3003  035C  00B9               	movwf	((??___ftdiv+0)+0)
  3004  035D  0837               	movf	(___ftdiv@f1+1),w
  3005  035E  00BA               	movwf	((??___ftdiv+0)+0+1)
  3006  035F  0838               	movf	(___ftdiv@f1+2),w
  3007  0360  00BB               	movwf	((??___ftdiv+0)+0+2)
  3008  0361  3010               	movlw	010h
  3009  0362                     u3365:
  3010  0362  1003               	clrc
  3011  0363  0CBB               	rrf	(??___ftdiv+0)+2,f
  3012  0364  0CBA               	rrf	(??___ftdiv+0)+1,f
  3013  0365  0CB9               	rrf	(??___ftdiv+0)+0,f
  3014  0366                     u3360:
  3015  0366  3EFF               	addlw	-1
  3016  0367  1D03               	skipz
  3017  0368  2B62               	goto	u3365
  3018  0369  0839               	movf	0+(??___ftdiv+0)+0,w
  3019  036A  00BC               	movwf	(??___ftdiv+3)+0
  3020  036B  083C               	movf	(??___ftdiv+3)+0,w
  3021  036C  00C2               	movwf	(___ftdiv@sign)
  3022                           	line	62
  3023                           	
  3024  036D                     l3549:	
  3025  036D  0833               	movf	(___ftdiv@f2),w
  3026  036E  00B9               	movwf	((??___ftdiv+0)+0)
  3027  036F  0834               	movf	(___ftdiv@f2+1),w
  3028  0370  00BA               	movwf	((??___ftdiv+0)+0+1)
  3029  0371  0835               	movf	(___ftdiv@f2+2),w
  3030  0372  00BB               	movwf	((??___ftdiv+0)+0+2)
  3031  0373  3010               	movlw	010h
  3032  0374                     u3375:
  3033  0374  1003               	clrc
  3034  0375  0CBB               	rrf	(??___ftdiv+0)+2,f
  3035  0376  0CBA               	rrf	(??___ftdiv+0)+1,f
  3036  0377  0CB9               	rrf	(??___ftdiv+0)+0,f
  3037  0378                     u3370:
  3038  0378  3EFF               	addlw	-1
  3039  0379  1D03               	skipz
  3040  037A  2B74               	goto	u3375
  3041  037B  0839               	movf	0+(??___ftdiv+0)+0,w
  3042  037C  00BC               	movwf	(??___ftdiv+3)+0
  3043  037D  083C               	movf	(??___ftdiv+3)+0,w
  3044  037E  06C2               	xorwf	(___ftdiv@sign),f
  3045                           	line	63
  3046                           	
  3047  037F                     l3551:	
  3048  037F  3080               	movlw	(080h)
  3049  0380  00B9               	movwf	(??___ftdiv+0)+0
  3050  0381  0839               	movf	(??___ftdiv+0)+0,w
  3051  0382  05C2               	andwf	(___ftdiv@sign),f
  3052                           	line	64
  3053                           	
  3054  0383                     l3553:	
  3055  0383  17B7               	bsf	(___ftdiv@f1)+(15/8),(15)&7
  3056                           	line	65
  3057  0384  30FF               	movlw	0FFh
  3058  0385  05B6               	andwf	(___ftdiv@f1),f
  3059  0386  30FF               	movlw	0FFh
  3060  0387  05B7               	andwf	(___ftdiv@f1+1),f
  3061  0388  3000               	movlw	0
  3062  0389  05B8               	andwf	(___ftdiv@f1+2),f
  3063                           	line	66
  3064                           	
  3065  038A                     l3555:	
  3066  038A  17B4               	bsf	(___ftdiv@f2)+(15/8),(15)&7
  3067                           	line	67
  3068  038B  30FF               	movlw	0FFh
  3069  038C  05B3               	andwf	(___ftdiv@f2),f
  3070  038D  30FF               	movlw	0FFh
  3071  038E  05B4               	andwf	(___ftdiv@f2+1),f
  3072  038F  3000               	movlw	0
  3073  0390  05B5               	andwf	(___ftdiv@f2+2),f
  3074                           	line	68
  3075  0391  3018               	movlw	(018h)
  3076  0392  00B9               	movwf	(??___ftdiv+0)+0
  3077  0393  0839               	movf	(??___ftdiv+0)+0,w
  3078  0394  00BD               	movwf	(___ftdiv@cntr)
  3079  0395  2B96               	goto	l3557
  3080                           	line	69
  3081                           	
  3082  0396                     l1544:	
  3083                           	line	70
  3084                           	
  3085  0396                     l3557:	
  3086  0396  3001               	movlw	01h
  3087  0397                     u3385:
  3088  0397  1003               	clrc
  3089  0398  0DBE               	rlf	(___ftdiv@f3),f
  3090  0399  0DBF               	rlf	(___ftdiv@f3+1),f
  3091  039A  0DC0               	rlf	(___ftdiv@f3+2),f
  3092  039B  3EFF               	addlw	-1
  3093  039C  1D03               	skipz
  3094  039D  2B97               	goto	u3385
  3095                           	line	71
  3096                           	
  3097  039E                     l3559:	
  3098  039E  0835               	movf	(___ftdiv@f2+2),w
  3099  039F  0238               	subwf	(___ftdiv@f1+2),w
  3100  03A0  1D03               	skipz
  3101  03A1  2BA8               	goto	u3395
  3102  03A2  0834               	movf	(___ftdiv@f2+1),w
  3103  03A3  0237               	subwf	(___ftdiv@f1+1),w
  3104  03A4  1D03               	skipz
  3105  03A5  2BA8               	goto	u3395
  3106  03A6  0833               	movf	(___ftdiv@f2),w
  3107  03A7  0236               	subwf	(___ftdiv@f1),w
  3108  03A8                     u3395:
  3109  03A8  1C03               	skipc
  3110  03A9  2BAB               	goto	u3391
  3111  03AA  2BAC               	goto	u3390
  3112  03AB                     u3391:
  3113  03AB  2BB8               	goto	l3565
  3114  03AC                     u3390:
  3115                           	line	72
  3116                           	
  3117  03AC                     l3561:	
  3118  03AC  0833               	movf	(___ftdiv@f2),w
  3119  03AD  02B6               	subwf	(___ftdiv@f1),f
  3120  03AE  0834               	movf	(___ftdiv@f2+1),w
  3121  03AF  1C03               	skipc
  3122  03B0  0F34               	incfsz	(___ftdiv@f2+1),w
  3123  03B1  02B7               	subwf	(___ftdiv@f1+1),f
  3124  03B2  0835               	movf	(___ftdiv@f2+2),w
  3125  03B3  1C03               	skipc
  3126  03B4  0A35               	incf	(___ftdiv@f2+2),w
  3127  03B5  02B8               	subwf	(___ftdiv@f1+2),f
  3128                           	line	73
  3129                           	
  3130  03B6                     l3563:	
  3131  03B6  143E               	bsf	(___ftdiv@f3)+(0/8),(0)&7
  3132  03B7  2BB8               	goto	l3565
  3133                           	line	74
  3134                           	
  3135  03B8                     l1545:	
  3136                           	line	75
  3137                           	
  3138  03B8                     l3565:	
  3139  03B8  3001               	movlw	01h
  3140  03B9                     u3405:
  3141  03B9  1003               	clrc
  3142  03BA  0DB6               	rlf	(___ftdiv@f1),f
  3143  03BB  0DB7               	rlf	(___ftdiv@f1+1),f
  3144  03BC  0DB8               	rlf	(___ftdiv@f1+2),f
  3145  03BD  3EFF               	addlw	-1
  3146  03BE  1D03               	skipz
  3147  03BF  2BB9               	goto	u3405
  3148                           	line	76
  3149                           	
  3150  03C0                     l3567:	
  3151  03C0  3001               	movlw	low(01h)
  3152  03C1  02BD               	subwf	(___ftdiv@cntr),f
  3153  03C2  1D03               	btfss	status,2
  3154  03C3  2BC5               	goto	u3411
  3155  03C4  2BC6               	goto	u3410
  3156  03C5                     u3411:
  3157  03C5  2B96               	goto	l3557
  3158  03C6                     u3410:
  3159  03C6  2BC7               	goto	l3569
  3160                           	
  3161  03C7                     l1546:	
  3162                           	line	77
  3163                           	
  3164  03C7                     l3569:	
  3165  03C7  083E               	movf	(___ftdiv@f3),w
  3166  03C8  00F0               	movwf	(?___ftpack)
  3167  03C9  083F               	movf	(___ftdiv@f3+1),w
  3168  03CA  00F1               	movwf	(?___ftpack+1)
  3169  03CB  0840               	movf	(___ftdiv@f3+2),w
  3170  03CC  00F2               	movwf	(?___ftpack+2)
  3171  03CD  0841               	movf	(___ftdiv@exp),w
  3172  03CE  00B9               	movwf	(??___ftdiv+0)+0
  3173  03CF  0839               	movf	(??___ftdiv+0)+0,w
  3174  03D0  00F3               	movwf	0+(?___ftpack)+03h
  3175  03D1  0842               	movf	(___ftdiv@sign),w
  3176  03D2  00BA               	movwf	(??___ftdiv+1)+0
  3177  03D3  083A               	movf	(??___ftdiv+1)+0,w
  3178  03D4  00F4               	movwf	0+(?___ftpack)+04h
  3179  03D5  120A  118A  20D4   	fcall	___ftpack
              120A  118A         
  3180  03DA  0870               	movf	(0+(?___ftpack)),w
  3181  03DB  1283               	bcf	status, 5	;RP0=0, select bank0
  3182  03DC  1303               	bcf	status, 6	;RP1=0, select bank0
  3183  03DD  00B3               	movwf	(?___ftdiv)
  3184  03DE  0871               	movf	(1+(?___ftpack)),w
  3185  03DF  00B4               	movwf	(?___ftdiv+1)
  3186  03E0  0872               	movf	(2+(?___ftpack)),w
  3187  03E1  00B5               	movwf	(?___ftdiv+2)
  3188  03E2  2BE3               	goto	l1542
  3189                           	
  3190  03E3                     l3571:	
  3191                           	line	78
  3192                           	
  3193  03E3                     l1542:	
  3194  03E3  0008               	return
  3195                           	opt stack 0
  3196                           GLOBAL	__end_of___ftdiv
  3197  03E4                     	__end_of___ftdiv:
  3198 ;; =============== function ___ftdiv ends ============
  3199                           
  3200                           	signat	___ftdiv,8315
  3201                           	global	_PWM_Max_Duty
  3202                           psect	text526,local,class=CODE,delta=2
  3203                           global __ptext526
  3204  0F10                     __ptext526:
  3205                           
  3206 ;; *************** function _PWM_Max_Duty *****************
  3207 ;; Defined at:
  3208 ;;		line 229 in file "F:\pic projects\solar charge\solar charge.c"
  3209 ;; Parameters:    Size  Location     Type
  3210 ;;		None
  3211 ;; Auto vars:     Size  Location     Type
  3212 ;;		None
  3213 ;; Return value:  Size  Location     Type
  3214 ;;                  2   16[BANK0 ] int 
  3215 ;; Registers used:
  3216 ;;		wreg, status,2, status,0, pclath, cstack
  3217 ;; Tracked objects:
  3218 ;;		On entry : 0/0
  3219 ;;		On exit  : 0/0
  3220 ;;		Unchanged: 0/0
  3221 ;; Data sizes:     COMMON   BANK0   BANK1   BANK3   BANK2
  3222 ;;      Params:         0       2       0       0       0
  3223 ;;      Locals:         0       0       0       0       0
  3224 ;;      Temps:          0       4       0       0       0
  3225 ;;      Totals:         0       6       0       0       0
  3226 ;;Total ram usage:        6 bytes
  3227 ;; Hardware stack levels used:    1
  3228 ;; Hardware stack levels required when called:    1
  3229 ;; This function calls:
  3230 ;;		___aldiv
  3231 ;; This function is called by:
  3232 ;;		_PWM1_Duty
  3233 ;; This function uses a non-reentrant model
  3234 ;;
  3235                           psect	text526
  3236                           	file	"F:\pic projects\solar charge\solar charge.c"
  3237                           	line	229
  3238                           	global	__size_of_PWM_Max_Duty
  3239  0032                     	__size_of_PWM_Max_Duty	equ	__end_of_PWM_Max_Duty-_PWM_Max_Duty
  3240                           	
  3241  0F10                     _PWM_Max_Duty:	
  3242                           	opt	stack 5
  3243                           ; Regs used in _PWM_Max_Duty: [wreg+status,2+status,0+pclath+cstack]
  3244                           	line	230
  3245                           	
  3246  0F10                     l3527:	
  3247                           ;solar charge.c: 230: return(20000000/(freq*4);
  3248  0F10  1283               	bcf	status, 5	;RP0=0, select bank0
  3249  0F11  1303               	bcf	status, 6	;RP1=0, select bank0
  3250  0F12  085A               	movf	(_freq),w
  3251  0F13  00B2               	movwf	(??_PWM_Max_Duty+0)+0
  3252  0F14  085B               	movf	(_freq+1),w
  3253  0F15  00B3               	movwf	((??_PWM_Max_Duty+0)+0+1)
  3254  0F16  085C               	movf	(_freq+2),w
  3255  0F17  00B4               	movwf	((??_PWM_Max_Duty+0)+0+2)
  3256  0F18  085D               	movf	(_freq+3),w
  3257  0F19  00B5               	movwf	((??_PWM_Max_Duty+0)+0+3)
  3258  0F1A  3002               	movlw	02h
  3259  0F1B                     u3335:
  3260  0F1B  1003               	clrc
  3261  0F1C  0DB2               	rlf	(??_PWM_Max_Duty+0)+0,f
  3262  0F1D  0DB3               	rlf	(??_PWM_Max_Duty+0)+1,f
  3263  0F1E  0DB4               	rlf	(??_PWM_Max_Duty+0)+2,f
  3264  0F1F  0DB5               	rlf	(??_PWM_Max_Duty+0)+3,f
  3265  0F20                     u3330:
  3266  0F20  3EFF               	addlw	-1
  3267  0F21  1D03               	skipz
  3268  0F22  2F1B               	goto	u3335
  3269  0F23  0835               	movf	3+(??_PWM_Max_Duty+0)+0,w
  3270  0F24  00F3               	movwf	(?___aldiv+3)
  3271  0F25  0834               	movf	2+(??_PWM_Max_Duty+0)+0,w
  3272  0F26  00F2               	movwf	(?___aldiv+2)
  3273  0F27  0833               	movf	1+(??_PWM_Max_Duty+0)+0,w
  3274  0F28  00F1               	movwf	(?___aldiv+1)
  3275  0F29  0832               	movf	0+(??_PWM_Max_Duty+0)+0,w
  3276  0F2A  00F0               	movwf	(?___aldiv)
  3277                           
  3278  0F2B  3001               	movlw	01h
  3279  0F2C  00F7               	movwf	3+(?___aldiv)+04h
  3280  0F2D  3031               	movlw	031h
  3281  0F2E  00F6               	movwf	2+(?___aldiv)+04h
  3282  0F2F  302D               	movlw	02Dh
  3283  0F30  00F5               	movwf	1+(?___aldiv)+04h
  3284  0F31  3000               	movlw	0
  3285  0F32  00F4               	movwf	0+(?___aldiv)+04h
  3286                           
  3287  0F33  120A  118A  2274   	fcall	___aldiv
              120A  158A         
  3288  0F38  0871               	movf	1+(((0+(?___aldiv)))),w
  3289  0F39  1283               	bcf	status, 5	;RP0=0, select bank0
  3290  0F3A  1303               	bcf	status, 6	;RP1=0, select bank0
  3291  0F3B  01B1               	clrf	(?_PWM_Max_Duty+1)
  3292  0F3C  07B1               	addwf	(?_PWM_Max_Duty+1)
  3293  0F3D  0870               	movf	0+(((0+(?___aldiv)))),w
  3294  0F3E  01B0               	clrf	(?_PWM_Max_Duty)
  3295  0F3F  07B0               	addwf	(?_PWM_Max_Duty)
  3296                           
  3297  0F40  2F41               	goto	l757
  3298                           	
  3299  0F41                     l3529:	
  3300                           	line	231
  3301                           	
  3302  0F41                     l757:	
  3303  0F41  0008               	return
  3304                           	opt stack 0
  3305                           GLOBAL	__end_of_PWM_Max_Duty
  3306  0F42                     	__end_of_PWM_Max_Duty:
  3307 ;; =============== function _PWM_Max_Duty ends ============
  3308                           
  3309                           	signat	_PWM_Max_Duty,90
  3310                           	global	_lcddata
  3311                           psect	text527,local,class=CODE,delta=2
  3312                           global __ptext527
  3313  0072                     __ptext527:
  3314                           
  3315 ;; *************** function _lcddata *****************
  3316 ;; Defined at:
  3317 ;;		line 156 in file "F:\pic projects\solar charge\solar charge.c"
  3318 ;; Parameters:    Size  Location     Type
  3319 ;;  value           2    6[COMMON] unsigned int 
  3320 ;; Auto vars:     Size  Location     Type
  3321 ;;		None
  3322 ;; Return value:  Size  Location     Type
  3323 ;;		None               void
  3324 ;; Registers used:
  3325 ;;		wreg, status,2, status,0, pclath, cstack
  3326 ;; Tracked objects:
  3327 ;;		On entry : 0/0
  3328 ;;		On exit  : 0/0
  3329 ;;		Unchanged: 0/0
  3330 ;; Data sizes:     COMMON   BANK0   BANK1   BANK3   BANK2
  3331 ;;      Params:         2       0       0       0       0
  3332 ;;      Locals:         0       0       0       0       0
  3333 ;;      Temps:          0       0       0       0       0
  3334 ;;      Totals:         2       0       0       0       0
  3335 ;;Total ram usage:        2 bytes
  3336 ;; Hardware stack levels used:    1
  3337 ;; Hardware stack levels required when called:    1
  3338 ;; This function calls:
  3339 ;;		_delay
  3340 ;; This function is called by:
  3341 ;;		_main
  3342 ;;		_display
  3343 ;;		_adc_to_volt
  3344 ;; This function uses a non-reentrant model
  3345 ;;
  3346                           psect	text527
  3347                           	file	"F:\pic projects\solar charge\solar charge.c"
  3348                           	line	156
  3349                           	global	__size_of_lcddata
  3350  0014                     	__size_of_lcddata	equ	__end_of_lcddata-_lcddata
  3351                           	
  3352  0072                     _lcddata:	
  3353                           	opt	stack 6
  3354                           ; Regs used in _lcddata: [wreg+status,2+status,0+pclath+cstack]
  3355                           	line	157
  3356                           	
  3357  0072                     l3515:	
  3358                           ;solar charge.c: 157: PORTB=value;
  3359  0072  0876               	movf	(lcddata@value),w
  3360  0073  1283               	bcf	status, 5	;RP0=0, select bank0
  3361  0074  1303               	bcf	status, 6	;RP1=0, select bank0
  3362  0075  0086               	movwf	(6)	;volatile
  3363                           	line	158
  3364                           	
  3365  0076                     l3517:	
  3366                           ;solar charge.c: 158: RD6=1;
  3367  0076  1708               	bsf	(70/8),(70)&7
  3368                           	line	160
  3369                           	
  3370  0077                     l3519:	
  3371                           ;solar charge.c: 160: RD7=1;
  3372  0077  1788               	bsf	(71/8),(71)&7
  3373                           	line	161
  3374                           	
  3375  0078                     l3521:	
  3376                           ;solar charge.c: 161: delay(1);
  3377  0078  3001               	movlw	low(01h)
  3378  0079  00F0               	movwf	(?_delay)
  3379  007A  3000               	movlw	high(01h)
  3380  007B  00F1               	movwf	((?_delay))+1
  3381  007C  120A  158A  26DE   	fcall	_delay
              120A  118A         
  3382                           	line	162
  3383                           	
  3384  0081                     l3523:	
  3385                           ;solar charge.c: 162: RD7=0;
  3386  0081  1283               	bcf	status, 5	;RP0=0, select bank0
  3387  0082  1303               	bcf	status, 6	;RP1=0, select bank0
  3388  0083  1388               	bcf	(71/8),(71)&7
  3389  0084  2885               	goto	l735
  3390                           	line	163
  3391                           	
  3392  0085                     l3525:	
  3393                           	line	164
  3394                           ;solar charge.c: 163: return;
  3395                           	
  3396  0085                     l735:	
  3397  0085  0008               	return
  3398                           	opt stack 0
  3399                           GLOBAL	__end_of_lcddata
  3400  0086                     	__end_of_lcddata:
  3401 ;; =============== function _lcddata ends ============
  3402                           
  3403                           	signat	_lcddata,4216
  3404                           	global	_ADC_Read
  3405                           psect	text528,local,class=CODE,delta=2
  3406                           global __ptext528
  3407  0F42                     __ptext528:
  3408                           
  3409 ;; *************** function _ADC_Read *****************
  3410 ;; Defined at:
  3411 ;;		line 185 in file "F:\pic projects\solar charge\solar charge.c"
  3412 ;; Parameters:    Size  Location     Type
  3413 ;;  channel         1    wreg     unsigned char 
  3414 ;; Auto vars:     Size  Location     Type
  3415 ;;  channel         1   10[COMMON] unsigned char 
  3416 ;; Return value:  Size  Location     Type
  3417 ;;                  2    6[COMMON] unsigned int 
  3418 ;; Registers used:
  3419 ;;		wreg, status,2, status,0, pclath, cstack
  3420 ;; Tracked objects:
  3421 ;;		On entry : 0/0
  3422 ;;		On exit  : 0/0
  3423 ;;		Unchanged: 0/0
  3424 ;; Data sizes:     COMMON   BANK0   BANK1   BANK3   BANK2
  3425 ;;      Params:         2       0       0       0       0
  3426 ;;      Locals:         1       0       0       0       0
  3427 ;;      Temps:          2       0       0       0       0
  3428 ;;      Totals:         5       0       0       0       0
  3429 ;;Total ram usage:        5 bytes
  3430 ;; Hardware stack levels used:    1
  3431 ;; Hardware stack levels required when called:    1
  3432 ;; This function calls:
  3433 ;;		_delay
  3434 ;; This function is called by:
  3435 ;;		_main
  3436 ;; This function uses a non-reentrant model
  3437 ;;
  3438                           psect	text528
  3439                           	file	"F:\pic projects\solar charge\solar charge.c"
  3440                           	line	185
  3441                           	global	__size_of_ADC_Read
  3442  0039                     	__size_of_ADC_Read	equ	__end_of_ADC_Read-_ADC_Read
  3443                           	
  3444  0F42                     _ADC_Read:	
  3445                           	opt	stack 6
  3446                           ; Regs used in _ADC_Read: [wreg+status,2+status,0+pclath+cstack]
  3447                           ;ADC_Read@channel stored from wreg
  3448  0F42  00FA               	movwf	(ADC_Read@channel)
  3449                           	line	186
  3450                           	
  3451  0F43                     l3499:	
  3452                           ;solar charge.c: 186: if(channel > 7)
  3453  0F43  3008               	movlw	(08h)
  3454  0F44  027A               	subwf	(ADC_Read@channel),w
  3455  0F45  1C03               	skipc
  3456  0F46  2F48               	goto	u3301
  3457  0F47  2F49               	goto	u3300
  3458  0F48                     u3301:
  3459  0F48  2F4D               	goto	l3505
  3460  0F49                     u3300:
  3461                           	line	187
  3462                           	
  3463  0F49                     l3501:	
  3464                           ;solar charge.c: 187: return 0;
  3465  0F49  01F6               	clrf	(?_ADC_Read)
  3466  0F4A  01F7               	clrf	(?_ADC_Read+1)
  3467  0F4B  2F7A               	goto	l748
  3468                           	
  3469  0F4C                     l3503:	
  3470  0F4C  2F7A               	goto	l748
  3471                           	
  3472  0F4D                     l747:	
  3473                           	line	189
  3474                           	
  3475  0F4D                     l3505:	
  3476                           ;solar charge.c: 189: ADCON0 &= 0xC5;
  3477  0F4D  30C5               	movlw	(0C5h)
  3478  0F4E  00F8               	movwf	(??_ADC_Read+0)+0
  3479  0F4F  0878               	movf	(??_ADC_Read+0)+0,w
  3480  0F50  1283               	bcf	status, 5	;RP0=0, select bank0
  3481  0F51  1303               	bcf	status, 6	;RP1=0, select bank0
  3482  0F52  059F               	andwf	(31),f	;volatile
  3483                           	line	190
  3484                           ;solar charge.c: 190: ADCON0 |= channel<<3;
  3485  0F53  087A               	movf	(ADC_Read@channel),w
  3486  0F54  00F8               	movwf	(??_ADC_Read+0)+0
  3487  0F55  3002               	movlw	(03h)-1
  3488  0F56                     u3315:
  3489  0F56  1003               	clrc
  3490  0F57  0DF8               	rlf	(??_ADC_Read+0)+0,f
  3491  0F58  3EFF               	addlw	-1
  3492  0F59  1D03               	skipz
  3493  0F5A  2F56               	goto	u3315
  3494  0F5B  1003               	clrc
  3495  0F5C  0D78               	rlf	(??_ADC_Read+0)+0,w
  3496  0F5D  00F9               	movwf	(??_ADC_Read+1)+0
  3497  0F5E  0879               	movf	(??_ADC_Read+1)+0,w
  3498  0F5F  049F               	iorwf	(31),f	;volatile
  3499                           	line	191
  3500                           	
  3501  0F60                     l3507:	
  3502                           ;solar charge.c: 191: delay(10);
  3503  0F60  300A               	movlw	low(0Ah)
  3504  0F61  00F0               	movwf	(?_delay)
  3505  0F62  3000               	movlw	high(0Ah)
  3506  0F63  00F1               	movwf	((?_delay))+1
  3507  0F64  120A  158A  26DE   	fcall	_delay
              120A  158A         
  3508                           	line	192
  3509                           	
  3510  0F69                     l3509:	
  3511                           ;solar charge.c: 192: GO_nDONE = 1;
  3512  0F69  1283               	bcf	status, 5	;RP0=0, select bank0
  3513  0F6A  1303               	bcf	status, 6	;RP1=0, select bank0
  3514  0F6B  151F               	bsf	(250/8),(250)&7
  3515                           	line	193
  3516                           ;solar charge.c: 193: while(GO_nDONE);
  3517  0F6C  2F6D               	goto	l749
  3518                           	
  3519  0F6D                     l750:	
  3520                           	
  3521  0F6D                     l749:	
  3522  0F6D  191F               	btfsc	(250/8),(250)&7
  3523  0F6E  2F70               	goto	u3321
  3524  0F6F  2F71               	goto	u3320
  3525  0F70                     u3321:
  3526  0F70  2F6D               	goto	l749
  3527  0F71                     u3320:
  3528  0F71  2F72               	goto	l3511
  3529                           	
  3530  0F72                     l751:	
  3531                           	line	195
  3532                           	
  3533  0F72                     l3511:	
  3534                           ;solar charge.c: 195: return ((ADRESH);
  3535  0F72  081E               	movf	(30),w	;volatile
  3536  0F73  00F8               	movwf	(??_ADC_Read+0)+0
  3537  0F74  01F9               	clrf	(??_ADC_Read+0)+0+1
  3538  0F75  0878               	movf	0+(??_ADC_Read+0)+0,w
  3539  0F76  00F6               	movwf	(?_ADC_Read)
  3540  0F77  0879               	movf	1+(??_ADC_Read+0)+0,w
  3541  0F78  00F7               	movwf	(?_ADC_Read+1)
  3542  0F79  2F7A               	goto	l748
  3543                           	
  3544  0F7A                     l3513:	
  3545                           	line	196
  3546                           	
  3547  0F7A                     l748:	
  3548  0F7A  0008               	return
  3549                           	opt stack 0
  3550                           GLOBAL	__end_of_ADC_Read
  3551  0F7B                     	__end_of_ADC_Read:
  3552 ;; =============== function _ADC_Read ends ============
  3553                           
  3554                           	signat	_ADC_Read,4218
  3555                           	global	_lcdcmd
  3556                           psect	text529,local,class=CODE,delta=2
  3557                           global __ptext529
  3558  0E29                     __ptext529:
  3559                           
  3560 ;; *************** function _lcdcmd *****************
  3561 ;; Defined at:
  3562 ;;		line 145 in file "F:\pic projects\solar charge\solar charge.c"
  3563 ;; Parameters:    Size  Location     Type
  3564 ;;  value           2    6[COMMON] unsigned int 
  3565 ;; Auto vars:     Size  Location     Type
  3566 ;;		None
  3567 ;; Return value:  Size  Location     Type
  3568 ;;		None               void
  3569 ;; Registers used:
  3570 ;;		wreg, status,2, status,0, pclath, cstack
  3571 ;; Tracked objects:
  3572 ;;		On entry : 0/0
  3573 ;;		On exit  : 0/0
  3574 ;;		Unchanged: 0/0
  3575 ;; Data sizes:     COMMON   BANK0   BANK1   BANK3   BANK2
  3576 ;;      Params:         2       0       0       0       0
  3577 ;;      Locals:         0       0       0       0       0
  3578 ;;      Temps:          0       0       0       0       0
  3579 ;;      Totals:         2       0       0       0       0
  3580 ;;Total ram usage:        2 bytes
  3581 ;; Hardware stack levels used:    1
  3582 ;; Hardware stack levels required when called:    1
  3583 ;; This function calls:
  3584 ;;		_delay
  3585 ;; This function is called by:
  3586 ;;		_main
  3587 ;;		_adc_to_volt
  3588 ;; This function uses a non-reentrant model
  3589 ;;
  3590                           psect	text529
  3591                           	file	"F:\pic projects\solar charge\solar charge.c"
  3592                           	line	145
  3593                           	global	__size_of_lcdcmd
  3594  0014                     	__size_of_lcdcmd	equ	__end_of_lcdcmd-_lcdcmd
  3595                           	
  3596  0E29                     _lcdcmd:	
  3597                           	opt	stack 5
  3598                           ; Regs used in _lcdcmd: [wreg+status,2+status,0+pclath+cstack]
  3599                           	line	146
  3600                           	
  3601  0E29                     l3487:	
  3602                           ;solar charge.c: 146: PORTB=value;
  3603  0E29  0876               	movf	(lcdcmd@value),w
  3604  0E2A  1283               	bcf	status, 5	;RP0=0, select bank0
  3605  0E2B  1303               	bcf	status, 6	;RP1=0, select bank0
  3606  0E2C  0086               	movwf	(6)	;volatile
  3607                           	line	147
  3608                           	
  3609  0E2D                     l3489:	
  3610                           ;solar charge.c: 147: RD6=0;
  3611  0E2D  1308               	bcf	(70/8),(70)&7
  3612                           	line	148
  3613                           	
  3614  0E2E                     l3491:	
  3615                           ;solar charge.c: 148: RD7=1;
  3616  0E2E  1788               	bsf	(71/8),(71)&7
  3617                           	line	149
  3618                           	
  3619  0E2F                     l3493:	
  3620                           ;solar charge.c: 149: delay(1);
  3621  0E2F  3001               	movlw	low(01h)
  3622  0E30  00F0               	movwf	(?_delay)
  3623  0E31  3000               	movlw	high(01h)
  3624  0E32  00F1               	movwf	((?_delay))+1
  3625  0E33  120A  158A  26DE   	fcall	_delay
              120A  158A         
  3626                           	line	150
  3627                           	
  3628  0E38                     l3495:	
  3629                           ;solar charge.c: 150: RD7=0;
  3630  0E38  1283               	bcf	status, 5	;RP0=0, select bank0
  3631  0E39  1303               	bcf	status, 6	;RP1=0, select bank0
  3632  0E3A  1388               	bcf	(71/8),(71)&7
  3633  0E3B  2E3C               	goto	l732
  3634                           	line	151
  3635                           	
  3636  0E3C                     l3497:	
  3637                           	line	152
  3638                           ;solar charge.c: 151: return;
  3639                           	
  3640  0E3C                     l732:	
  3641  0E3C  0008               	return
  3642                           	opt stack 0
  3643                           GLOBAL	__end_of_lcdcmd
  3644  0E3D                     	__end_of_lcdcmd:
  3645 ;; =============== function _lcdcmd ends ============
  3646                           
  3647                           	signat	_lcdcmd,4216
  3648                           	global	_PWM1_Init
  3649                           psect	text530,local,class=CODE,delta=2
  3650                           global __ptext530
  3651  0F7B                     __ptext530:
  3652                           
  3653 ;; *************** function _PWM1_Init *****************
  3654 ;; Defined at:
  3655 ;;		line 234 in file "F:\pic projects\solar charge\solar charge.c"
  3656 ;; Parameters:    Size  Location     Type
  3657 ;;  fre             4    6[BANK0 ] long 
  3658 ;; Auto vars:     Size  Location     Type
  3659 ;;		None
  3660 ;; Return value:  Size  Location     Type
  3661 ;;                  2    6[BANK0 ] int 
  3662 ;; Registers used:
  3663 ;;		wreg, status,2, status,0, pclath, cstack
  3664 ;; Tracked objects:
  3665 ;;		On entry : 0/0
  3666 ;;		On exit  : 0/0
  3667 ;;		Unchanged: 0/0
  3668 ;; Data sizes:     COMMON   BANK0   BANK1   BANK3   BANK2
  3669 ;;      Params:         0       4       0       0       0
  3670 ;;      Locals:         0       0       0       0       0
  3671 ;;      Temps:          4       0       0       0       0
  3672 ;;      Totals:         4       4       0       0       0
  3673 ;;Total ram usage:        8 bytes
  3674 ;; Hardware stack levels used:    1
  3675 ;; Hardware stack levels required when called:    1
  3676 ;; This function calls:
  3677 ;;		___aldiv
  3678 ;; This function is called by:
  3679 ;;		_main
  3680 ;; This function uses a non-reentrant model
  3681 ;;
  3682                           psect	text530
  3683                           	file	"F:\pic projects\solar charge\solar charge.c"
  3684                           	line	234
  3685                           	global	__size_of_PWM1_Init
  3686  0041                     	__size_of_PWM1_Init	equ	__end_of_PWM1_Init-_PWM1_Init
  3687                           	
  3688  0F7B                     _PWM1_Init:	
  3689                           	opt	stack 6
  3690                           ; Regs used in _PWM1_Init: [wreg+status,2+status,0+pclath+cstack]
  3691                           	line	235
  3692                           	
  3693  0F7B                     l3483:	
  3694                           ;solar charge.c: 235: PR2 = (20000000/(freq*4*4)) - 1;
  3695  0F7B  1283               	bcf	status, 5	;RP0=0, select bank0
  3696  0F7C  1303               	bcf	status, 6	;RP1=0, select bank0
  3697  0F7D  085A               	movf	(_freq),w
  3698  0F7E  00F9               	movwf	(??_PWM1_Init+0)+0
  3699  0F7F  085B               	movf	(_freq+1),w
  3700  0F80  00FA               	movwf	((??_PWM1_Init+0)+0+1)
  3701  0F81  085C               	movf	(_freq+2),w
  3702  0F82  00FB               	movwf	((??_PWM1_Init+0)+0+2)
  3703  0F83  085D               	movf	(_freq+3),w
  3704  0F84  00FC               	movwf	((??_PWM1_Init+0)+0+3)
  3705  0F85  3002               	movlw	02h
  3706  0F86                     u3285:
  3707  0F86  1003               	clrc
  3708  0F87  0DF9               	rlf	(??_PWM1_Init+0)+0,f
  3709  0F88  0DFA               	rlf	(??_PWM1_Init+0)+1,f
  3710  0F89  0DFB               	rlf	(??_PWM1_Init+0)+2,f
  3711  0F8A  0DFC               	rlf	(??_PWM1_Init+0)+3,f
  3712  0F8B                     u3280:
  3713  0F8B  3EFF               	addlw	-1
  3714  0F8C  1D03               	skipz
  3715  0F8D  2F86               	goto	u3285
  3716  0F8E  3002               	movlw	02h
  3717  0F8F                     u3295:
  3718  0F8F  1003               	clrc
  3719  0F90  0DF9               	rlf	(??_PWM1_Init+0)+0,f
  3720  0F91  0DFA               	rlf	(??_PWM1_Init+0)+1,f
  3721  0F92  0DFB               	rlf	(??_PWM1_Init+0)+2,f
  3722  0F93  0DFC               	rlf	(??_PWM1_Init+0)+3,f
  3723  0F94                     u3290:
  3724  0F94  3EFF               	addlw	-1
  3725  0F95  1D03               	skipz
  3726  0F96  2F8F               	goto	u3295
  3727  0F97  087C               	movf	3+(??_PWM1_Init+0)+0,w
  3728  0F98  00F3               	movwf	(?___aldiv+3)
  3729  0F99  087B               	movf	2+(??_PWM1_Init+0)+0,w
  3730  0F9A  00F2               	movwf	(?___aldiv+2)
  3731  0F9B  087A               	movf	1+(??_PWM1_Init+0)+0,w
  3732  0F9C  00F1               	movwf	(?___aldiv+1)
  3733  0F9D  0879               	movf	0+(??_PWM1_Init+0)+0,w
  3734  0F9E  00F0               	movwf	(?___aldiv)
  3735                           
  3736  0F9F  3001               	movlw	01h
  3737  0FA0  00F7               	movwf	3+(?___aldiv)+04h
  3738  0FA1  3031               	movlw	031h
  3739  0FA2  00F6               	movwf	2+(?___aldiv)+04h
  3740  0FA3  302D               	movlw	02Dh
  3741  0FA4  00F5               	movwf	1+(?___aldiv)+04h
  3742  0FA5  3000               	movlw	0
  3743  0FA6  00F4               	movwf	0+(?___aldiv)+04h
  3744                           
  3745  0FA7  120A  118A  2274   	fcall	___aldiv
              120A  158A         
  3746  0FAC  0870               	movf	0+(((0+(?___aldiv)))),w
  3747  0FAD  3EFF               	addlw	0FFh
  3748  0FAE  1683               	bsf	status, 5	;RP0=1, select bank1
  3749  0FAF  1303               	bcf	status, 6	;RP1=0, select bank1
  3750  0FB0  0092               	movwf	(146)^080h	;volatile
  3751                           	line	236
  3752                           	
  3753  0FB1                     l3485:	
  3754                           ;solar charge.c: 236: freq = fre;
  3755  0FB1  1283               	bcf	status, 5	;RP0=0, select bank0
  3756  0FB2  1303               	bcf	status, 6	;RP1=0, select bank0
  3757  0FB3  0829               	movf	(PWM1_Init@fre+3),w
  3758  0FB4  00DD               	movwf	(_freq+3)
  3759  0FB5  0828               	movf	(PWM1_Init@fre+2),w
  3760  0FB6  00DC               	movwf	(_freq+2)
  3761  0FB7  0827               	movf	(PWM1_Init@fre+1),w
  3762  0FB8  00DB               	movwf	(_freq+1)
  3763  0FB9  0826               	movf	(PWM1_Init@fre),w
  3764  0FBA  00DA               	movwf	(_freq)
  3765                           
  3766                           	line	237
  3767                           	
  3768  0FBB                     l760:	
  3769  0FBB  0008               	return
  3770                           	opt stack 0
  3771                           GLOBAL	__end_of_PWM1_Init
  3772  0FBC                     	__end_of_PWM1_Init:
  3773 ;; =============== function _PWM1_Init ends ============
  3774                           
  3775                           	signat	_PWM1_Init,4218
  3776                           	global	___aldiv
  3777                           psect	text531,local,class=CODE,delta=2
  3778                           global __ptext531
  3779  0274                     __ptext531:
  3780                           
  3781 ;; *************** function ___aldiv *****************
  3782 ;; Defined at:
  3783 ;;		line 5 in file "C:\Program Files (x86)\HI-TECH Software\PICC\9.83\sources\aldiv.c"
  3784 ;; Parameters:    Size  Location     Type
  3785 ;;  divisor         4    0[COMMON] long 
  3786 ;;  dividend        4    4[COMMON] long 
  3787 ;; Auto vars:     Size  Location     Type
  3788 ;;  quotient        4    2[BANK0 ] long 
  3789 ;;  sign            1    1[BANK0 ] unsigned char 
  3790 ;;  counter         1    0[BANK0 ] unsigned char 
  3791 ;; Return value:  Size  Location     Type
  3792 ;;                  4    0[COMMON] long 
  3793 ;; Registers used:
  3794 ;;		wreg, status,2, status,0
  3795 ;; Tracked objects:
  3796 ;;		On entry : 0/0
  3797 ;;		On exit  : 0/0
  3798 ;;		Unchanged: 0/0
  3799 ;; Data sizes:     COMMON   BANK0   BANK1   BANK3   BANK2
  3800 ;;      Params:         8       0       0       0       0
  3801 ;;      Locals:         0       6       0       0       0
  3802 ;;      Temps:          1       0       0       0       0
  3803 ;;      Totals:         9       6       0       0       0
  3804 ;;Total ram usage:       15 bytes
  3805 ;; Hardware stack levels used:    1
  3806 ;; This function calls:
  3807 ;;		Nothing
  3808 ;; This function is called by:
  3809 ;;		_PWM_Max_Duty
  3810 ;;		_PWM1_Init
  3811 ;; This function uses a non-reentrant model
  3812 ;;
  3813                           psect	text531
  3814                           	file	"C:\Program Files (x86)\HI-TECH Software\PICC\9.83\sources\aldiv.c"
  3815                           	line	5
  3816                           	global	__size_of___aldiv
  3817  00A8                     	__size_of___aldiv	equ	__end_of___aldiv-___aldiv
  3818                           	
  3819  0274                     ___aldiv:	
  3820                           	opt	stack 5
  3821                           ; Regs used in ___aldiv: [wreg+status,2+status,0]
  3822                           	line	9
  3823                           	
  3824  0274                     l3399:	
  3825  0274  1283               	bcf	status, 5	;RP0=0, select bank0
  3826  0275  1303               	bcf	status, 6	;RP1=0, select bank0
  3827  0276  01A1               	clrf	(___aldiv@sign)
  3828                           	line	10
  3829  0277  1FF3               	btfss	(___aldiv@divisor+3),7
  3830  0278  2A7A               	goto	u3121
  3831  0279  2A7B               	goto	u3120
  3832  027A                     u3121:
  3833  027A  2A8A               	goto	l3405
  3834  027B                     u3120:
  3835                           	line	11
  3836                           	
  3837  027B                     l3401:	
  3838  027B  09F0               	comf	(___aldiv@divisor),f
  3839  027C  09F1               	comf	(___aldiv@divisor+1),f
  3840  027D  09F2               	comf	(___aldiv@divisor+2),f
  3841  027E  09F3               	comf	(___aldiv@divisor+3),f
  3842  027F  0AF0               	incf	(___aldiv@divisor),f
  3843  0280  1903               	skipnz
  3844  0281  0AF1               	incf	(___aldiv@divisor+1),f
  3845  0282  1903               	skipnz
  3846  0283  0AF2               	incf	(___aldiv@divisor+2),f
  3847  0284  1903               	skipnz
  3848  0285  0AF3               	incf	(___aldiv@divisor+3),f
  3849                           	line	12
  3850                           	
  3851  0286                     l3403:	
  3852  0286  01A1               	clrf	(___aldiv@sign)
  3853  0287  1403               	bsf	status,0
  3854  0288  0DA1               	rlf	(___aldiv@sign),f
  3855  0289  2A8A               	goto	l3405
  3856                           	line	13
  3857                           	
  3858  028A                     l1648:	
  3859                           	line	14
  3860                           	
  3861  028A                     l3405:	
  3862  028A  1FF7               	btfss	(___aldiv@dividend+3),7
  3863  028B  2A8D               	goto	u3131
  3864  028C  2A8E               	goto	u3130
  3865  028D                     u3131:
  3866  028D  2A9E               	goto	l3411
  3867  028E                     u3130:
  3868                           	line	15
  3869                           	
  3870  028E                     l3407:	
  3871  028E  09F4               	comf	(___aldiv@dividend),f
  3872  028F  09F5               	comf	(___aldiv@dividend+1),f
  3873  0290  09F6               	comf	(___aldiv@dividend+2),f
  3874  0291  09F7               	comf	(___aldiv@dividend+3),f
  3875  0292  0AF4               	incf	(___aldiv@dividend),f
  3876  0293  1903               	skipnz
  3877  0294  0AF5               	incf	(___aldiv@dividend+1),f
  3878  0295  1903               	skipnz
  3879  0296  0AF6               	incf	(___aldiv@dividend+2),f
  3880  0297  1903               	skipnz
  3881  0298  0AF7               	incf	(___aldiv@dividend+3),f
  3882                           	line	16
  3883                           	
  3884  0299                     l3409:	
  3885  0299  3001               	movlw	(01h)
  3886  029A  00F8               	movwf	(??___aldiv+0)+0
  3887  029B  0878               	movf	(??___aldiv+0)+0,w
  3888  029C  06A1               	xorwf	(___aldiv@sign),f
  3889  029D  2A9E               	goto	l3411
  3890                           	line	17
  3891                           	
  3892  029E                     l1649:	
  3893                           	line	18
  3894                           	
  3895  029E                     l3411:	
  3896  029E  3000               	movlw	0
  3897  029F  00A5               	movwf	(___aldiv@quotient+3)
  3898  02A0  3000               	movlw	0
  3899  02A1  00A4               	movwf	(___aldiv@quotient+2)
  3900  02A2  3000               	movlw	0
  3901  02A3  00A3               	movwf	(___aldiv@quotient+1)
  3902  02A4  3000               	movlw	0
  3903  02A5  00A2               	movwf	(___aldiv@quotient)
  3904                           
  3905                           	line	19
  3906                           	
  3907  02A6                     l3413:	
  3908  02A6  0873               	movf	(___aldiv@divisor+3),w
  3909  02A7  0472               	iorwf	(___aldiv@divisor+2),w
  3910  02A8  0471               	iorwf	(___aldiv@divisor+1),w
  3911  02A9  0470               	iorwf	(___aldiv@divisor),w
  3912  02AA  1903               	skipnz
  3913  02AB  2AAD               	goto	u3141
  3914  02AC  2AAE               	goto	u3140
  3915  02AD                     u3141:
  3916  02AD  2B02               	goto	l3433
  3917  02AE                     u3140:
  3918                           	line	20
  3919                           	
  3920  02AE                     l3415:	
  3921  02AE  01A0               	clrf	(___aldiv@counter)
  3922  02AF  1403               	bsf	status,0
  3923  02B0  0DA0               	rlf	(___aldiv@counter),f
  3924                           	line	21
  3925  02B1  2AC0               	goto	l3419
  3926                           	
  3927  02B2                     l1652:	
  3928                           	line	22
  3929                           	
  3930  02B2                     l3417:	
  3931  02B2  3001               	movlw	01h
  3932  02B3  00F8               	movwf	(??___aldiv+0)+0
  3933  02B4                     u3155:
  3934  02B4  1003               	clrc
  3935  02B5  0DF0               	rlf	(___aldiv@divisor),f
  3936  02B6  0DF1               	rlf	(___aldiv@divisor+1),f
  3937  02B7  0DF2               	rlf	(___aldiv@divisor+2),f
  3938  02B8  0DF3               	rlf	(___aldiv@divisor+3),f
  3939  02B9  0BF8               	decfsz	(??___aldiv+0)+0
  3940  02BA  2AB4               	goto	u3155
  3941                           	line	23
  3942  02BB  3001               	movlw	(01h)
  3943  02BC  00F8               	movwf	(??___aldiv+0)+0
  3944  02BD  0878               	movf	(??___aldiv+0)+0,w
  3945  02BE  07A0               	addwf	(___aldiv@counter),f
  3946  02BF  2AC0               	goto	l3419
  3947                           	line	24
  3948                           	
  3949  02C0                     l1651:	
  3950                           	line	21
  3951                           	
  3952  02C0                     l3419:	
  3953  02C0  1FF3               	btfss	(___aldiv@divisor+3),(31)&7
  3954  02C1  2AC3               	goto	u3161
  3955  02C2  2AC4               	goto	u3160
  3956  02C3                     u3161:
  3957  02C3  2AB2               	goto	l3417
  3958  02C4                     u3160:
  3959  02C4  2AC6               	goto	l3421
  3960                           	
  3961  02C5                     l1653:	
  3962  02C5  2AC6               	goto	l3421
  3963                           	line	25
  3964                           	
  3965  02C6                     l1654:	
  3966                           	line	26
  3967                           	
  3968  02C6                     l3421:	
  3969  02C6  3001               	movlw	01h
  3970  02C7  00F8               	movwf	(??___aldiv+0)+0
  3971  02C8                     u3175:
  3972  02C8  1003               	clrc
  3973  02C9  0DA2               	rlf	(___aldiv@quotient),f
  3974  02CA  0DA3               	rlf	(___aldiv@quotient+1),f
  3975  02CB  0DA4               	rlf	(___aldiv@quotient+2),f
  3976  02CC  0DA5               	rlf	(___aldiv@quotient+3),f
  3977  02CD  0BF8               	decfsz	(??___aldiv+0)+0
  3978  02CE  2AC8               	goto	u3175
  3979                           	line	27
  3980                           	
  3981  02CF                     l3423:	
  3982  02CF  0873               	movf	(___aldiv@divisor+3),w
  3983  02D0  0277               	subwf	(___aldiv@dividend+3),w
  3984  02D1  1D03               	skipz
  3985  02D2  2ADD               	goto	u3185
  3986  02D3  0872               	movf	(___aldiv@divisor+2),w
  3987  02D4  0276               	subwf	(___aldiv@dividend+2),w
  3988  02D5  1D03               	skipz
  3989  02D6  2ADD               	goto	u3185
  3990  02D7  0871               	movf	(___aldiv@divisor+1),w
  3991  02D8  0275               	subwf	(___aldiv@dividend+1),w
  3992  02D9  1D03               	skipz
  3993  02DA  2ADD               	goto	u3185
  3994  02DB  0870               	movf	(___aldiv@divisor),w
  3995  02DC  0274               	subwf	(___aldiv@dividend),w
  3996  02DD                     u3185:
  3997  02DD  1C03               	skipc
  3998  02DE  2AE0               	goto	u3181
  3999  02DF  2AE1               	goto	u3180
  4000  02E0                     u3181:
  4001  02E0  2AF1               	goto	l3429
  4002  02E1                     u3180:
  4003                           	line	28
  4004                           	
  4005  02E1                     l3425:	
  4006  02E1  0870               	movf	(___aldiv@divisor),w
  4007  02E2  02F4               	subwf	(___aldiv@dividend),f
  4008  02E3  0871               	movf	(___aldiv@divisor+1),w
  4009  02E4  1C03               	skipc
  4010  02E5  0F71               	incfsz	(___aldiv@divisor+1),w
  4011  02E6  02F5               	subwf	(___aldiv@dividend+1),f
  4012  02E7  0872               	movf	(___aldiv@divisor+2),w
  4013  02E8  1C03               	skipc
  4014  02E9  0F72               	incfsz	(___aldiv@divisor+2),w
  4015  02EA  02F6               	subwf	(___aldiv@dividend+2),f
  4016  02EB  0873               	movf	(___aldiv@divisor+3),w
  4017  02EC  1C03               	skipc
  4018  02ED  0F73               	incfsz	(___aldiv@divisor+3),w
  4019  02EE  02F7               	subwf	(___aldiv@dividend+3),f
  4020                           	line	29
  4021                           	
  4022  02EF                     l3427:	
  4023  02EF  1422               	bsf	(___aldiv@quotient)+(0/8),(0)&7
  4024  02F0  2AF1               	goto	l3429
  4025                           	line	30
  4026                           	
  4027  02F1                     l1655:	
  4028                           	line	31
  4029                           	
  4030  02F1                     l3429:	
  4031  02F1  3001               	movlw	01h
  4032  02F2                     u3195:
  4033  02F2  1003               	clrc
  4034  02F3  0CF3               	rrf	(___aldiv@divisor+3),f
  4035  02F4  0CF2               	rrf	(___aldiv@divisor+2),f
  4036  02F5  0CF1               	rrf	(___aldiv@divisor+1),f
  4037  02F6  0CF0               	rrf	(___aldiv@divisor),f
  4038  02F7  3EFF               	addlw	-1
  4039  02F8  1D03               	skipz
  4040  02F9  2AF2               	goto	u3195
  4041                           
  4042                           	line	32
  4043                           	
  4044  02FA                     l3431:	
  4045  02FA  3001               	movlw	low(01h)
  4046  02FB  02A0               	subwf	(___aldiv@counter),f
  4047  02FC  1D03               	btfss	status,2
  4048  02FD  2AFF               	goto	u3201
  4049  02FE  2B00               	goto	u3200
  4050  02FF                     u3201:
  4051  02FF  2AC6               	goto	l3421
  4052  0300                     u3200:
  4053  0300  2B02               	goto	l3433
  4054                           	
  4055  0301                     l1656:	
  4056  0301  2B02               	goto	l3433
  4057                           	line	33
  4058                           	
  4059  0302                     l1650:	
  4060                           	line	34
  4061                           	
  4062  0302                     l3433:	
  4063  0302  0821               	movf	(___aldiv@sign),w
  4064  0303  1D03               	skipz
  4065  0304  2B06               	goto	u3210
  4066  0305  2B12               	goto	l3437
  4067  0306                     u3210:
  4068                           	line	35
  4069                           	
  4070  0306                     l3435:	
  4071  0306  09A2               	comf	(___aldiv@quotient),f
  4072  0307  09A3               	comf	(___aldiv@quotient+1),f
  4073  0308  09A4               	comf	(___aldiv@quotient+2),f
  4074  0309  09A5               	comf	(___aldiv@quotient+3),f
  4075  030A  0AA2               	incf	(___aldiv@quotient),f
  4076  030B  1903               	skipnz
  4077  030C  0AA3               	incf	(___aldiv@quotient+1),f
  4078  030D  1903               	skipnz
  4079  030E  0AA4               	incf	(___aldiv@quotient+2),f
  4080  030F  1903               	skipnz
  4081  0310  0AA5               	incf	(___aldiv@quotient+3),f
  4082  0311  2B12               	goto	l3437
  4083                           	
  4084  0312                     l1657:	
  4085                           	line	36
  4086                           	
  4087  0312                     l3437:	
  4088  0312  0825               	movf	(___aldiv@quotient+3),w
  4089  0313  00F3               	movwf	(?___aldiv+3)
  4090  0314  0824               	movf	(___aldiv@quotient+2),w
  4091  0315  00F2               	movwf	(?___aldiv+2)
  4092  0316  0823               	movf	(___aldiv@quotient+1),w
  4093  0317  00F1               	movwf	(?___aldiv+1)
  4094  0318  0822               	movf	(___aldiv@quotient),w
  4095  0319  00F0               	movwf	(?___aldiv)
  4096                           
  4097  031A  2B1B               	goto	l1658
  4098                           	
  4099  031B                     l3439:	
  4100                           	line	37
  4101                           	
  4102  031B                     l1658:	
  4103  031B  0008               	return
  4104                           	opt stack 0
  4105                           GLOBAL	__end_of___aldiv
  4106  031C                     	__end_of___aldiv:
  4107 ;; =============== function ___aldiv ends ============
  4108                           
  4109                           	signat	___aldiv,8316
  4110                           	global	___fttol
  4111                           psect	text532,local,class=CODE,delta=2
  4112                           global __ptext532
  4113  01CE                     __ptext532:
  4114                           
  4115 ;; *************** function ___fttol *****************
  4116 ;; Defined at:
  4117 ;;		line 45 in file "C:\Program Files (x86)\HI-TECH Software\PICC\9.83\sources\fttol.c"
  4118 ;; Parameters:    Size  Location     Type
  4119 ;;  f1              3    6[BANK0 ] float 
  4120 ;; Auto vars:     Size  Location     Type
  4121 ;;  lval            4   11[BANK0 ] unsigned long 
  4122 ;;  exp1            1   15[BANK0 ] unsigned char 
  4123 ;;  sign1           1   10[BANK0 ] unsigned char 
  4124 ;; Return value:  Size  Location     Type
  4125 ;;                  4    6[BANK0 ] long 
  4126 ;; Registers used:
  4127 ;;		wreg, status,2, status,0
  4128 ;; Tracked objects:
  4129 ;;		On entry : 0/0
  4130 ;;		On exit  : 0/0
  4131 ;;		Unchanged: 0/0
  4132 ;; Data sizes:     COMMON   BANK0   BANK1   BANK3   BANK2
  4133 ;;      Params:         0       4       0       0       0
  4134 ;;      Locals:         0       6       0       0       0
  4135 ;;      Temps:          4       0       0       0       0
  4136 ;;      Totals:         4      10       0       0       0
  4137 ;;Total ram usage:       14 bytes
  4138 ;; Hardware stack levels used:    1
  4139 ;; This function calls:
  4140 ;;		Nothing
  4141 ;; This function is called by:
  4142 ;;		_PWM1_Duty
  4143 ;; This function uses a non-reentrant model
  4144 ;;
  4145                           psect	text532
  4146                           	file	"C:\Program Files (x86)\HI-TECH Software\PICC\9.83\sources\fttol.c"
  4147                           	line	45
  4148                           	global	__size_of___fttol
  4149  00A6                     	__size_of___fttol	equ	__end_of___fttol-___fttol
  4150                           	
  4151  01CE                     ___fttol:	
  4152                           	opt	stack 6
  4153                           ; Regs used in ___fttol: [wreg+status,2+status,0]
  4154                           	line	49
  4155                           	
  4156  01CE                     l3343:	
  4157  01CE  1283               	bcf	status, 5	;RP0=0, select bank0
  4158  01CF  1303               	bcf	status, 6	;RP1=0, select bank0
  4159  01D0  0826               	movf	(___fttol@f1),w
  4160  01D1  00F9               	movwf	((??___fttol+0)+0)
  4161  01D2  0827               	movf	(___fttol@f1+1),w
  4162  01D3  00FA               	movwf	((??___fttol+0)+0+1)
  4163  01D4  0828               	movf	(___fttol@f1+2),w
  4164  01D5  00FB               	movwf	((??___fttol+0)+0+2)
  4165  01D6  1003               	clrc
  4166  01D7  0D7A               	rlf	(??___fttol+0)+1,w
  4167  01D8  0D7B               	rlf	(??___fttol+0)+2,w
  4168  01D9  00FC               	movwf	(??___fttol+3)+0
  4169  01DA  087C               	movf	(??___fttol+3)+0,w
  4170  01DB  00AF               	movwf	(___fttol@exp1)
  4171  01DC  08AF               	movf	((___fttol@exp1)),f
  4172  01DD  1D03               	skipz
  4173  01DE  29E0               	goto	u3011
  4174  01DF  29E1               	goto	u3010
  4175  01E0                     u3011:
  4176  01E0  29EB               	goto	l3349
  4177  01E1                     u3010:
  4178                           	line	50
  4179                           	
  4180  01E1                     l3345:	
  4181  01E1  3000               	movlw	0
  4182  01E2  00A9               	movwf	(?___fttol+3)
  4183  01E3  3000               	movlw	0
  4184  01E4  00A8               	movwf	(?___fttol+2)
  4185  01E5  3000               	movlw	0
  4186  01E6  00A7               	movwf	(?___fttol+1)
  4187  01E7  3000               	movlw	0
  4188  01E8  00A6               	movwf	(?___fttol)
  4189                           
  4190  01E9  2A73               	goto	l1563
  4191                           	
  4192  01EA                     l3347:	
  4193  01EA  2A73               	goto	l1563
  4194                           	
  4195  01EB                     l1562:	
  4196                           	line	51
  4197                           	
  4198  01EB                     l3349:	
  4199  01EB  0826               	movf	(___fttol@f1),w
  4200  01EC  00F9               	movwf	((??___fttol+0)+0)
  4201  01ED  0827               	movf	(___fttol@f1+1),w
  4202  01EE  00FA               	movwf	((??___fttol+0)+0+1)
  4203  01EF  0828               	movf	(___fttol@f1+2),w
  4204  01F0  00FB               	movwf	((??___fttol+0)+0+2)
  4205  01F1  3017               	movlw	017h
  4206  01F2                     u3025:
  4207  01F2  1003               	clrc
  4208  01F3  0CFB               	rrf	(??___fttol+0)+2,f
  4209  01F4  0CFA               	rrf	(??___fttol+0)+1,f
  4210  01F5  0CF9               	rrf	(??___fttol+0)+0,f
  4211  01F6                     u3020:
  4212  01F6  3EFF               	addlw	-1
  4213  01F7  1D03               	skipz
  4214  01F8  29F2               	goto	u3025
  4215  01F9  0879               	movf	0+(??___fttol+0)+0,w
  4216  01FA  00FC               	movwf	(??___fttol+3)+0
  4217  01FB  087C               	movf	(??___fttol+3)+0,w
  4218  01FC  00AA               	movwf	(___fttol@sign1)
  4219                           	line	52
  4220                           	
  4221  01FD                     l3351:	
  4222  01FD  17A7               	bsf	(___fttol@f1)+(15/8),(15)&7
  4223                           	line	53
  4224                           	
  4225  01FE                     l3353:	
  4226  01FE  30FF               	movlw	0FFh
  4227  01FF  05A6               	andwf	(___fttol@f1),f
  4228  0200  30FF               	movlw	0FFh
  4229  0201  05A7               	andwf	(___fttol@f1+1),f
  4230  0202  3000               	movlw	0
  4231  0203  05A8               	andwf	(___fttol@f1+2),f
  4232                           	line	54
  4233                           	
  4234  0204                     l3355:	
  4235  0204  0826               	movf	(___fttol@f1),w
  4236  0205  00AB               	movwf	(___fttol@lval)
  4237  0206  0827               	movf	(___fttol@f1+1),w
  4238  0207  00AC               	movwf	((___fttol@lval))+1
  4239  0208  0828               	movf	(___fttol@f1+2),w
  4240  0209  00AD               	movwf	((___fttol@lval))+2
  4241  020A  01AE               	clrf	((___fttol@lval))+3
  4242                           	line	55
  4243                           	
  4244  020B                     l3357:	
  4245  020B  308E               	movlw	low(08Eh)
  4246  020C  02AF               	subwf	(___fttol@exp1),f
  4247                           	line	56
  4248                           	
  4249  020D                     l3359:	
  4250  020D  1FAF               	btfss	(___fttol@exp1),7
  4251  020E  2A10               	goto	u3031
  4252  020F  2A11               	goto	u3030
  4253  0210                     u3031:
  4254  0210  2A36               	goto	l3369
  4255  0211                     u3030:
  4256                           	line	57
  4257                           	
  4258  0211                     l3361:	
  4259  0211  082F               	movf	(___fttol@exp1),w
  4260  0212  3A80               	xorlw	80h
  4261  0213  3E8F               	addlw	-((-15)^80h)
  4262  0214  1803               	skipnc
  4263  0215  2A17               	goto	u3041
  4264  0216  2A18               	goto	u3040
  4265  0217                     u3041:
  4266  0217  2A23               	goto	l3367
  4267  0218                     u3040:
  4268                           	line	58
  4269                           	
  4270  0218                     l3363:	
  4271  0218  3000               	movlw	0
  4272  0219  00A9               	movwf	(?___fttol+3)
  4273  021A  3000               	movlw	0
  4274  021B  00A8               	movwf	(?___fttol+2)
  4275  021C  3000               	movlw	0
  4276  021D  00A7               	movwf	(?___fttol+1)
  4277  021E  3000               	movlw	0
  4278  021F  00A6               	movwf	(?___fttol)
  4279                           
  4280  0220  2A73               	goto	l1563
  4281                           	
  4282  0221                     l3365:	
  4283  0221  2A73               	goto	l1563
  4284                           	
  4285  0222                     l1565:	
  4286  0222  2A23               	goto	l3367
  4287                           	line	59
  4288                           	
  4289  0223                     l1566:	
  4290                           	line	60
  4291                           	
  4292  0223                     l3367:	
  4293  0223  3001               	movlw	01h
  4294  0224                     u3055:
  4295  0224  1003               	clrc
  4296  0225  0CAE               	rrf	(___fttol@lval+3),f
  4297  0226  0CAD               	rrf	(___fttol@lval+2),f
  4298  0227  0CAC               	rrf	(___fttol@lval+1),f
  4299  0228  0CAB               	rrf	(___fttol@lval),f
  4300  0229  3EFF               	addlw	-1
  4301  022A  1D03               	skipz
  4302  022B  2A24               	goto	u3055
  4303                           
  4304                           	line	61
  4305  022C  3001               	movlw	(01h)
  4306  022D  00F9               	movwf	(??___fttol+0)+0
  4307  022E  0879               	movf	(??___fttol+0)+0,w
  4308  022F  07AF               	addwf	(___fttol@exp1),f
  4309  0230  1D03               	btfss	status,2
  4310  0231  2A33               	goto	u3061
  4311  0232  2A34               	goto	u3060
  4312  0233                     u3061:
  4313  0233  2A23               	goto	l3367
  4314  0234                     u3060:
  4315  0234  2A5A               	goto	l3379
  4316                           	
  4317  0235                     l1567:	
  4318                           	line	62
  4319  0235  2A5A               	goto	l3379
  4320                           	
  4321  0236                     l1564:	
  4322                           	line	63
  4323                           	
  4324  0236                     l3369:	
  4325  0236  3018               	movlw	(018h)
  4326  0237  022F               	subwf	(___fttol@exp1),w
  4327  0238  1C03               	skipc
  4328  0239  2A3B               	goto	u3071
  4329  023A  2A3C               	goto	u3070
  4330  023B                     u3071:
  4331  023B  2A53               	goto	l3377
  4332  023C                     u3070:
  4333                           	line	64
  4334                           	
  4335  023C                     l3371:	
  4336  023C  3000               	movlw	0
  4337  023D  00A9               	movwf	(?___fttol+3)
  4338  023E  3000               	movlw	0
  4339  023F  00A8               	movwf	(?___fttol+2)
  4340  0240  3000               	movlw	0
  4341  0241  00A7               	movwf	(?___fttol+1)
  4342  0242  3000               	movlw	0
  4343  0243  00A6               	movwf	(?___fttol)
  4344                           
  4345  0244  2A73               	goto	l1563
  4346                           	
  4347  0245                     l3373:	
  4348  0245  2A73               	goto	l1563
  4349                           	
  4350  0246                     l1569:	
  4351                           	line	65
  4352  0246  2A53               	goto	l3377
  4353                           	
  4354  0247                     l1571:	
  4355                           	line	66
  4356                           	
  4357  0247                     l3375:	
  4358  0247  3001               	movlw	01h
  4359  0248  00F9               	movwf	(??___fttol+0)+0
  4360  0249                     u3085:
  4361  0249  1003               	clrc
  4362  024A  0DAB               	rlf	(___fttol@lval),f
  4363  024B  0DAC               	rlf	(___fttol@lval+1),f
  4364  024C  0DAD               	rlf	(___fttol@lval+2),f
  4365  024D  0DAE               	rlf	(___fttol@lval+3),f
  4366  024E  0BF9               	decfsz	(??___fttol+0)+0
  4367  024F  2A49               	goto	u3085
  4368                           	line	67
  4369  0250  3001               	movlw	low(01h)
  4370  0251  02AF               	subwf	(___fttol@exp1),f
  4371  0252  2A53               	goto	l3377
  4372                           	line	68
  4373                           	
  4374  0253                     l1570:	
  4375                           	line	65
  4376                           	
  4377  0253                     l3377:	
  4378  0253  08AF               	movf	(___fttol@exp1),f
  4379  0254  1D03               	skipz
  4380  0255  2A57               	goto	u3091
  4381  0256  2A58               	goto	u3090
  4382  0257                     u3091:
  4383  0257  2A47               	goto	l3375
  4384  0258                     u3090:
  4385  0258  2A5A               	goto	l3379
  4386                           	
  4387  0259                     l1572:	
  4388  0259  2A5A               	goto	l3379
  4389                           	line	69
  4390                           	
  4391  025A                     l1568:	
  4392                           	line	70
  4393                           	
  4394  025A                     l3379:	
  4395  025A  082A               	movf	(___fttol@sign1),w
  4396  025B  1D03               	skipz
  4397  025C  2A5E               	goto	u3100
  4398  025D  2A6A               	goto	l3383
  4399  025E                     u3100:
  4400                           	line	71
  4401                           	
  4402  025E                     l3381:	
  4403  025E  09AB               	comf	(___fttol@lval),f
  4404  025F  09AC               	comf	(___fttol@lval+1),f
  4405  0260  09AD               	comf	(___fttol@lval+2),f
  4406  0261  09AE               	comf	(___fttol@lval+3),f
  4407  0262  0AAB               	incf	(___fttol@lval),f
  4408  0263  1903               	skipnz
  4409  0264  0AAC               	incf	(___fttol@lval+1),f
  4410  0265  1903               	skipnz
  4411  0266  0AAD               	incf	(___fttol@lval+2),f
  4412  0267  1903               	skipnz
  4413  0268  0AAE               	incf	(___fttol@lval+3),f
  4414  0269  2A6A               	goto	l3383
  4415                           	
  4416  026A                     l1573:	
  4417                           	line	72
  4418                           	
  4419  026A                     l3383:	
  4420  026A  082E               	movf	(___fttol@lval+3),w
  4421  026B  00A9               	movwf	(?___fttol+3)
  4422  026C  082D               	movf	(___fttol@lval+2),w
  4423  026D  00A8               	movwf	(?___fttol+2)
  4424  026E  082C               	movf	(___fttol@lval+1),w
  4425  026F  00A7               	movwf	(?___fttol+1)
  4426  0270  082B               	movf	(___fttol@lval),w
  4427  0271  00A6               	movwf	(?___fttol)
  4428                           
  4429  0272  2A73               	goto	l1563
  4430                           	
  4431  0273                     l3385:	
  4432                           	line	73
  4433                           	
  4434  0273                     l1563:	
  4435  0273  0008               	return
  4436                           	opt stack 0
  4437                           GLOBAL	__end_of___fttol
  4438  0274                     	__end_of___fttol:
  4439 ;; =============== function ___fttol ends ============
  4440                           
  4441                           	signat	___fttol,4220
  4442                           	global	___ftpack
  4443                           psect	text533,local,class=CODE,delta=2
  4444                           global __ptext533
  4445  00D4                     __ptext533:
  4446                           
  4447 ;; *************** function ___ftpack *****************
  4448 ;; Defined at:
  4449 ;;		line 63 in file "C:\Program Files (x86)\HI-TECH Software\PICC\9.83\sources\float.c"
  4450 ;; Parameters:    Size  Location     Type
  4451 ;;  arg             3    0[COMMON] unsigned um
  4452 ;;  exp             1    3[COMMON] unsigned char 
  4453 ;;  sign            1    4[COMMON] unsigned char 
  4454 ;; Auto vars:     Size  Location     Type
  4455 ;;		None
  4456 ;; Return value:  Size  Location     Type
  4457 ;;                  3    0[COMMON] float 
  4458 ;; Registers used:
  4459 ;;		wreg, status,2, status,0
  4460 ;; Tracked objects:
  4461 ;;		On entry : 0/0
  4462 ;;		On exit  : 0/0
  4463 ;;		Unchanged: 0/0
  4464 ;; Data sizes:     COMMON   BANK0   BANK1   BANK3   BANK2
  4465 ;;      Params:         5       0       0       0       0
  4466 ;;      Locals:         0       0       0       0       0
  4467 ;;      Temps:          3       0       0       0       0
  4468 ;;      Totals:         8       0       0       0       0
  4469 ;;Total ram usage:        8 bytes
  4470 ;; Hardware stack levels used:    1
  4471 ;; This function calls:
  4472 ;;		Nothing
  4473 ;; This function is called by:
  4474 ;;		___ftdiv
  4475 ;;		___ftmul
  4476 ;;		___awtoft
  4477 ;;		___lwtoft
  4478 ;;		___ftadd
  4479 ;;		___lbtoft
  4480 ;;		___abtoft
  4481 ;;		___altoft
  4482 ;;		___lltoft
  4483 ;;		___attoft
  4484 ;;		___lttoft
  4485 ;; This function uses a non-reentrant model
  4486 ;;
  4487                           psect	text533
  4488                           	file	"C:\Program Files (x86)\HI-TECH Software\PICC\9.83\sources\float.c"
  4489                           	line	63
  4490                           	global	__size_of___ftpack
  4491  007B                     	__size_of___ftpack	equ	__end_of___ftpack-___ftpack
  4492                           	
  4493  00D4                     ___ftpack:	
  4494                           	opt	stack 5
  4495                           ; Regs used in ___ftpack: [wreg+status,2+status,0]
  4496                           	line	64
  4497                           	
  4498  00D4                     l3307:	
  4499  00D4  0873               	movf	(___ftpack@exp),w
  4500  00D5  1D03               	skipz
  4501  00D6  28D8               	goto	u2900
  4502  00D7  28E0               	goto	l3311
  4503  00D8                     u2900:
  4504                           	
  4505  00D8                     l3309:	
  4506  00D8  0872               	movf	(___ftpack@arg+2),w
  4507  00D9  0471               	iorwf	(___ftpack@arg+1),w
  4508  00DA  0470               	iorwf	(___ftpack@arg),w
  4509  00DB  1D03               	skipz
  4510  00DC  28DE               	goto	u2911
  4511  00DD  28DF               	goto	u2910
  4512  00DE                     u2911:
  4513  00DE  28F6               	goto	l3317
  4514  00DF                     u2910:
  4515  00DF  28E0               	goto	l3311
  4516                           	
  4517  00E0                     l1787:	
  4518                           	line	65
  4519                           	
  4520  00E0                     l3311:	
  4521  00E0  3000               	movlw	0x0
  4522  00E1  00F0               	movwf	(?___ftpack)
  4523  00E2  3000               	movlw	0x0
  4524  00E3  00F1               	movwf	(?___ftpack+1)
  4525  00E4  3000               	movlw	0x0
  4526  00E5  00F2               	movwf	(?___ftpack+2)
  4527  00E6  294E               	goto	l1788
  4528                           	
  4529  00E7                     l3313:	
  4530  00E7  294E               	goto	l1788
  4531                           	
  4532  00E8                     l1785:	
  4533                           	line	66
  4534  00E8  28F6               	goto	l3317
  4535                           	
  4536  00E9                     l1790:	
  4537                           	line	67
  4538                           	
  4539  00E9                     l3315:	
  4540  00E9  3001               	movlw	(01h)
  4541  00EA  00F5               	movwf	(??___ftpack+0)+0
  4542  00EB  0875               	movf	(??___ftpack+0)+0,w
  4543  00EC  07F3               	addwf	(___ftpack@exp),f
  4544                           	line	68
  4545  00ED  3001               	movlw	01h
  4546  00EE                     u2925:
  4547  00EE  1003               	clrc
  4548  00EF  0CF2               	rrf	(___ftpack@arg+2),f
  4549  00F0  0CF1               	rrf	(___ftpack@arg+1),f
  4550  00F1  0CF0               	rrf	(___ftpack@arg),f
  4551  00F2  3EFF               	addlw	-1
  4552  00F3  1D03               	skipz
  4553  00F4  28EE               	goto	u2925
  4554                           
  4555  00F5  28F6               	goto	l3317
  4556                           	line	69
  4557                           	
  4558  00F6                     l1789:	
  4559                           	line	66
  4560                           	
  4561  00F6                     l3317:	
  4562  00F6  30FE               	movlw	low highword(0FE0000h)
  4563  00F7  0572               	andwf	(___ftpack@arg+2),w
  4564  00F8  1D03               	btfss	status,2
  4565  00F9  28FB               	goto	u2931
  4566  00FA  28FC               	goto	u2930
  4567  00FB                     u2931:
  4568  00FB  28E9               	goto	l3315
  4569  00FC                     u2930:
  4570  00FC  2914               	goto	l1792
  4571                           	
  4572  00FD                     l1791:	
  4573                           	line	70
  4574  00FD  2914               	goto	l1792
  4575                           	
  4576  00FE                     l1793:	
  4577                           	line	71
  4578                           	
  4579  00FE                     l3319:	
  4580  00FE  3001               	movlw	(01h)
  4581  00FF  00F5               	movwf	(??___ftpack+0)+0
  4582  0100  0875               	movf	(??___ftpack+0)+0,w
  4583  0101  07F3               	addwf	(___ftpack@exp),f
  4584                           	line	72
  4585                           	
  4586  0102                     l3321:	
  4587  0102  3001               	movlw	01h
  4588  0103  07F0               	addwf	(___ftpack@arg),f
  4589  0104  3000               	movlw	0
  4590  0105  1803               	skipnc
  4591  0106  3001               movlw 1
  4592  0107  07F1               	addwf	(___ftpack@arg+1),f
  4593  0108  3000               	movlw	0
  4594  0109  1803               	skipnc
  4595  010A  3001               movlw 1
  4596  010B  07F2               	addwf	(___ftpack@arg+2),f
  4597                           	line	73
  4598                           	
  4599  010C                     l3323:	
  4600  010C  3001               	movlw	01h
  4601  010D                     u2945:
  4602  010D  1003               	clrc
  4603  010E  0CF2               	rrf	(___ftpack@arg+2),f
  4604  010F  0CF1               	rrf	(___ftpack@arg+1),f
  4605  0110  0CF0               	rrf	(___ftpack@arg),f
  4606  0111  3EFF               	addlw	-1
  4607  0112  1D03               	skipz
  4608  0113  290D               	goto	u2945
  4609                           
  4610                           	line	74
  4611                           	
  4612  0114                     l1792:	
  4613                           	line	70
  4614  0114  30FF               	movlw	low highword(0FF0000h)
  4615  0115  0572               	andwf	(___ftpack@arg+2),w
  4616  0116  1D03               	btfss	status,2
  4617  0117  2919               	goto	u2951
  4618  0118  291A               	goto	u2950
  4619  0119                     u2951:
  4620  0119  28FE               	goto	l3319
  4621  011A                     u2950:
  4622  011A  2927               	goto	l3327
  4623                           	
  4624  011B                     l1794:	
  4625                           	line	75
  4626  011B  2927               	goto	l3327
  4627                           	
  4628  011C                     l1796:	
  4629                           	line	76
  4630                           	
  4631  011C                     l3325:	
  4632  011C  3001               	movlw	low(01h)
  4633  011D  02F3               	subwf	(___ftpack@exp),f
  4634                           	line	77
  4635  011E  3001               	movlw	01h
  4636  011F                     u2965:
  4637  011F  1003               	clrc
  4638  0120  0DF0               	rlf	(___ftpack@arg),f
  4639  0121  0DF1               	rlf	(___ftpack@arg+1),f
  4640  0122  0DF2               	rlf	(___ftpack@arg+2),f
  4641  0123  3EFF               	addlw	-1
  4642  0124  1D03               	skipz
  4643  0125  291F               	goto	u2965
  4644  0126  2927               	goto	l3327
  4645                           	line	78
  4646                           	
  4647  0127                     l1795:	
  4648                           	line	75
  4649                           	
  4650  0127                     l3327:	
  4651  0127  1FF1               	btfss	(___ftpack@arg+1),(15)&7
  4652  0128  292A               	goto	u2971
  4653  0129  292B               	goto	u2970
  4654  012A                     u2971:
  4655  012A  291C               	goto	l3325
  4656  012B                     u2970:
  4657                           	
  4658  012B                     l1797:	
  4659                           	line	79
  4660  012B  1873               	btfsc	(___ftpack@exp),(0)&7
  4661  012C  292E               	goto	u2981
  4662  012D  292F               	goto	u2980
  4663  012E                     u2981:
  4664  012E  2935               	goto	l1798
  4665  012F                     u2980:
  4666                           	line	80
  4667                           	
  4668  012F                     l3329:	
  4669  012F  30FF               	movlw	0FFh
  4670  0130  05F0               	andwf	(___ftpack@arg),f
  4671  0131  307F               	movlw	07Fh
  4672  0132  05F1               	andwf	(___ftpack@arg+1),f
  4673  0133  30FF               	movlw	0FFh
  4674  0134  05F2               	andwf	(___ftpack@arg+2),f
  4675                           	
  4676  0135                     l1798:	
  4677                           	line	81
  4678  0135  1003               	clrc
  4679  0136  0CF3               	rrf	(___ftpack@exp),f
  4680                           
  4681                           	line	82
  4682                           	
  4683  0137                     l3331:	
  4684  0137  0873               	movf	(___ftpack@exp),w
  4685  0138  00F5               	movwf	((??___ftpack+0)+0)
  4686  0139  01F6               	clrf	((??___ftpack+0)+0+1)
  4687  013A  01F7               	clrf	((??___ftpack+0)+0+2)
  4688  013B  3010               	movlw	010h
  4689  013C                     u2995:
  4690  013C  1003               	clrc
  4691  013D  0DF5               	rlf	(??___ftpack+0)+0,f
  4692  013E  0DF6               	rlf	(??___ftpack+0)+1,f
  4693  013F  0DF7               	rlf	(??___ftpack+0)+2,f
  4694  0140                     u2990:
  4695  0140  3EFF               	addlw	-1
  4696  0141  1D03               	skipz
  4697  0142  293C               	goto	u2995
  4698  0143  0875               	movf	0+(??___ftpack+0)+0,w
  4699  0144  04F0               	iorwf	(___ftpack@arg),f
  4700  0145  0876               	movf	1+(??___ftpack+0)+0,w
  4701  0146  04F1               	iorwf	(___ftpack@arg+1),f
  4702  0147  0877               	movf	2+(??___ftpack+0)+0,w
  4703  0148  04F2               	iorwf	(___ftpack@arg+2),f
  4704                           	line	83
  4705                           	
  4706  0149                     l3333:	
  4707  0149  0874               	movf	(___ftpack@sign),w
  4708  014A  1D03               	skipz
  4709  014B  294D               	goto	u3000
  4710  014C  294E               	goto	l1799
  4711  014D                     u3000:
  4712                           	line	84
  4713                           	
  4714  014D                     l3335:	
  4715  014D  17F2               	bsf	(___ftpack@arg)+(23/8),(23)&7
  4716                           	
  4717  014E                     l1799:	
  4718                           	line	85
  4719                           	line	86
  4720                           	
  4721  014E                     l1788:	
  4722  014E  0008               	return
  4723                           	opt stack 0
  4724                           GLOBAL	__end_of___ftpack
  4725  014F                     	__end_of___ftpack:
  4726 ;; =============== function ___ftpack ends ============
  4727                           
  4728                           	signat	___ftpack,12411
  4729                           	global	___lwmod
  4730                           psect	text534,local,class=CODE,delta=2
  4731                           global __ptext534
  4732  0FBC                     __ptext534:
  4733                           
  4734 ;; *************** function ___lwmod *****************
  4735 ;; Defined at:
  4736 ;;		line 5 in file "C:\Program Files (x86)\HI-TECH Software\PICC\9.83\sources\lwmod.c"
  4737 ;; Parameters:    Size  Location     Type
  4738 ;;  divisor         2    0[COMMON] unsigned int 
  4739 ;;  dividend        2    2[COMMON] unsigned int 
  4740 ;; Auto vars:     Size  Location     Type
  4741 ;;  counter         1    5[COMMON] unsigned char 
  4742 ;; Return value:  Size  Location     Type
  4743 ;;                  2    0[COMMON] unsigned int 
  4744 ;; Registers used:
  4745 ;;		wreg, status,2, status,0
  4746 ;; Tracked objects:
  4747 ;;		On entry : 0/0
  4748 ;;		On exit  : 0/0
  4749 ;;		Unchanged: 0/0
  4750 ;; Data sizes:     COMMON   BANK0   BANK1   BANK3   BANK2
  4751 ;;      Params:         4       0       0       0       0
  4752 ;;      Locals:         1       0       0       0       0
  4753 ;;      Temps:          1       0       0       0       0
  4754 ;;      Totals:         6       0       0       0       0
  4755 ;;Total ram usage:        6 bytes
  4756 ;; Hardware stack levels used:    1
  4757 ;; This function calls:
  4758 ;;		Nothing
  4759 ;; This function is called by:
  4760 ;;		_adc_to_volt
  4761 ;; This function uses a non-reentrant model
  4762 ;;
  4763                           psect	text534
  4764                           	file	"C:\Program Files (x86)\HI-TECH Software\PICC\9.83\sources\lwmod.c"
  4765                           	line	5
  4766                           	global	__size_of___lwmod
  4767  0044                     	__size_of___lwmod	equ	__end_of___lwmod-___lwmod
  4768                           	
  4769  0FBC                     ___lwmod:	
  4770                           	opt	stack 6
  4771                           ; Regs used in ___lwmod: [wreg+status,2+status,0]
  4772                           	line	8
  4773                           	
  4774  0FBC                     l3215:	
  4775  0FBC  0871               	movf	(___lwmod@divisor+1),w
  4776  0FBD  0470               	iorwf	(___lwmod@divisor),w
  4777  0FBE  1903               	skipnz
  4778  0FBF  2FC1               	goto	u2601
  4779  0FC0  2FC2               	goto	u2600
  4780  0FC1                     u2601:
  4781  0FC1  2FF8               	goto	l3233
  4782  0FC2                     u2600:
  4783                           	line	9
  4784                           	
  4785  0FC2                     l3217:	
  4786  0FC2  01F5               	clrf	(___lwmod@counter)
  4787  0FC3  1403               	bsf	status,0
  4788  0FC4  0DF5               	rlf	(___lwmod@counter),f
  4789                           	line	10
  4790  0FC5  2FD2               	goto	l3223
  4791                           	
  4792  0FC6                     l1471:	
  4793                           	line	11
  4794                           	
  4795  0FC6                     l3219:	
  4796  0FC6  3001               	movlw	01h
  4797                           	
  4798  0FC7                     u2615:
  4799  0FC7  1003               	clrc
  4800  0FC8  0DF0               	rlf	(___lwmod@divisor),f
  4801  0FC9  0DF1               	rlf	(___lwmod@divisor+1),f
  4802  0FCA  3EFF               	addlw	-1
  4803  0FCB  1D03               	skipz
  4804  0FCC  2FC7               	goto	u2615
  4805                           	line	12
  4806                           	
  4807  0FCD                     l3221:	
  4808  0FCD  3001               	movlw	(01h)
  4809  0FCE  00F4               	movwf	(??___lwmod+0)+0
  4810  0FCF  0874               	movf	(??___lwmod+0)+0,w
  4811  0FD0  07F5               	addwf	(___lwmod@counter),f
  4812  0FD1  2FD2               	goto	l3223
  4813                           	line	13
  4814                           	
  4815  0FD2                     l1470:	
  4816                           	line	10
  4817                           	
  4818  0FD2                     l3223:	
  4819  0FD2  1FF1               	btfss	(___lwmod@divisor+1),(15)&7
  4820  0FD3  2FD5               	goto	u2621
  4821  0FD4  2FD6               	goto	u2620
  4822  0FD5                     u2621:
  4823  0FD5  2FC6               	goto	l3219
  4824  0FD6                     u2620:
  4825  0FD6  2FD8               	goto	l3225
  4826                           	
  4827  0FD7                     l1472:	
  4828  0FD7  2FD8               	goto	l3225
  4829                           	line	14
  4830                           	
  4831  0FD8                     l1473:	
  4832                           	line	15
  4833                           	
  4834  0FD8                     l3225:	
  4835  0FD8  0871               	movf	(___lwmod@divisor+1),w
  4836  0FD9  0273               	subwf	(___lwmod@dividend+1),w
  4837  0FDA  1D03               	skipz
  4838  0FDB  2FDE               	goto	u2635
  4839  0FDC  0870               	movf	(___lwmod@divisor),w
  4840  0FDD  0272               	subwf	(___lwmod@dividend),w
  4841  0FDE                     u2635:
  4842  0FDE  1C03               	skipc
  4843  0FDF  2FE1               	goto	u2631
  4844  0FE0  2FE2               	goto	u2630
  4845  0FE1                     u2631:
  4846  0FE1  2FE9               	goto	l3229
  4847  0FE2                     u2630:
  4848                           	line	16
  4849                           	
  4850  0FE2                     l3227:	
  4851  0FE2  0870               	movf	(___lwmod@divisor),w
  4852  0FE3  02F2               	subwf	(___lwmod@dividend),f
  4853  0FE4  0871               	movf	(___lwmod@divisor+1),w
  4854  0FE5  1C03               	skipc
  4855  0FE6  03F3               	decf	(___lwmod@dividend+1),f
  4856  0FE7  02F3               	subwf	(___lwmod@dividend+1),f
  4857  0FE8  2FE9               	goto	l3229
  4858                           	
  4859  0FE9                     l1474:	
  4860                           	line	17
  4861                           	
  4862  0FE9                     l3229:	
  4863  0FE9  3001               	movlw	01h
  4864                           	
  4865  0FEA                     u2645:
  4866  0FEA  1003               	clrc
  4867  0FEB  0CF1               	rrf	(___lwmod@divisor+1),f
  4868  0FEC  0CF0               	rrf	(___lwmod@divisor),f
  4869  0FED  3EFF               	addlw	-1
  4870  0FEE  1D03               	skipz
  4871  0FEF  2FEA               	goto	u2645
  4872                           	line	18
  4873                           	
  4874  0FF0                     l3231:	
  4875  0FF0  3001               	movlw	low(01h)
  4876  0FF1  02F5               	subwf	(___lwmod@counter),f
  4877  0FF2  1D03               	btfss	status,2
  4878  0FF3  2FF5               	goto	u2651
  4879  0FF4  2FF6               	goto	u2650
  4880  0FF5                     u2651:
  4881  0FF5  2FD8               	goto	l3225
  4882  0FF6                     u2650:
  4883  0FF6  2FF8               	goto	l3233
  4884                           	
  4885  0FF7                     l1475:	
  4886  0FF7  2FF8               	goto	l3233
  4887                           	line	19
  4888                           	
  4889  0FF8                     l1469:	
  4890                           	line	20
  4891                           	
  4892  0FF8                     l3233:	
  4893  0FF8  0873               	movf	(___lwmod@dividend+1),w
  4894  0FF9  01F1               	clrf	(?___lwmod+1)
  4895  0FFA  07F1               	addwf	(?___lwmod+1)
  4896  0FFB  0872               	movf	(___lwmod@dividend),w
  4897  0FFC  01F0               	clrf	(?___lwmod)
  4898  0FFD  07F0               	addwf	(?___lwmod)
  4899                           
  4900  0FFE  2FFF               	goto	l1476
  4901                           	
  4902  0FFF                     l3235:	
  4903                           	line	21
  4904                           	
  4905  0FFF                     l1476:	
  4906  0FFF  0008               	return
  4907                           	opt stack 0
  4908                           GLOBAL	__end_of___lwmod
  4909  1000                     	__end_of___lwmod:
  4910 ;; =============== function ___lwmod ends ============
  4911                           
  4912                           	signat	___lwmod,8314
  4913                           	global	___lwdiv
  4914                           psect	text535,local,class=CODE,delta=2
  4915                           global __ptext535
  4916  0086                     __ptext535:
  4917                           
  4918 ;; *************** function ___lwdiv *****************
  4919 ;; Defined at:
  4920 ;;		line 5 in file "C:\Program Files (x86)\HI-TECH Software\PICC\9.83\sources\lwdiv.c"
  4921 ;; Parameters:    Size  Location     Type
  4922 ;;  divisor         2    0[COMMON] unsigned int 
  4923 ;;  dividend        2    2[COMMON] unsigned int 
  4924 ;; Auto vars:     Size  Location     Type
  4925 ;;  quotient        2    5[COMMON] unsigned int 
  4926 ;;  counter         1    7[COMMON] unsigned char 
  4927 ;; Return value:  Size  Location     Type
  4928 ;;                  2    0[COMMON] unsigned int 
  4929 ;; Registers used:
  4930 ;;		wreg, status,2, status,0
  4931 ;; Tracked objects:
  4932 ;;		On entry : 0/0
  4933 ;;		On exit  : 0/0
  4934 ;;		Unchanged: 0/0
  4935 ;; Data sizes:     COMMON   BANK0   BANK1   BANK3   BANK2
  4936 ;;      Params:         4       0       0       0       0
  4937 ;;      Locals:         3       0       0       0       0
  4938 ;;      Temps:          1       0       0       0       0
  4939 ;;      Totals:         8       0       0       0       0
  4940 ;;Total ram usage:        8 bytes
  4941 ;; Hardware stack levels used:    1
  4942 ;; This function calls:
  4943 ;;		Nothing
  4944 ;; This function is called by:
  4945 ;;		_adc_to_volt
  4946 ;; This function uses a non-reentrant model
  4947 ;;
  4948                           psect	text535
  4949                           	file	"C:\Program Files (x86)\HI-TECH Software\PICC\9.83\sources\lwdiv.c"
  4950                           	line	5
  4951                           	global	__size_of___lwdiv
  4952  004E                     	__size_of___lwdiv	equ	__end_of___lwdiv-___lwdiv
  4953                           	
  4954  0086                     ___lwdiv:	
  4955                           	opt	stack 6
  4956                           ; Regs used in ___lwdiv: [wreg+status,2+status,0]
  4957                           	line	9
  4958                           	
  4959  0086                     l3189:	
  4960  0086  01F5               	clrf	(___lwdiv@quotient)
  4961  0087  01F6               	clrf	(___lwdiv@quotient+1)
  4962                           	line	10
  4963                           	
  4964  0088                     l3191:	
  4965  0088  0871               	movf	(___lwdiv@divisor+1),w
  4966  0089  0470               	iorwf	(___lwdiv@divisor),w
  4967  008A  1903               	skipnz
  4968  008B  288D               	goto	u2531
  4969  008C  288E               	goto	u2530
  4970  008D                     u2531:
  4971  008D  28CC               	goto	l3211
  4972  008E                     u2530:
  4973                           	line	11
  4974                           	
  4975  008E                     l3193:	
  4976  008E  01F7               	clrf	(___lwdiv@counter)
  4977  008F  1403               	bsf	status,0
  4978  0090  0DF7               	rlf	(___lwdiv@counter),f
  4979                           	line	12
  4980  0091  289E               	goto	l3199
  4981                           	
  4982  0092                     l1461:	
  4983                           	line	13
  4984                           	
  4985  0092                     l3195:	
  4986  0092  3001               	movlw	01h
  4987                           	
  4988  0093                     u2545:
  4989  0093  1003               	clrc
  4990  0094  0DF0               	rlf	(___lwdiv@divisor),f
  4991  0095  0DF1               	rlf	(___lwdiv@divisor+1),f
  4992  0096  3EFF               	addlw	-1
  4993  0097  1D03               	skipz
  4994  0098  2893               	goto	u2545
  4995                           	line	14
  4996                           	
  4997  0099                     l3197:	
  4998  0099  3001               	movlw	(01h)
  4999  009A  00F4               	movwf	(??___lwdiv+0)+0
  5000  009B  0874               	movf	(??___lwdiv+0)+0,w
  5001  009C  07F7               	addwf	(___lwdiv@counter),f
  5002  009D  289E               	goto	l3199
  5003                           	line	15
  5004                           	
  5005  009E                     l1460:	
  5006                           	line	12
  5007                           	
  5008  009E                     l3199:	
  5009  009E  1FF1               	btfss	(___lwdiv@divisor+1),(15)&7
  5010  009F  28A1               	goto	u2551
  5011  00A0  28A2               	goto	u2550
  5012  00A1                     u2551:
  5013  00A1  2892               	goto	l3195
  5014  00A2                     u2550:
  5015  00A2  28A4               	goto	l3201
  5016                           	
  5017  00A3                     l1462:	
  5018  00A3  28A4               	goto	l3201
  5019                           	line	16
  5020                           	
  5021  00A4                     l1463:	
  5022                           	line	17
  5023                           	
  5024  00A4                     l3201:	
  5025  00A4  3001               	movlw	01h
  5026                           	
  5027  00A5                     u2565:
  5028  00A5  1003               	clrc
  5029  00A6  0DF5               	rlf	(___lwdiv@quotient),f
  5030  00A7  0DF6               	rlf	(___lwdiv@quotient+1),f
  5031  00A8  3EFF               	addlw	-1
  5032  00A9  1D03               	skipz
  5033  00AA  28A5               	goto	u2565
  5034                           	line	18
  5035  00AB  0871               	movf	(___lwdiv@divisor+1),w
  5036  00AC  0273               	subwf	(___lwdiv@dividend+1),w
  5037  00AD  1D03               	skipz
  5038  00AE  28B1               	goto	u2575
  5039  00AF  0870               	movf	(___lwdiv@divisor),w
  5040  00B0  0272               	subwf	(___lwdiv@dividend),w
  5041  00B1                     u2575:
  5042  00B1  1C03               	skipc
  5043  00B2  28B4               	goto	u2571
  5044  00B3  28B5               	goto	u2570
  5045  00B4                     u2571:
  5046  00B4  28BD               	goto	l3207
  5047  00B5                     u2570:
  5048                           	line	19
  5049                           	
  5050  00B5                     l3203:	
  5051  00B5  0870               	movf	(___lwdiv@divisor),w
  5052  00B6  02F2               	subwf	(___lwdiv@dividend),f
  5053  00B7  0871               	movf	(___lwdiv@divisor+1),w
  5054  00B8  1C03               	skipc
  5055  00B9  03F3               	decf	(___lwdiv@dividend+1),f
  5056  00BA  02F3               	subwf	(___lwdiv@dividend+1),f
  5057                           	line	20
  5058                           	
  5059  00BB                     l3205:	
  5060  00BB  1475               	bsf	(___lwdiv@quotient)+(0/8),(0)&7
  5061  00BC  28BD               	goto	l3207
  5062                           	line	21
  5063                           	
  5064  00BD                     l1464:	
  5065                           	line	22
  5066                           	
  5067  00BD                     l3207:	
  5068  00BD  3001               	movlw	01h
  5069                           	
  5070  00BE                     u2585:
  5071  00BE  1003               	clrc
  5072  00BF  0CF1               	rrf	(___lwdiv@divisor+1),f
  5073  00C0  0CF0               	rrf	(___lwdiv@divisor),f
  5074  00C1  3EFF               	addlw	-1
  5075  00C2  1D03               	skipz
  5076  00C3  28BE               	goto	u2585
  5077                           	line	23
  5078                           	
  5079  00C4                     l3209:	
  5080  00C4  3001               	movlw	low(01h)
  5081  00C5  02F7               	subwf	(___lwdiv@counter),f
  5082  00C6  1D03               	btfss	status,2
  5083  00C7  28C9               	goto	u2591
  5084  00C8  28CA               	goto	u2590
  5085  00C9                     u2591:
  5086  00C9  28A4               	goto	l3201
  5087  00CA                     u2590:
  5088  00CA  28CC               	goto	l3211
  5089                           	
  5090  00CB                     l1465:	
  5091  00CB  28CC               	goto	l3211
  5092                           	line	24
  5093                           	
  5094  00CC                     l1459:	
  5095                           	line	25
  5096                           	
  5097  00CC                     l3211:	
  5098  00CC  0876               	movf	(___lwdiv@quotient+1),w
  5099  00CD  01F1               	clrf	(?___lwdiv+1)
  5100  00CE  07F1               	addwf	(?___lwdiv+1)
  5101  00CF  0875               	movf	(___lwdiv@quotient),w
  5102  00D0  01F0               	clrf	(?___lwdiv)
  5103  00D1  07F0               	addwf	(?___lwdiv)
  5104                           
  5105  00D2  28D3               	goto	l1466
  5106                           	
  5107  00D3                     l3213:	
  5108                           	line	26
  5109                           	
  5110  00D3                     l1466:	
  5111  00D3  0008               	return
  5112                           	opt stack 0
  5113                           GLOBAL	__end_of___lwdiv
  5114  00D4                     	__end_of___lwdiv:
  5115 ;; =============== function ___lwdiv ends ============
  5116                           
  5117                           	signat	___lwdiv,8314
  5118                           	global	___wmul
  5119                           psect	text536,local,class=CODE,delta=2
  5120                           global __ptext536
  5121  0E58                     __ptext536:
  5122                           
  5123 ;; *************** function ___wmul *****************
  5124 ;; Defined at:
  5125 ;;		line 3 in file "C:\Program Files (x86)\HI-TECH Software\PICC\9.83\sources\wmul.c"
  5126 ;; Parameters:    Size  Location     Type
  5127 ;;  multiplier      2    0[COMMON] unsigned int 
  5128 ;;  multiplicand    2    2[COMMON] unsigned int 
  5129 ;; Auto vars:     Size  Location     Type
  5130 ;;  product         2    4[COMMON] unsigned int 
  5131 ;; Return value:  Size  Location     Type
  5132 ;;                  2    0[COMMON] unsigned int 
  5133 ;; Registers used:
  5134 ;;		wreg, status,2, status,0
  5135 ;; Tracked objects:
  5136 ;;		On entry : 0/0
  5137 ;;		On exit  : 0/0
  5138 ;;		Unchanged: 0/0
  5139 ;; Data sizes:     COMMON   BANK0   BANK1   BANK3   BANK2
  5140 ;;      Params:         4       0       0       0       0
  5141 ;;      Locals:         2       0       0       0       0
  5142 ;;      Temps:          0       0       0       0       0
  5143 ;;      Totals:         6       0       0       0       0
  5144 ;;Total ram usage:        6 bytes
  5145 ;; Hardware stack levels used:    1
  5146 ;; This function calls:
  5147 ;;		Nothing
  5148 ;; This function is called by:
  5149 ;;		_adc_to_volt
  5150 ;; This function uses a non-reentrant model
  5151 ;;
  5152                           psect	text536
  5153                           	file	"C:\Program Files (x86)\HI-TECH Software\PICC\9.83\sources\wmul.c"
  5154                           	line	3
  5155                           	global	__size_of___wmul
  5156  002A                     	__size_of___wmul	equ	__end_of___wmul-___wmul
  5157                           	
  5158  0E58                     ___wmul:	
  5159                           	opt	stack 6
  5160                           ; Regs used in ___wmul: [wreg+status,2+status,0]
  5161                           	line	4
  5162                           	
  5163  0E58                     l3177:	
  5164  0E58  01F4               	clrf	(___wmul@product)
  5165  0E59  01F5               	clrf	(___wmul@product+1)
  5166  0E5A  2E5B               	goto	l3179
  5167                           	line	6
  5168                           	
  5169  0E5B                     l1453:	
  5170                           	line	7
  5171                           	
  5172  0E5B                     l3179:	
  5173  0E5B  1C70               	btfss	(___wmul@multiplier),(0)&7
  5174  0E5C  2E5E               	goto	u2491
  5175  0E5D  2E5F               	goto	u2490
  5176  0E5E                     u2491:
  5177  0E5E  2E65               	goto	l1454
  5178  0E5F                     u2490:
  5179                           	line	8
  5180                           	
  5181  0E5F                     l3181:	
  5182  0E5F  0872               	movf	(___wmul@multiplicand),w
  5183  0E60  07F4               	addwf	(___wmul@product),f
  5184  0E61  1803               	skipnc
  5185  0E62  0AF5               	incf	(___wmul@product+1),f
  5186  0E63  0873               	movf	(___wmul@multiplicand+1),w
  5187  0E64  07F5               	addwf	(___wmul@product+1),f
  5188                           	
  5189  0E65                     l1454:	
  5190                           	line	9
  5191  0E65  3001               	movlw	01h
  5192                           	
  5193  0E66                     u2505:
  5194  0E66  1003               	clrc
  5195  0E67  0DF2               	rlf	(___wmul@multiplicand),f
  5196  0E68  0DF3               	rlf	(___wmul@multiplicand+1),f
  5197  0E69  3EFF               	addlw	-1
  5198  0E6A  1D03               	skipz
  5199  0E6B  2E66               	goto	u2505
  5200                           	line	10
  5201                           	
  5202  0E6C                     l3183:	
  5203  0E6C  3001               	movlw	01h
  5204                           	
  5205  0E6D                     u2515:
  5206  0E6D  1003               	clrc
  5207  0E6E  0CF1               	rrf	(___wmul@multiplier+1),f
  5208  0E6F  0CF0               	rrf	(___wmul@multiplier),f
  5209  0E70  3EFF               	addlw	-1
  5210  0E71  1D03               	skipz
  5211  0E72  2E6D               	goto	u2515
  5212                           	line	11
  5213  0E73  0871               	movf	((___wmul@multiplier+1)),w
  5214  0E74  0470               	iorwf	((___wmul@multiplier)),w
  5215  0E75  1D03               	skipz
  5216  0E76  2E78               	goto	u2521
  5217  0E77  2E79               	goto	u2520
  5218  0E78                     u2521:
  5219  0E78  2E5B               	goto	l3179
  5220  0E79                     u2520:
  5221  0E79  2E7A               	goto	l3185
  5222                           	
  5223  0E7A                     l1455:	
  5224                           	line	12
  5225                           	
  5226  0E7A                     l3185:	
  5227  0E7A  0875               	movf	(___wmul@product+1),w
  5228  0E7B  01F1               	clrf	(?___wmul+1)
  5229  0E7C  07F1               	addwf	(?___wmul+1)
  5230  0E7D  0874               	movf	(___wmul@product),w
  5231  0E7E  01F0               	clrf	(?___wmul)
  5232  0E7F  07F0               	addwf	(?___wmul)
  5233                           
  5234  0E80  2E81               	goto	l1456
  5235                           	
  5236  0E81                     l3187:	
  5237                           	line	13
  5238                           	
  5239  0E81                     l1456:	
  5240  0E81  0008               	return
  5241                           	opt stack 0
  5242                           GLOBAL	__end_of___wmul
  5243  0E82                     	__end_of___wmul:
  5244 ;; =============== function ___wmul ends ============
  5245                           
  5246                           	signat	___wmul,8314
  5247                           	global	_PWM1_Start
  5248                           psect	text537,local,class=CODE,delta=2
  5249                           global __ptext537
  5250  0E20                     __ptext537:
  5251                           
  5252 ;; *************** function _PWM1_Start *****************
  5253 ;; Defined at:
  5254 ;;		line 250 in file "F:\pic projects\solar charge\solar charge.c"
  5255 ;; Parameters:    Size  Location     Type
  5256 ;;		None
  5257 ;; Auto vars:     Size  Location     Type
  5258 ;;		None
  5259 ;; Return value:  Size  Location     Type
  5260 ;;		None               void
  5261 ;; Registers used:
  5262 ;;		None
  5263 ;; Tracked objects:
  5264 ;;		On entry : 0/0
  5265 ;;		On exit  : 0/0
  5266 ;;		Unchanged: 0/0
  5267 ;; Data sizes:     COMMON   BANK0   BANK1   BANK3   BANK2
  5268 ;;      Params:         0       0       0       0       0
  5269 ;;      Locals:         0       0       0       0       0
  5270 ;;      Temps:          0       0       0       0       0
  5271 ;;      Totals:         0       0       0       0       0
  5272 ;;Total ram usage:        0 bytes
  5273 ;; Hardware stack levels used:    1
  5274 ;; This function calls:
  5275 ;;		Nothing
  5276 ;; This function is called by:
  5277 ;;		_main
  5278 ;; This function uses a non-reentrant model
  5279 ;;
  5280                           psect	text537
  5281                           	file	"F:\pic projects\solar charge\solar charge.c"
  5282                           	line	250
  5283                           	global	__size_of_PWM1_Start
  5284  0009                     	__size_of_PWM1_Start	equ	__end_of_PWM1_Start-_PWM1_Start
  5285                           	
  5286  0E20                     _PWM1_Start:	
  5287                           	opt	stack 7
  5288                           ; Regs used in _PWM1_Start: []
  5289                           	line	251
  5290                           	
  5291  0E20                     l3175:	
  5292                           ;solar charge.c: 251: CCP1M3 = 1;
  5293  0E20  1283               	bcf	status, 5	;RP0=0, select bank0
  5294  0E21  1303               	bcf	status, 6	;RP1=0, select bank0
  5295  0E22  1597               	bsf	(187/8),(187)&7
  5296                           	line	252
  5297                           ;solar charge.c: 252: CCP1M2 = 1;
  5298  0E23  1517               	bsf	(186/8),(186)&7
  5299                           	line	253
  5300                           ;solar charge.c: 253: TMR2ON = 1;
  5301  0E24  1512               	bsf	(146/8),(146)&7
  5302                           	line	254
  5303                           ;solar charge.c: 254: TRISC2 = 0;
  5304  0E25  1683               	bsf	status, 5	;RP0=1, select bank1
  5305  0E26  1303               	bcf	status, 6	;RP1=0, select bank1
  5306  0E27  1107               	bcf	(1082/8)^080h,(1082)&7
  5307                           	line	255
  5308                           	
  5309  0E28                     l767:	
  5310  0E28  0008               	return
  5311                           	opt stack 0
  5312                           GLOBAL	__end_of_PWM1_Start
  5313  0E29                     	__end_of_PWM1_Start:
  5314 ;; =============== function _PWM1_Start ends ============
  5315                           
  5316                           	signat	_PWM1_Start,88
  5317                           	global	_PWM1_Stop
  5318                           psect	text538,local,class=CODE,delta=2
  5319                           global __ptext538
  5320  0E0B                     __ptext538:
  5321                           
  5322 ;; *************** function _PWM1_Stop *****************
  5323 ;; Defined at:
  5324 ;;		line 258 in file "F:\pic projects\solar charge\solar charge.c"
  5325 ;; Parameters:    Size  Location     Type
  5326 ;;		None
  5327 ;; Auto vars:     Size  Location     Type
  5328 ;;		None
  5329 ;; Return value:  Size  Location     Type
  5330 ;;		None               void
  5331 ;; Registers used:
  5332 ;;		None
  5333 ;; Tracked objects:
  5334 ;;		On entry : 0/0
  5335 ;;		On exit  : 0/0
  5336 ;;		Unchanged: 0/0
  5337 ;; Data sizes:     COMMON   BANK0   BANK1   BANK3   BANK2
  5338 ;;      Params:         0       0       0       0       0
  5339 ;;      Locals:         0       0       0       0       0
  5340 ;;      Temps:          0       0       0       0       0
  5341 ;;      Totals:         0       0       0       0       0
  5342 ;;Total ram usage:        0 bytes
  5343 ;; Hardware stack levels used:    1
  5344 ;; This function calls:
  5345 ;;		Nothing
  5346 ;; This function is called by:
  5347 ;;		_main
  5348 ;; This function uses a non-reentrant model
  5349 ;;
  5350                           psect	text538
  5351                           	file	"F:\pic projects\solar charge\solar charge.c"
  5352                           	line	258
  5353                           	global	__size_of_PWM1_Stop
  5354  0005                     	__size_of_PWM1_Stop	equ	__end_of_PWM1_Stop-_PWM1_Stop
  5355                           	
  5356  0E0B                     _PWM1_Stop:	
  5357                           	opt	stack 7
  5358                           ; Regs used in _PWM1_Stop: []
  5359                           	line	259
  5360                           	
  5361  0E0B                     l3173:	
  5362                           ;solar charge.c: 259: CCP1M3 = 0;
  5363  0E0B  1283               	bcf	status, 5	;RP0=0, select bank0
  5364  0E0C  1303               	bcf	status, 6	;RP1=0, select bank0
  5365  0E0D  1197               	bcf	(187/8),(187)&7
  5366                           	line	260
  5367                           ;solar charge.c: 260: CCP1M2 = 0;
  5368  0E0E  1117               	bcf	(186/8),(186)&7
  5369                           	line	261
  5370                           	
  5371  0E0F                     l770:	
  5372  0E0F  0008               	return
  5373                           	opt stack 0
  5374                           GLOBAL	__end_of_PWM1_Stop
  5375  0E10                     	__end_of_PWM1_Stop:
  5376 ;; =============== function _PWM1_Stop ends ============
  5377                           
  5378                           	signat	_PWM1_Stop,88
  5379                           	global	_delay
  5380                           psect	text539,local,class=CODE,delta=2
  5381                           global __ptext539
  5382  0EDE                     __ptext539:
  5383                           
  5384 ;; *************** function _delay *****************
  5385 ;; Defined at:
  5386 ;;		line 129 in file "F:\pic projects\solar charge\solar charge.c"
  5387 ;; Parameters:    Size  Location     Type
  5388 ;;  d               2    0[COMMON] unsigned int 
  5389 ;; Auto vars:     Size  Location     Type
  5390 ;;  k               2    4[COMMON] unsigned int 
  5391 ;;  h               2    2[COMMON] unsigned int 
  5392 ;; Return value:  Size  Location     Type
  5393 ;;		None               void
  5394 ;; Registers used:
  5395 ;;		wreg, status,2
  5396 ;; Tracked objects:
  5397 ;;		On entry : 0/0
  5398 ;;		On exit  : 0/0
  5399 ;;		Unchanged: 0/0
  5400 ;; Data sizes:     COMMON   BANK0   BANK1   BANK3   BANK2
  5401 ;;      Params:         2       0       0       0       0
  5402 ;;      Locals:         4       0       0       0       0
  5403 ;;      Temps:          0       0       0       0       0
  5404 ;;      Totals:         6       0       0       0       0
  5405 ;;Total ram usage:        6 bytes
  5406 ;; Hardware stack levels used:    1
  5407 ;; This function calls:
  5408 ;;		Nothing
  5409 ;; This function is called by:
  5410 ;;		_main
  5411 ;;		_lcdcmd
  5412 ;;		_lcddata
  5413 ;;		_display
  5414 ;;		_ADC_Read
  5415 ;;		_adc_to_volt
  5416 ;; This function uses a non-reentrant model
  5417 ;;
  5418                           psect	text539
  5419                           	file	"F:\pic projects\solar charge\solar charge.c"
  5420                           	line	129
  5421                           	global	__size_of_delay
  5422  0032                     	__size_of_delay	equ	__end_of_delay-_delay
  5423                           	
  5424  0EDE                     _delay:	
  5425                           	opt	stack 6
  5426                           ; Regs used in _delay: [wreg+status,2]
  5427                           	line	131
  5428                           	
  5429  0EDE                     l3161:	
  5430                           ;solar charge.c: 130: unsigned int k,h;
  5431                           ;solar charge.c: 131: for(h=0;h<d;h++)
  5432  0EDE  01F2               	clrf	(delay@h)
  5433  0EDF  01F3               	clrf	(delay@h+1)
  5434  0EE0  2F04               	goto	l724
  5435                           	line	133
  5436                           	
  5437  0EE1                     l725:	
  5438                           	line	134
  5439                           	
  5440  0EE1                     l3163:	
  5441                           ;solar charge.c: 133: {
  5442                           ;solar charge.c: 134: for(k=0;k<=250;k++)
  5443  0EE1  01F4               	clrf	(delay@k)
  5444  0EE2  01F5               	clrf	(delay@k+1)
  5445                           	
  5446  0EE3                     l3165:	
  5447  0EE3  3000               	movlw	high(0FBh)
  5448  0EE4  0275               	subwf	(delay@k+1),w
  5449  0EE5  30FB               	movlw	low(0FBh)
  5450  0EE6  1903               	skipnz
  5451  0EE7  0274               	subwf	(delay@k),w
  5452  0EE8  1C03               	skipc
  5453  0EE9  2EEB               	goto	u2461
  5454  0EEA  2EEC               	goto	u2460
  5455  0EEB                     u2461:
  5456  0EEB  2EEE               	goto	l3169
  5457  0EEC                     u2460:
  5458  0EEC  2EFE               	goto	l3171
  5459                           	
  5460  0EED                     l3167:	
  5461  0EED  2EFE               	goto	l3171
  5462                           	line	135
  5463                           	
  5464  0EEE                     l726:	
  5465                           	line	134
  5466                           	
  5467  0EEE                     l3169:	
  5468                           ;solar charge.c: 135: {
  5469  0EEE  3001               	movlw	low(01h)
  5470  0EEF  07F4               	addwf	(delay@k),f
  5471  0EF0  1803               	skipnc
  5472  0EF1  0AF5               	incf	(delay@k+1),f
  5473  0EF2  3000               	movlw	high(01h)
  5474  0EF3  07F5               	addwf	(delay@k+1),f
  5475  0EF4  3000               	movlw	high(0FBh)
  5476  0EF5  0275               	subwf	(delay@k+1),w
  5477  0EF6  30FB               	movlw	low(0FBh)
  5478  0EF7  1903               	skipnz
  5479  0EF8  0274               	subwf	(delay@k),w
  5480  0EF9  1C03               	skipc
  5481  0EFA  2EFC               	goto	u2471
  5482  0EFB  2EFD               	goto	u2470
  5483  0EFC                     u2471:
  5484  0EFC  2EEE               	goto	l3169
  5485  0EFD                     u2470:
  5486  0EFD  2EFE               	goto	l3171
  5487                           	
  5488  0EFE                     l727:	
  5489                           	line	131
  5490                           	
  5491  0EFE                     l3171:	
  5492  0EFE  3001               	movlw	low(01h)
  5493  0EFF  07F2               	addwf	(delay@h),f
  5494  0F00  1803               	skipnc
  5495  0F01  0AF3               	incf	(delay@h+1),f
  5496  0F02  3000               	movlw	high(01h)
  5497  0F03  07F3               	addwf	(delay@h+1),f
  5498                           	
  5499  0F04                     l724:	
  5500  0F04  0871               	movf	(delay@d+1),w
  5501  0F05  0273               	subwf	(delay@h+1),w
  5502  0F06  1D03               	skipz
  5503  0F07  2F0A               	goto	u2485
  5504  0F08  0870               	movf	(delay@d),w
  5505  0F09  0272               	subwf	(delay@h),w
  5506  0F0A                     u2485:
  5507  0F0A  1C03               	skipc
  5508  0F0B  2F0D               	goto	u2481
  5509  0F0C  2F0E               	goto	u2480
  5510  0F0D                     u2481:
  5511  0F0D  2EE1               	goto	l3163
  5512  0F0E                     u2480:
  5513  0F0E  2F0F               	goto	l729
  5514                           	
  5515  0F0F                     l728:	
  5516                           	line	139
  5517                           ;solar charge.c: 136: }
  5518                           ;solar charge.c: 137: }
  5519                           ;solar charge.c: 138: return;
  5520                           	
  5521  0F0F                     l729:	
  5522  0F0F  0008               	return
  5523                           	opt stack 0
  5524                           GLOBAL	__end_of_delay
  5525  0F10                     	__end_of_delay:
  5526 ;; =============== function _delay ends ============
  5527                           
  5528                           	signat	_delay,4216
  5529                           	global	_ADC_Init
  5530                           psect	text540,local,class=CODE,delta=2
  5531                           global __ptext540
  5532  0E17                     __ptext540:
  5533                           
  5534 ;; *************** function _ADC_Init *****************
  5535 ;; Defined at:
  5536 ;;		line 178 in file "F:\pic projects\solar charge\solar charge.c"
  5537 ;; Parameters:    Size  Location     Type
  5538 ;;		None
  5539 ;; Auto vars:     Size  Location     Type
  5540 ;;		None
  5541 ;; Return value:  Size  Location     Type
  5542 ;;		None               void
  5543 ;; Registers used:
  5544 ;;		wreg
  5545 ;; Tracked objects:
  5546 ;;		On entry : 0/0
  5547 ;;		On exit  : 0/0
  5548 ;;		Unchanged: 0/0
  5549 ;; Data sizes:     COMMON   BANK0   BANK1   BANK3   BANK2
  5550 ;;      Params:         0       0       0       0       0
  5551 ;;      Locals:         0       0       0       0       0
  5552 ;;      Temps:          0       0       0       0       0
  5553 ;;      Totals:         0       0       0       0       0
  5554 ;;Total ram usage:        0 bytes
  5555 ;; Hardware stack levels used:    1
  5556 ;; This function calls:
  5557 ;;		Nothing
  5558 ;; This function is called by:
  5559 ;;		_main
  5560 ;; This function uses a non-reentrant model
  5561 ;;
  5562                           psect	text540
  5563                           	file	"F:\pic projects\solar charge\solar charge.c"
  5564                           	line	178
  5565                           	global	__size_of_ADC_Init
  5566  0009                     	__size_of_ADC_Init	equ	__end_of_ADC_Init-_ADC_Init
  5567                           	
  5568  0E17                     _ADC_Init:	
  5569                           	opt	stack 7
  5570                           ; Regs used in _ADC_Init: [wreg]
  5571                           	line	179
  5572                           	
  5573  0E17                     l3159:	
  5574                           ;solar charge.c: 179: ADCON0 = 0x41;
  5575  0E17  3041               	movlw	(041h)
  5576  0E18  1283               	bcf	status, 5	;RP0=0, select bank0
  5577  0E19  1303               	bcf	status, 6	;RP1=0, select bank0
  5578  0E1A  009F               	movwf	(31)	;volatile
  5579                           	line	180
  5580                           ;solar charge.c: 180: ADCON1 = 0x40;
  5581  0E1B  3040               	movlw	(040h)
  5582  0E1C  1683               	bsf	status, 5	;RP0=1, select bank1
  5583  0E1D  1303               	bcf	status, 6	;RP1=0, select bank1
  5584  0E1E  009F               	movwf	(159)^080h	;volatile
  5585                           	line	182
  5586                           	
  5587  0E1F                     l744:	
  5588  0E1F  0008               	return
  5589                           	opt stack 0
  5590                           GLOBAL	__end_of_ADC_Init
  5591  0E20                     	__end_of_ADC_Init:
  5592 ;; =============== function _ADC_Init ends ============
  5593                           
  5594                           	signat	_ADC_Init,88
  5595                           psect	text541,local,class=CODE,delta=2
  5596                           global __ptext541
  5597  0000                     __ptext541:
  5598                           	global	btemp
  5599  007E                     	btemp set 07Eh
  5600                           
  5601                           	DABS	1,126,2	;btemp
  5602                           	global	wtemp0
  5603  007E                     	wtemp0 set btemp


HI-TECH Software PICC Macro Assembler V9.83 build 10920 
Symbol Table                                                                                   Sat Nov 08 12:25:59 2014

                    _u 005E                      pc 0002                     _RD 0C60                     _WR 0C61  
                   fsr 0004    ___wmul@multiplicand 0072                    l711 06A0                    l720 07FD  
                  l712 0744                    l721 07FD                    l713 0771                    l714 0799  
                  l715 07A9                    l724 0F04                    l732 0E3C                    l740 0EDD  
                  l716 07C1                    l725 0EE1                    l741 0EDD                    l717 07D8  
                  l726 0EEE                    l750 0F6D                    l718 07F2                    l727 0EFE  
                  l751 0F72                    l735 0085                    l719 07FC                    l744 0E1F  
                  l728 0F0F                    l760 0FBB                    l729 0F0F                    l770 0E0F  
                  l738 0ED0                    l754 0612                    l747 0F4D                    l739 0EB0  
                  l763 01CD                    l748 0F7A                    l764 01CD                    l749 0F6D  
                  l757 0F41                    l767 0E28                    _GIE 005F                    _RC2 003A  
                  _RC4 003C                    _RD6 0046                    _RD7 0047                    _PR2 0092  
          lcdcmd@value 0076                    fsr0 0004   __size_of_adc_to_volt 0141            main@battery 0058  
         ___ftdiv@cntr 003D           ___ftdiv@sign 0042                   l3201 00A4                   l3203 00B5  
                 l3211 00CC                   l1460 009E                   l1453 0E5B                   l3213 00D3  
                 l3205 00BB                   l1461 0092                   l3221 0FCD                   l1541 0337  
                 l1454 0E65                   l1462 00A3                   l1470 0FD2                   l1542 03E3  
                 l1455 0E7A                   l3207 00BD                   l1463 00A4                   l3231 0FF0  
                 l1471 0FC6                   l3223 0FD2                   l3215 0FBC                   l3311 00E0  
                 l1543 0350                   l1551 03FF                   l1456 0E81                   l1464 00BD  
                 l1472 0FD7                   l1544 0396                   l1552 04D1                   l3161 0EDE  
                 l1465 00CB                   l3209 00C4                   l1473 0FD8                   l3225 0FD8  
                 l3217 0FC2                   l3233 0FF8                   l3321 0102                   l3313 00E7  
                 l3401 027B                   l1545 03B8                   l1553 0418                   l1466 00D3  
                 l1474 0FE9                   l1570 0253                   l1562 01EB                   l1650 0302  
                 l1546 03C7                   l1554 0458                   l3171 0EFE                   l3163 0EE1  
                 l1459 00CC                   l3235 0FFF                   l1475 0FF7                   l3227 0FE2  
                 l3219 0FC6                   l3331 0137                   l3323 010C                   l3315 00E9  
                 l3307 00D4                   l1571 0247                   l1563 0273                   l1651 02C0  
                 l3411 029E                   l3403 0286                   l1555 046D                   l1476 0FFF  
                 l1572 0259                   l1564 0236                   l1652 02B2                   l1556 0484  
                 l3165 0EE3                   l3173 0E0B                   l3181 0E5F                   l1469 0FF8  
                 l3229 0FE9                   l3333 0149                   l3325 011C                   l3317 00F6  
                 l3309 00D8                   l1573 026A                   l1565 0222                   l1653 02C5  
                 l3421 02C6                   l3413 02A6                   l3405 028A                   l3501 0F49  
                 l1557 0489                   l1566 0223                   l1654 02C6                   l1558 049E  
                 l1590 0EAD                   l3159 0E17                   l3167 0EED                   l3175 0E20  
                 l3183 0E6C                   l3191 0088                   l3335 014D                   l3327 0127  
                 l3319 00FE                   l1567 0235                   l3351 01FD                   l3343 01CE  
                 l3431 02FA                   l1655 02F1                   l3423 02CF                   l3415 02AE  
                 l3407 028E                   l3511 0F72                   l3503 0F4C                   l1559 04B5  
                 l1568 025A                   l1656 0301                   l1648 028A                   l3169 0EEE  
                 l3185 0E7A                   l3177 0E58                   l3193 008E                   l3329 012F  
                 l1569 0246                   l3361 0211                   l3353 01FE                   l3345 01E1  
                 l1657 0312                   l3425 02E1                   l3417 02B2                   l3433 0302  
                 l1649 029E                   l3409 0299                   l3513 0F7A                   l3505 0F4D  
                 l3521 0078                   l3601 046D                   l1658 031B                   l3187 0E81  
                 l3179 0E5B                   l3195 0092                   l3371 023C                   l3363 0218  
                 l3355 0204                   l3347 01EA                   l3435 0306                   l3427 02EF  
                 l3419 02C0                   l3507 0F60                   l3523 0081                   l3515 0072  
                 l3531 031C                   l3611 048D                   l3603 0475                   l1676 0E57  
                 l3197 0099                   l3189 0086                   l3381 025E                   l3373 0245  
                 l3365 0221                   l3357 020B                   l3349 01EB                   l3437 0312  
                 l3429 02F1                   l3509 0F69                   l3525 0085                   l3517 0076  
                 l3541 034F                   l3533 032F                   l3621 04D1                   l3613 049E  
                 l3605 047D                   l1589 0E92                   l3701 06BE                   l1790 00E9  
                 l3199 009E                   l1791 00FD                   l3383 026A                   l3375 0247  
                 l3367 0223                   l3359 020D                   l3439 031B                   l3519 0077  
                 l3527 0F10                   l3551 037F                   l3543 0350                   l3535 0336  
                 l3615 04A6                   l3607 0484                   l3623 0E82                   l3631 0E3D  
                 l3711 06DD                   l3703 06C4                   l1792 0114                   l1793 00FE  
                 l1785 00E8                   l3385 0273                   l3377 0253                   l3369 0236  
                 l3529 0F41                   l3561 03AC                   l3553 0383                   l3545 0356  
                 l3537 0337                   l3617 04AE                   l3609 0489                   l3625 0E89  
                 l3633 0E57                   l3641 0ECB                   l3721 070A                   l3713 06E6  
                 l3705 06CC                   l1794 011B                   l1795 0127                   l1787 00E0  
                 l3379 025A                   l3483 0F7B                   l3491 0E2E                   l3571 03E3  
                 l3563 03B6                   l3555 038A                   l3547 035B                   l3539 0348  
                 l3619 04B5                   l3627 0E92                   l3643 0ED0                   l3635 0EAF  
                 l3651 01B4                   l3731 073B                   l3723 0712                   l3715 06F2  
                 l3707 06D5                   l1796 011C                   l1788 014E                   l1797 012B  
                 l1789 00F6                   l3485 0FB1                   l3493 0E2F                   l3565 03B8  
                 l3557 0396                   l3549 036D                   l3581 0410                   l3573 03E4  
                 l3629 0EAD                   l3637 0EB0                   l3645 04D5                   l3653 01B5  
                 l3741 0762                   l3733 0740                   l3725 071B                   l3717 06FB  
                 l3709 06DA                   l3661 0618                   l1798 0135                   l1799 014E  
                 l3399 0274                   l3495 0E38                   l3487 0E29                   l3567 03C0  
                 l3559 039E                   l3591 0447                   l3583 0417                   l3575 03F7  
                 l3639 0EC2                   l3655 01BF                   l3647 014F                   l3751 0789  
                 l3743 0768                   l3727 0723                   l3735 0744                   l3719 0704  
                 l3671 0639                   l3663 0619                   l3497 0E3C                   l3489 0E2D  
                 l3569 03C7                   l3593 044D                   l3585 0418                   l3577 03FE  
                 l3649 015A                   l3761 079F                   l3753 078F                   l3745 076D  
                 l3737 074A                   l3729 0735                   l3681 0666                   l3673 0642  
                 l3665 061C                   l3657 0613                   l3499 0F43                   l3595 0453  
                 l3587 0445                   l3579 03FF                   l3771 07C9                   l3763 07A9  
                 l3755 0794                   l3739 0750                   l3747 0771                   l3691 0690  
                 l3683 066F                   l3675 064B                   l3667 0621                   l3659 0616  
                 l3597 0458                   l3589 0446                   l3773 07CF                   l3765 07B1  
                 l3757 0797                   l3749 0777                   l3693 0696                   l3685 0678  
                 l3677 0654                   l3669 0630                   l3599 045C                   l3775 07E1  
                 l3767 07B7                   l3759 0799                   l3695 06A0                   l3687 067E  
                 l3679 065D                   l3777 07E9                   l3769 07C1                   l3697 06AC  
                 l3689 0687                   l3699 06B5                   STR_1 002B                   STR_2 001A  
                 STR_3 005D                   STR_4 0067                   STR_5 004D                   STR_6 0009  
                 STR_7 003C                   u3000 014D                   u3010 01E1                   u3011 01E0  
                 u3100 025E                   u3020 01F6                   u3030 0211                   u3031 0210  
                 u3040 0218                   u3200 0300                   u3120 027B                   u3041 0217  
                 u3025 01F2                   u3201 02FF                   u3121 027A                   u3210 0306  
                 u3130 028E                   u3131 028D                   u3060 0234                   u3140 02AE  
                 u3300 0F49                   u3061 0233                   u3141 02AD                   u3301 0F48  
                 u3070 023C                   u3071 023B                   u3055 0224                   u2520 0E79  
                 u2600 0FC2                   u3160 02C4                   u3320 0F71                   u2521 0E78  
                 u2505 0E66                   u2601 0FC1                   u3161 02C3                   u3321 0F70  
                 u2530 008E                   u3090 0258                   u3330 0F20                   u3410 03C6  
                 u2515 0E6D                   u2531 008D                   u3091 0257                   u3155 02B4  
                 u3315 0F56                   u3411 03C5                   u2460 0EEC                   u2620 0FD6  
                 u3180 02E1                   u3340 032F                   u3500 0483                   u3420 03F7  
                 u2461 0EEB                   u2621 0FD5                   u3085 0249                   u3181 02E0  
                 u3405 03B9                   u3341 032E                   u3501 0482                   u3421 03F6  
                 u2470 0EFD                   u2550 00A2                   u2630 0FE2                   u3350 0348  
                 u3510 048D                   u3430 0410                   u2471 0EFC                   u2551 00A1  
                 u2631 0FE1                   u2615 0FC7                   u3175 02C8                   u3335 0F1B  
                 u3351 0347                   u3511 048C                   u3431 040F                   u2480 0F0E  
                 u3280 0F8B                   u3360 0366                   u3440 0428                   u2481 0F0D  
                 u2545 0093                   u3185 02DD                   u3521 0496                   u2490 0E5F  
                 u2570 00B5                   u2650 0FF6                   u3290 0F94                   u3370 0378  
                 u3522 049D                   u3450 043A                   u2491 0E5E                   u2571 00B4  
                 u2651 0FF5                   u2635 0FDE                   u3195 02F2                   u2900 00D8  
                 u3460 045C                   u3604 01BF                   u3700 07CF                   u3620 0723  
                 u2485 0F0A                   u2565 00A5                   u2645 0FEA                   u3285 0F86  
                 u3365 0362                   u3461 045B                   u3445 0424                   u3701 07CE  
                 u3621 0722                   u2590 00CA                   u2910 00DF                   u3390 03AC  
                 u3550 04B4                   u3710 07E9                   u3630 074A                   u2591 00C9  
                 u2575 00B1                   u2911 00DE                   u3295 0F8F                   u3391 03AB  
                 u3375 0374                   u3551 04B3                   u3535 049F                   u3471 0465  
                 u3455 0436                   u3615 01C4                   u3711 07E8                   u3631 0749  
                 u3472 046C                   u3560 0E89                   u3640 0750                   u2585 00BE  
                 u3385 0397                   u3545 04A7                   u3561 0E88                   u3641 074F  
                 u2930 00FC                   u3570 0EDC                   u3650 0777                   u2931 00FB  
                 u3395 03A8                   u3571 0EDB                   u3651 0776                   u3580 015A  
                 u3660 079F                   u2925 00EE                   u3485 046E                   u3581 0159  
                 u3661 079E                   u2950 011A                   u3590 01BC                   u3670 07B1  
                 u2951 0119                   u3495 0476                   u3591 01B8                   u3671 07B0  
                 u3680 07B7                   u2945 010D                   u3681 07B6                   u2970 012B  
                 u3690 07C9                   u2971 012A                   u3691 07C8                   u2980 012F  
                 u2981 012E                   u2965 011F                   u2990 0140           _PWM_Max_Duty 0F10  
                 u2995 013C                   _WREN 0C62                   _main 0613                   _freq 005A  
         ___ftpack@arg 0070           ___ftpack@exp 0073           lcddata@value 0076                   btemp 007E  
     __end_of_ADC_Init 0E20       __end_of_ADC_Read 0F7B                   start 0000       adc_to_volt@volt2 0021  
         ___ftmul@cntr 0051           ___ftmul@sign 0052           ___fttol@exp1 002F           ___fttol@lval 002B  
      __end_of___aldiv 031C                  ?_main 0070                  _CCP1X 00BD                  _CCP1Y 00BC  
                _EEADR 010D                  _CARRY 0018        __end_of___ftdiv 03E4        __end_of___ftmul 04D2  
      __end_of___fttol 0274        __end_of___lwdiv 00D4        __end_of___lwmod 1000                  _PORTB 0006  
                _TRISB 0086                  _TRISC 0087                  _TRISD 0088        __end_of_lcddata 0086  
      __end_of_display 0EDE     __size_of_PWM1_Init 0041     __size_of_PWM1_Duty 007F            ?_PWM1_Start 0070  
        ___awtoft@sign 007D     __size_of_PWM1_Stop 0005                  _delay 0EDE          ___ftpack@sign 0074  
                pclath 000A                  status 0003                  wtemp0 007E           __end_of_main 0800  
               ??_main 0057          ___fttol@sign1 002A                 ?_delay 0070                 _ADCON0 001F  
               _ADCON1 009F                 _CCP1M2 00BA                 _CCP1M3 00BB                 _ADRESH 001E  
               _EEDATA 010C                 _CCPR1L 0015                 _EECON1 018C                 _EECON2 018D  
     __end_of___awtoft 0EAE       __end_of___ftpack 014F       __end_of___lwtoft 0E58                 _TMR2ON 0092  
               _TRISC2 043A      __end_of_PWM1_Init 0FBC      __end_of_PWM1_Duty 01CE              ??___aldiv 0078  
    __end_of_PWM1_Stop 0E10                 ___wmul 0E58    __size_of_PWM1_Start 0009              ??___ftdiv 0039  
            ??___ftmul 0049              ??___fttol 0079              ??___lwdiv 0074              ??___lwmod 0074  
               _lcdcmd 0E29        ADC_Read@channel 007A                 delay@d 0070                 delay@h 0072  
               delay@k 0074              ??_lcddata 0078              ??_display 0078  ___ftmul@f3_as_product 004E  
            ?_ADC_Init 0070              ?_ADC_Read 0076             ___ftdiv@f1 0036             ___ftdiv@f2 0033  
           ___ftdiv@f3 003E             ___awtoft@c 0036             ___ftmul@f1 0043             ___ftmul@f2 0046  
           ___fttol@f1 0026     adc_to_volt@voltage 0023         __pcstackCOMMON 0070          __end_of_delay 0F10  
           ___lwtoft@c 0030             ??_ADC_Init 0070             ??_ADC_Read 0078                ??_delay 0072  
           __pbssBANK0 005E             __pmaintext 0613                ?___wmul 0070                ?_lcdcmd 0076  
            ?___awtoft 0036              ?___ftpack 0070              ?___lwtoft 0030          ??_adc_to_volt 0078  
         ??_PWM1_Start 0070                ___aldiv 0274                ___ftdiv 031C        __size_of___wmul 002A  
              ___ftmul 03E4                ___fttol 01CE                ___lwdiv 0086                ___lwmod 0FBC  
   __end_of_PWM1_Start 0E29        __size_of_lcdcmd 0014             ??___awtoft 0039             ??___ftpack 0075  
              _lcddata 0072             ??___lwtoft 007D                _display 0EAE       ___aldiv@dividend 0074  
  __end_of_adc_to_volt 0613   end_of_initialization 0E13       ___aldiv@quotient 0022    adc_to_volt@ad_value 0020  
            _PWM1_Init 0F7B              _PWM1_Duty 014F              _PWM1_Stop 0E0B      __size_of_ADC_Init 0009  
    __size_of_ADC_Read 0039            ___ftdiv@exp 0041            ___ftmul@exp 004D         __end_of___wmul 0E82  
           ?_PWM1_Init 0026             ?_PWM1_Duty 0053         __end_of_lcdcmd 0E3D             ?_PWM1_Stop 0070  
          _adc_to_volt 04D2    start_initialization 0E10          ?_PWM_Max_Duty 0030               ??___wmul 0074  
             ??_lcdcmd 0078      __size_of___awtoft 002C      __size_of___ftpack 007B      __size_of___lwtoft 001B  
        __pcstackBANK0 0020         ??_PWM_Max_Duty 0032              __pnvBANK0 005A       ___lwdiv@dividend 0072  
             ?___aldiv 0070              __ptext520 04D2              __ptext521 0EAE              __ptext530 0F7B  
            __ptext522 0E3D              __ptext531 0274              __ptext523 0E82              __ptext540 0E17  
            __ptext532 01CE              __ptext524 03E4              __ptext541 0000              __ptext533 00D4  
            __ptext525 031C              __ptext534 0FBC              __ptext526 0F10              __ptext518 0000  
            __ptext535 0086              __ptext527 0072              __ptext519 014F              __ptext536 0E58  
            __ptext528 0F42              __ptext537 0E20              __ptext529 0E29              __ptext538 0E0B  
            __ptext539 0EDE               ?___ftdiv 0033               ?___ftmul 0043               ?___fttol 0026  
             ?___lwdiv 0070               ?___lwmod 0070            ??_PWM1_Init 0079            ??_PWM1_Duty 0055  
          ??_PWM1_Stop 0070              __pstrings 0003               ?_lcddata 0076               ?_display 0070  
             _ADC_Init 0E17               _ADC_Read 0F42       ___lwdiv@quotient 0075         __size_of_delay 0032  
      ___aldiv@divisor 0070        ___aldiv@counter 0020         ___wmul@product 0074          PWM1_Duty@duty 0053  
             _GO_nDONE 00FA            __stringbase 0008      ___wmul@multiplier 0070              main@panel 0059  
     __size_of___aldiv 00A8   __end_of_PWM_Max_Duty 0F42       __size_of___ftdiv 00C8       __size_of___ftmul 00EE  
     __size_of___fttol 00A6       __size_of___lwdiv 004E       __size_of___lwmod 0044               ___awtoft 0E82  
             ___ftpack 00D4               ___lwtoft 0E3D       __size_of_lcddata 0014       __size_of_display 0030  
         ?_adc_to_volt 0070        ___lwdiv@divisor 0070        ___lwdiv@counter 0077          __size_of_main 01ED  
         PWM1_Init@fre 0026               display@p 007A       ___lwmod@dividend 0072              stringcode 0003  
      ___lwmod@divisor 0070        ___lwmod@counter 0075               stringdir 0003               stringtab 0003  
         ___aldiv@sign 0021             _PWM1_Start 0E20  __size_of_PWM_Max_Duty 0032  
