

HI-TECH Software PIC LITE Macro Assembler V9.83 build 10920 
                                                                                               Tue Dec 09 16:55:22 2014

HI-TECH Software Omniscient Code Generator (Lite mode) build 10920
     1  0000                     opt subtitle "HI-TECH Software Omniscient Code Generator (Lite mode) build 10920"
     2                           
     3                           opt pagewidth 120
     4                           
     5                           	opt lm
     6                           
     7                           	processor	16F877A
     8                           clrc	macro
     9                           	bcf	3,0
    10  0000                     	endm
    11                           clrz	macro
    12                           	bcf	3,2
    13  0000                     	endm
    14                           setc	macro
    15                           	bsf	3,0
    16  0000                     	endm
    17                           setz	macro
    18                           	bsf	3,2
    19  0000                     	endm
    20                           skipc	macro
    21                           	btfss	3,0
    22  0000                     	endm
    23                           skipz	macro
    24                           	btfss	3,2
    25  0000                     	endm
    26                           skipnc	macro
    27                           	btfsc	3,0
    28  0000                     	endm
    29                           skipnz	macro
    30                           	btfsc	3,2
    31  0000                     	endm
    32  0000                     indf	equ	0
    33  0000                     indf0	equ	0
    34  0002                     pc	equ	2
    35  0002                     pcl	equ	2
    36  0003                     status	equ	3
    37  0004                     fsr	equ	4
    38  0004                     fsr0	equ	4
    39  0001                     c	equ	1
    40  0000                     z	equ	0
    41  000A                     pclath	equ	10
    42                           	FNCALL	_main,_delay
    43                           	FNCALL	_main,_lcd_init
    44                           	FNCALL	_main,_lcdcmd
    45                           	FNCALL	_main,_display
    46                           	FNCALL	_display,_lcddata
    47                           	FNCALL	_display,_delay
    48                           	FNCALL	_lcd_init,_delay
    49                           	FNCALL	_lcd_init,_lcd_init_write
    50                           	FNCALL	_lcd_init,_lcdcmd
    51                           	FNCALL	_lcd_init_write,_delay
    52                           	FNCALL	_lcddata,_delay
    53                           	FNCALL	_lcdcmd,_delay
    54                           	FNROOT	_main
    55                           	global	_PORTC
    56                           psect	text188,local,class=CODE,delta=2
    57                           global __ptext188
    58  0000                     __ptext188:
    59  0007                     _PORTC	set	7
    60                           	global	_PORTD
    61  0008                     _PORTD	set	8
    62                           	global	_CARRY
    63  0018                     _CARRY	set	24
    64                           	global	_GIE
    65  005F                     _GIE	set	95
    66                           	global	_RA0
    67  0028                     _RA0	set	40
    68                           	global	_RA1
    69  0029                     _RA1	set	41
    70                           	global	_RA2
    71  002A                     _RA2	set	42
    72                           	global	_RA3
    73  002B                     _RA3	set	43
    74                           	global	_RB0
    75  0030                     _RB0	set	48
    76                           	global	_RB1
    77  0031                     _RB1	set	49
    78                           	global	_RB3
    79  0033                     _RB3	set	51
    80                           	global	_RB4
    81  0034                     _RB4	set	52
    82                           	global	_RB5
    83  0035                     _RB5	set	53
    84                           	global	_RB6
    85  0036                     _RB6	set	54
    86                           	global	_RB7
    87  0037                     _RB7	set	55
    88                           	global	_RC0
    89  0038                     _RC0	set	56
    90                           	global	_RC1
    91  0039                     _RC1	set	57
    92                           	global	_RC2
    93  003A                     _RC2	set	58
    94                           	global	_RC4
    95  003C                     _RC4	set	60
    96                           	global	_RC5
    97  003D                     _RC5	set	61
    98                           	global	_RC6
    99  003E                     _RC6	set	62
   100                           	global	_RC7
   101  003F                     _RC7	set	63
   102                           	global	_RD0
   103  0040                     _RD0	set	64
   104                           	global	_RD1
   105  0041                     _RD1	set	65
   106                           	global	_RD2
   107  0042                     _RD2	set	66
   108                           	global	_RD3
   109  0043                     _RD3	set	67
   110                           	global	_RE0
   111  0048                     _RE0	set	72
   112                           	global	_RE1
   113  0049                     _RE1	set	73
   114                           	global	_RE2
   115  004A                     _RE2	set	74
   116                           	global	_ADCON1
   117  009F                     _ADCON1	set	159
   118                           	global	_TRISA
   119  0085                     _TRISA	set	133
   120                           	global	_TRISB
   121  0086                     _TRISB	set	134
   122                           	global	_TRISC
   123  0087                     _TRISC	set	135
   124                           	global	_TRISD
   125  0088                     _TRISD	set	136
   126                           	global	_TRISE
   127  0089                     _TRISE	set	137
   128                           	global	_EEADR
   129  010D                     _EEADR	set	269
   130                           	global	_EEDATA
   131  010C                     _EEDATA	set	268
   132                           	global	_EECON1
   133  018C                     _EECON1	set	396
   134                           	global	_EECON2
   135  018D                     _EECON2	set	397
   136                           	global	_RD
   137  0C60                     _RD	set	3168
   138                           	global	_WR
   139  0C61                     _WR	set	3169
   140                           	global	_WREN
   141  0C62                     _WREN	set	3170
   142                           psect	strings,class=STRING,delta=2
   143                           global __pstrings
   144  0003                     __pstrings:
   145                           ;	global	stringtab,__stringbase
   146  0003                     stringtab:
   147                           ;	String table - string pointers are 2 bytes each
   148  0003  1BFF               	btfsc	(btemp+1),7
   149  0004  280D               	ljmp	stringcode
   150  0005  1383               	bcf	status,7
   151  0006  187F               	btfsc	(btemp+1),0
   152  0007  1783               	bsf	status,7
   153  0008  0800               	movf	indf,w
   154  0009  0A84               	incf fsr
   155  000A  1903               skipnz
   156  000B  0AFF               incf btemp+1
   157  000C  0008               	return
   158  000D                     stringcode:
   159  000D  087F               	movf btemp+1,w
   160  000E  397F               andlw 7Fh
   161  000F  008A               movwf	pclath
   162  0010  0804               	movf	fsr,w
   163  0011  0A84               incf fsr
   164  0012  1903               skipnz
   165  0013  0AFF               incf btemp+1
   166  0014  0082               	movwf pc
   167  0015                     __stringbase:
   168                           psect	stringtext,class=STRCODE,delta=2,reloc=256
   169                           global __pstringtext
   170  0800                     __pstringtext:
   171                           	
   172  0800                     STR_1:	
   173  0800  3420               	retlw	32	;' '
   174  0801  3461               	retlw	97	;'a'
   175  0802  3475               	retlw	117	;'u'
   176  0803  3474               	retlw	116	;'t'
   177  0804  346F               	retlw	111	;'o'
   178  0805  3420               	retlw	32	;' '
   179  0806  3473               	retlw	115	;'s'
   180  0807  3468               	retlw	104	;'h'
   181  0808  346F               	retlw	111	;'o'
   182  0809  3465               	retlw	101	;'e'
   183  080A  3420               	retlw	32	;' '
   184  080B  3472               	retlw	114	;'r'
   185  080C  3461               	retlw	97	;'a'
   186  080D  3463               	retlw	99	;'c'
   187  080E  346B               	retlw	107	;'k'
   188  080F  3420               	retlw	32	;' '
   189  0810  3400               	retlw	0
   190                           psect	stringtext
   191                           	
   192  0811                     STR_2:	
   193  0811  3470               	retlw	112	;'p'
   194  0812  3475               	retlw	117	;'u'
   195  0813  3474               	retlw	116	;'t'
   196  0814  3420               	retlw	32	;' '
   197  0815  3473               	retlw	115	;'s'
   198  0816  3468               	retlw	104	;'h'
   199  0817  346F               	retlw	111	;'o'
   200  0818  3465               	retlw	101	;'e'
   201  0819  3420               	retlw	32	;' '
   202  081A  346F               	retlw	111	;'o'
   203  081B  346E               	retlw	110	;'n'
   204  081C  3420               	retlw	32	;' '
   205  081D  3462               	retlw	98	;'b'
   206  081E  346F               	retlw	111	;'o'
   207  081F  3478               	retlw	120	;'x'
   208  0820  3420               	retlw	32	;' '
   209  0821  3400               	retlw	0
   210                           psect	stringtext
   211                           	
   212  0822                     STR_3:	
   213  0822  346F               	retlw	111	;'o'
   214  0823  3472               	retlw	114	;'r'
   215  0824  3420               	retlw	32	;' '
   216  0825  3467               	retlw	103	;'g'
   217  0826  3469               	retlw	105	;'i'
   218  0827  3476               	retlw	118	;'v'
   219  0828  3465               	retlw	101	;'e'
   220  0829  3420               	retlw	32	;' '
   221  082A  3472               	retlw	114	;'r'
   222  082B  3461               	retlw	97	;'a'
   223  082C  3463               	retlw	99	;'c'
   224  082D  346B               	retlw	107	;'k'
   225  082E  3420               	retlw	32	;' '
   226  082F  346E               	retlw	110	;'n'
   227  0830  3475               	retlw	117	;'u'
   228  0831  346D               	retlw	109	;'m'
   229  0832  3400               	retlw	0
   230                           psect	stringtext
   231                           	
   232  0833                     STR_5:	
   233  0833  3473               	retlw	115	;'s'
   234  0834  3468               	retlw	104	;'h'
   235  0835  346F               	retlw	111	;'o'
   236  0836  3465               	retlw	101	;'e'
   237  0837  3420               	retlw	32	;' '
   238  0838  346F               	retlw	111	;'o'
   239  0839  346E               	retlw	110	;'n'
   240  083A  3420               	retlw	32	;' '
   241  083B  3472               	retlw	114	;'r'
   242  083C  3461               	retlw	97	;'a'
   243  083D  3463               	retlw	99	;'c'
   244  083E  346B               	retlw	107	;'k'
   245  083F  3420               	retlw	32	;' '
   246  0840  3423               	retlw	35	;'#'
   247  0841  3431               	retlw	49	;'1'
   248  0842  3400               	retlw	0
   249                           psect	stringtext
   250                           	
   251  0843                     STR_6:	
   252  0843  3473               	retlw	115	;'s'
   253  0844  3468               	retlw	104	;'h'
   254  0845  346F               	retlw	111	;'o'
   255  0846  3465               	retlw	101	;'e'
   256  0847  3420               	retlw	32	;' '
   257  0848  346F               	retlw	111	;'o'
   258  0849  346E               	retlw	110	;'n'
   259  084A  3420               	retlw	32	;' '
   260  084B  3472               	retlw	114	;'r'
   261  084C  3461               	retlw	97	;'a'
   262  084D  3463               	retlw	99	;'c'
   263  084E  346B               	retlw	107	;'k'
   264  084F  3420               	retlw	32	;' '
   265  0850  3423               	retlw	35	;'#'
   266  0851  3432               	retlw	50	;'2'
   267  0852  3400               	retlw	0
   268                           psect	stringtext
   269                           	
   270  0853                     STR_7:	
   271  0853  3473               	retlw	115	;'s'
   272  0854  3468               	retlw	104	;'h'
   273  0855  346F               	retlw	111	;'o'
   274  0856  3465               	retlw	101	;'e'
   275  0857  3420               	retlw	32	;' '
   276  0858  346F               	retlw	111	;'o'
   277  0859  346E               	retlw	110	;'n'
   278  085A  3420               	retlw	32	;' '
   279  085B  3472               	retlw	114	;'r'
   280  085C  3461               	retlw	97	;'a'
   281  085D  3463               	retlw	99	;'c'
   282  085E  346B               	retlw	107	;'k'
   283  085F  3420               	retlw	32	;' '
   284  0860  3423               	retlw	35	;'#'
   285  0861  3433               	retlw	51	;'3'
   286  0862  3400               	retlw	0
   287                           psect	stringtext
   288                           	
   289  0863                     STR_8:	
   290  0863  3473               	retlw	115	;'s'
   291  0864  3468               	retlw	104	;'h'
   292  0865  346F               	retlw	111	;'o'
   293  0866  3465               	retlw	101	;'e'
   294  0867  3420               	retlw	32	;' '
   295  0868  346F               	retlw	111	;'o'
   296  0869  346E               	retlw	110	;'n'
   297  086A  3420               	retlw	32	;' '
   298  086B  3472               	retlw	114	;'r'
   299  086C  3461               	retlw	97	;'a'
   300  086D  3463               	retlw	99	;'c'
   301  086E  346B               	retlw	107	;'k'
   302  086F  3420               	retlw	32	;' '
   303  0870  3423               	retlw	35	;'#'
   304  0871  3434               	retlw	52	;'4'
   305  0872  3400               	retlw	0
   306                           psect	stringtext
   307                           	
   308  0873                     STR_4:	
   309  0873  3420               	retlw	32	;' '
   310  0874  3420               	retlw	32	;' '
   311  0875  3420               	retlw	32	;' '
   312  0876  3470               	retlw	112	;'p'
   313  0877  346C               	retlw	108	;'l'
   314  0878  3473               	retlw	115	;'s'
   315  0879  3420               	retlw	32	;' '
   316  087A  3477               	retlw	119	;'w'
   317  087B  3461               	retlw	97	;'a'
   318  087C  3469               	retlw	105	;'i'
   319  087D  3474               	retlw	116	;'t'
   320  087E  3420               	retlw	32	;' '
   321  087F  3420               	retlw	32	;' '
   322  0880  3420               	retlw	32	;' '
   323  0881  3400               	retlw	0
   324                           psect	stringtext
   325                           	
   326  0882                     STR_11:	
   327  0882  3467               	retlw	103	;'g'
   328  0883  3465               	retlw	101	;'e'
   329  0884  3474               	retlw	116	;'t'
   330  0885  3474               	retlw	116	;'t'
   331  0886  3469               	retlw	105	;'i'
   332  0887  346E               	retlw	110	;'n'
   333  0888  3467               	retlw	103	;'g'
   334  0889  3420               	retlw	32	;' '
   335  088A  3472               	retlw	114	;'r'
   336  088B  3461               	retlw	97	;'a'
   337  088C  3463               	retlw	99	;'c'
   338  088D  346B               	retlw	107	;'k'
   339  088E  3420               	retlw	32	;' '
   340  088F  3431               	retlw	49	;'1'
   341  0890  3400               	retlw	0
   342                           psect	stringtext
   343                           	
   344  0891                     STR_14:	
   345  0891  3467               	retlw	103	;'g'
   346  0892  3465               	retlw	101	;'e'
   347  0893  3474               	retlw	116	;'t'
   348  0894  3474               	retlw	116	;'t'
   349  0895  3469               	retlw	105	;'i'
   350  0896  346E               	retlw	110	;'n'
   351  0897  3467               	retlw	103	;'g'
   352  0898  3420               	retlw	32	;' '
   353  0899  3472               	retlw	114	;'r'
   354  089A  3461               	retlw	97	;'a'
   355  089B  3463               	retlw	99	;'c'
   356  089C  346B               	retlw	107	;'k'
   357  089D  3420               	retlw	32	;' '
   358  089E  3432               	retlw	50	;'2'
   359  089F  3400               	retlw	0
   360                           psect	stringtext
   361                           	
   362  08A0                     STR_17:	
   363  08A0  3467               	retlw	103	;'g'
   364  08A1  3465               	retlw	101	;'e'
   365  08A2  3474               	retlw	116	;'t'
   366  08A3  3474               	retlw	116	;'t'
   367  08A4  3469               	retlw	105	;'i'
   368  08A5  346E               	retlw	110	;'n'
   369  08A6  3467               	retlw	103	;'g'
   370  08A7  3420               	retlw	32	;' '
   371  08A8  3472               	retlw	114	;'r'
   372  08A9  3461               	retlw	97	;'a'
   373  08AA  3463               	retlw	99	;'c'
   374  08AB  346B               	retlw	107	;'k'
   375  08AC  3420               	retlw	32	;' '
   376  08AD  3433               	retlw	51	;'3'
   377  08AE  3400               	retlw	0
   378                           psect	stringtext
   379                           	
   380  08AF                     STR_20:	
   381  08AF  3467               	retlw	103	;'g'
   382  08B0  3465               	retlw	101	;'e'
   383  08B1  3474               	retlw	116	;'t'
   384  08B2  3474               	retlw	116	;'t'
   385  08B3  3469               	retlw	105	;'i'
   386  08B4  346E               	retlw	110	;'n'
   387  08B5  3467               	retlw	103	;'g'
   388  08B6  3420               	retlw	32	;' '
   389  08B7  3472               	retlw	114	;'r'
   390  08B8  3461               	retlw	97	;'a'
   391  08B9  3463               	retlw	99	;'c'
   392  08BA  346B               	retlw	107	;'k'
   393  08BB  3420               	retlw	32	;' '
   394  08BC  3434               	retlw	52	;'4'
   395  08BD  3400               	retlw	0
   396                           psect	stringtext
   397                           	
   398  08BE                     STR_9:	
   399  08BE  3473               	retlw	115	;'s'
   400  08BF  346F               	retlw	111	;'o'
   401  08C0  3472               	retlw	114	;'r'
   402  08C1  3472               	retlw	114	;'r'
   403  08C2  3479               	retlw	121	;'y'
   404  08C3  3420               	retlw	32	;' '
   405  08C4  346E               	retlw	110	;'n'
   406  08C5  346F               	retlw	111	;'o'
   407  08C6  3420               	retlw	32	;' '
   408  08C7  3473               	retlw	115	;'s'
   409  08C8  3470               	retlw	112	;'p'
   410  08C9  3461               	retlw	97	;'a'
   411  08CA  3463               	retlw	99	;'c'
   412  08CB  3465               	retlw	101	;'e'
   413  08CC  3400               	retlw	0
   414                           psect	stringtext
   415                           	
   416  08CD                     STR_10:	
   417  08CD  3472               	retlw	114	;'r'
   418  08CE  3461               	retlw	97	;'a'
   419  08CF  3463               	retlw	99	;'c'
   420  08D0  346B               	retlw	107	;'k'
   421  08D1  3420               	retlw	32	;' '
   422  08D2  3431               	retlw	49	;'1'
   423  08D3  3420               	retlw	32	;' '
   424  08D4  3469               	retlw	105	;'i'
   425  08D5  3473               	retlw	115	;'s'
   426  08D6  3420               	retlw	32	;' '
   427  08D7  3465               	retlw	101	;'e'
   428  08D8  346D               	retlw	109	;'m'
   429  08D9  3474               	retlw	116	;'t'
   430  08DA  3479               	retlw	121	;'y'
   431  08DB  3400               	retlw	0
   432                           psect	stringtext
   433                           	
   434  08DC                     STR_13:	
   435  08DC  3472               	retlw	114	;'r'
   436  08DD  3461               	retlw	97	;'a'
   437  08DE  3463               	retlw	99	;'c'
   438  08DF  346B               	retlw	107	;'k'
   439  08E0  3420               	retlw	32	;' '
   440  08E1  3432               	retlw	50	;'2'
   441  08E2  3420               	retlw	32	;' '
   442  08E3  3469               	retlw	105	;'i'
   443  08E4  3473               	retlw	115	;'s'
   444  08E5  3420               	retlw	32	;' '
   445  08E6  3465               	retlw	101	;'e'
   446  08E7  346D               	retlw	109	;'m'
   447  08E8  3474               	retlw	116	;'t'
   448  08E9  3479               	retlw	121	;'y'
   449  08EA  3400               	retlw	0
   450                           psect	stringtext
   451                           	
   452  08EB                     STR_16:	
   453  08EB  3472               	retlw	114	;'r'
   454  08EC  3461               	retlw	97	;'a'
   455  08ED  3463               	retlw	99	;'c'
   456  08EE  346B               	retlw	107	;'k'
   457  08EF  3420               	retlw	32	;' '
   458  08F0  3433               	retlw	51	;'3'
   459  08F1  3420               	retlw	32	;' '
   460  08F2  3469               	retlw	105	;'i'
   461  08F3  3473               	retlw	115	;'s'
   462  08F4  3420               	retlw	32	;' '
   463  08F5  3465               	retlw	101	;'e'
   464  08F6  346D               	retlw	109	;'m'
   465  08F7  3474               	retlw	116	;'t'
   466  08F8  3479               	retlw	121	;'y'
   467  08F9  3400               	retlw	0
   468                           psect	stringtext
   469                           	
   470  08FA                     STR_19:	
   471  08FA  3472               	retlw	114	;'r'
   472  08FB  3461               	retlw	97	;'a'
   473  08FC  3463               	retlw	99	;'c'
   474  08FD  346B               	retlw	107	;'k'
   475  08FE  3420               	retlw	32	;' '
   476  08FF  3434               	retlw	52	;'4'
   477  0900  3420               	retlw	32	;' '
   478  0901  3469               	retlw	105	;'i'
   479  0902  3473               	retlw	115	;'s'
   480  0903  3420               	retlw	32	;' '
   481  0904  3465               	retlw	101	;'e'
   482  0905  346D               	retlw	109	;'m'
   483  0906  3474               	retlw	116	;'t'
   484  0907  3479               	retlw	121	;'y'
   485  0908  3400               	retlw	0
   486                           psect	stringtext
   487                           	
   488  0909                     STR_12:	
   489  0909  3470               	retlw	112	;'p'
   490  090A  346C               	retlw	108	;'l'
   491  090B  3473               	retlw	115	;'s'
   492  090C  3420               	retlw	32	;' '
   493  090D  3474               	retlw	116	;'t'
   494  090E  3461               	retlw	97	;'a'
   495  090F  346B               	retlw	107	;'k'
   496  0910  3465               	retlw	101	;'e'
   497  0911  3420               	retlw	32	;' '
   498  0912  3473               	retlw	115	;'s'
   499  0913  3468               	retlw	104	;'h'
   500  0914  346F               	retlw	111	;'o'
   501  0915  3465               	retlw	101	;'e'
   502  0916  3400               	retlw	0
   503                           psect	stringtext
   504  0909                     STR_15	equ	STR_12+0
   505  0909                     STR_18	equ	STR_12+0
   506  0909                     STR_21	equ	STR_12+0
   507                           	file	"automatic shoe rack.as"
   508                           	line	#
   509                           psect cinit,class=CODE,delta=2
   510                           global start_initialization
   511  019B                     start_initialization:
   512                           
   513                           psect cinit,class=CODE,delta=2
   514                           global end_of_initialization
   515                           
   516                           ;End of C runtime variable initialization code
   517                           
   518  019B                     end_of_initialization:
   519  019B  0183               clrf status
   520  019C  120A  118A  2B3F   ljmp _main	;jump to C main() function
   521                           psect	cstackCOMMON,class=COMMON,space=1
   522                           global __pcstackCOMMON
   523  0070                     __pcstackCOMMON:
   524                           	global	?_delay
   525  0070                     ?_delay:	; 0 bytes @ 0x0
   526                           	global	?_lcd_init_write
   527  0070                     ?_lcd_init_write:	; 0 bytes @ 0x0
   528                           	global	?_lcd_init
   529  0070                     ?_lcd_init:	; 0 bytes @ 0x0
   530                           	global	?_main
   531  0070                     ?_main:	; 0 bytes @ 0x0
   532                           	global	delay@itime
   533  0070                     delay@itime:	; 2 bytes @ 0x0
   534  0070                     	ds	2
   535                           	global	??_delay
   536  0072                     ??_delay:	; 0 bytes @ 0x2
   537  0072                     	ds	1
   538                           	global	delay@i
   539  0073                     delay@i:	; 2 bytes @ 0x3
   540  0073                     	ds	2
   541                           	global	delay@j
   542  0075                     delay@j:	; 2 bytes @ 0x5
   543  0075                     	ds	2
   544                           	global	?_lcdcmd
   545  0077                     ?_lcdcmd:	; 0 bytes @ 0x7
   546                           	global	?_lcddata
   547  0077                     ?_lcddata:	; 0 bytes @ 0x7
   548                           	global	??_lcd_init_write
   549  0077                     ??_lcd_init_write:	; 0 bytes @ 0x7
   550                           	global	lcd_init_write@a
   551  0077                     lcd_init_write@a:	; 1 bytes @ 0x7
   552                           	global	lcdcmd@value
   553  0077                     lcdcmd@value:	; 2 bytes @ 0x7
   554                           	global	lcddata@value
   555  0077                     lcddata@value:	; 2 bytes @ 0x7
   556  0077                     	ds	2
   557                           	global	??_lcdcmd
   558  0079                     ??_lcdcmd:	; 0 bytes @ 0x9
   559                           	global	??_lcddata
   560  0079                     ??_lcddata:	; 0 bytes @ 0x9
   561  0079                     	ds	2
   562                           	global	lcdcmd@temp
   563  007B                     lcdcmd@temp:	; 1 bytes @ 0xB
   564                           	global	lcddata@temp
   565  007B                     lcddata@temp:	; 1 bytes @ 0xB
   566  007B                     	ds	1
   567                           	global	??_lcd_init
   568  007C                     ??_lcd_init:	; 0 bytes @ 0xC
   569                           	global	?_display
   570  007C                     ?_display:	; 0 bytes @ 0xC
   571                           	global	display@p
   572  007C                     display@p:	; 2 bytes @ 0xC
   573  007C                     	ds	2
   574                           	global	??_main
   575  007E                     ??_main:	; 0 bytes @ 0xE
   576                           psect	cstackBANK0,class=BANK0,space=1
   577                           global __pcstackBANK0
   578  0020                     __pcstackBANK0:
   579                           	global	??_display
   580  0020                     ??_display:	; 0 bytes @ 0x0
   581  0020                     	ds	2
   582 ;;Data sizes: Strings 279, constant 0, data 0, bss 0, persistent 0 stack 0
   583 ;;Auto spaces:   Size  Autos    Used
   584 ;; COMMON          14     14      14
   585 ;; BANK0           80      2       2
   586 ;; BANK1           80      0       0
   587 ;; BANK3           96      0       0
   588 ;; BANK2           96      0       0
   589                           
   590 ;;
   591 ;; Pointer list with targets:
   592                           
   593 ;; display@p	PTR unsigned char  size(2) Largest target is 17
   594 ;;		 -> STR_21(CODE[14]), STR_20(CODE[15]), STR_19(CODE[15]), STR_18(CODE[14]), 
   595 ;;		 -> STR_17(CODE[15]), STR_16(CODE[15]), STR_15(CODE[14]), STR_14(CODE[15]), 
   596 ;;		 -> STR_13(CODE[15]), STR_12(CODE[14]), STR_11(CODE[15]), STR_10(CODE[15]), 
   597 ;;		 -> STR_9(CODE[15]), STR_8(CODE[16]), STR_7(CODE[16]), STR_6(CODE[16]), 
   598 ;;		 -> STR_5(CODE[16]), STR_4(CODE[15]), STR_3(CODE[17]), STR_2(CODE[17]), 
   599 ;;		 -> STR_1(CODE[17]), 
   600 ;;
   601                           
   602                           
   603 ;;
   604 ;; Critical Paths under _main in COMMON
   605 ;;
   606 ;;   _main->_display
   607 ;;   _display->_lcddata
   608 ;;   _lcd_init->_lcdcmd
   609 ;;   _lcd_init_write->_delay
   610 ;;   _lcddata->_delay
   611 ;;   _lcdcmd->_delay
   612 ;;
   613 ;; Critical Paths under _main in BANK0
   614 ;;
   615 ;;   _main->_display
   616 ;;
   617 ;; Critical Paths under _main in BANK1
   618 ;;
   619 ;;   None.
   620 ;;
   621 ;; Critical Paths under _main in BANK3
   622 ;;
   623 ;;   None.
   624 ;;
   625 ;; Critical Paths under _main in BANK2
   626 ;;
   627 ;;   None.
   628                           
   629 ;;
   630 ;;Main: autosize = 0, tempsize = 0, incstack = 0, save=0
   631 ;;
   632                           
   633 ;;
   634 ;;Call Graph Tables:
   635 ;;
   636 ;; ---------------------------------------------------------------------------------
   637 ;; (Depth) Function   	        Calls       Base Space   Used Autos Params    Refs
   638 ;; ---------------------------------------------------------------------------------
   639 ;; (0) _main                                                 0     0      0     660
   640 ;;                              _delay
   641 ;;                           _lcd_init
   642 ;;                             _lcdcmd
   643 ;;                            _display
   644 ;; ---------------------------------------------------------------------------------
   645 ;; (1) _display                                              4     2      2     225
   646 ;;                                             12 COMMON     2     0      2
   647 ;;                                              0 BANK0      2     2      0
   648 ;;                            _lcddata
   649 ;;                              _delay
   650 ;; ---------------------------------------------------------------------------------
   651 ;; (1) _lcd_init                                             0     0      0     255
   652 ;;                              _delay
   653 ;;                     _lcd_init_write
   654 ;;                             _lcdcmd
   655 ;; ---------------------------------------------------------------------------------
   656 ;; (2) _lcd_init_write                                       1     1      0      75
   657 ;;                                              7 COMMON     1     1      0
   658 ;;                              _delay
   659 ;; ---------------------------------------------------------------------------------
   660 ;; (2) _lcddata                                              5     3      2     120
   661 ;;                                              7 COMMON     5     3      2
   662 ;;                              _delay
   663 ;; ---------------------------------------------------------------------------------
   664 ;; (1) _lcdcmd                                               5     3      2     120
   665 ;;                                              7 COMMON     5     3      2
   666 ;;                              _delay
   667 ;; ---------------------------------------------------------------------------------
   668 ;; (2) _delay                                                7     5      2      60
   669 ;;                                              0 COMMON     7     5      2
   670 ;; ---------------------------------------------------------------------------------
   671 ;; Estimated maximum stack depth 2
   672 ;; ---------------------------------------------------------------------------------
   673                           
   674 ;; Call Graph Graphs:
   675                           
   676 ;; _main (ROOT)
   677 ;;   _delay
   678 ;;   _lcd_init
   679 ;;     _delay
   680 ;;     _lcd_init_write
   681 ;;       _delay
   682 ;;     _lcdcmd
   683 ;;       _delay
   684 ;;   _lcdcmd
   685 ;;     _delay
   686 ;;   _display
   687 ;;     _lcddata
   688 ;;       _delay
   689 ;;     _delay
   690 ;;
   691                           
   692 ;; Address spaces:
   693                           
   694 ;;Name               Size   Autos  Total    Cost      Usage
   695 ;;BITCOMMON            E      0       0       0        0.0%
   696 ;;EEDATA             100      0       0       0        0.0%
   697 ;;NULL                 0      0       0       0        0.0%
   698 ;;CODE                 0      0       0       0        0.0%
   699 ;;COMMON               E      E       E       1      100.0%
   700 ;;BITSFR0              0      0       0       1        0.0%
   701 ;;SFR0                 0      0       0       1        0.0%
   702 ;;BITSFR1              0      0       0       2        0.0%
   703 ;;SFR1                 0      0       0       2        0.0%
   704 ;;STACK                0      0       3       2        0.0%
   705 ;;ABS                  0      0       0       3        0.0%
   706 ;;BITBANK0            50      0       0       4        0.0%
   707 ;;BITSFR3              0      0       0       4        0.0%
   708 ;;SFR3                 0      0       0       4        0.0%
   709 ;;BANK0               50      2       2       5        2.5%
   710 ;;BITSFR2              0      0       0       5        0.0%
   711 ;;SFR2                 0      0       0       5        0.0%
   712 ;;BITBANK1            50      0       0       6        0.0%
   713 ;;BANK1               50      0       0       7        0.0%
   714 ;;BITBANK3            60      0       0       8        0.0%
   715 ;;BANK3               60      0       0       9        0.0%
   716 ;;BITBANK2            60      0       0      10        0.0%
   717 ;;BANK2               60      0       0      11        0.0%
   718 ;;DATA                 0      0       0      12        0.0%
   719                           
   720                           	global	_main
   721                           psect	maintext,global,class=CODE,delta=2
   722                           global __pmaintext
   723  033F                     __pmaintext:
   724                           
   725 ;; *************** function _main *****************
   726 ;; Defined at:
   727 ;;		line 41 in file "F:\pic projects\shoe rack controller\shoe 2.c"
   728 ;; Parameters:    Size  Location     Type
   729 ;;		None
   730 ;; Auto vars:     Size  Location     Type
   731 ;;		None
   732 ;; Return value:  Size  Location     Type
   733 ;;		None               void
   734 ;; Registers used:
   735 ;;		wreg, fsr0l, fsr0h, status,2, status,0, btemp+1, pclath, cstack
   736 ;; Tracked objects:
   737 ;;		On entry : 17F/0
   738 ;;		On exit  : 0/0
   739 ;;		Unchanged: 0/0
   740 ;; Data sizes:     COMMON   BANK0   BANK1   BANK3   BANK2
   741 ;;      Params:         0       0       0       0       0
   742 ;;      Locals:         0       0       0       0       0
   743 ;;      Temps:          0       0       0       0       0
   744 ;;      Totals:         0       0       0       0       0
   745 ;;Total ram usage:        0 bytes
   746 ;; Hardware stack levels required when called:    3
   747 ;; This function calls:
   748 ;;		_delay
   749 ;;		_lcd_init
   750 ;;		_lcdcmd
   751 ;;		_display
   752 ;; This function is called by:
   753 ;;		Startup code after reset
   754 ;; This function uses a non-reentrant model
   755 ;;
   756                           psect	maintext
   757                           	file	"F:\pic projects\shoe rack controller\shoe 2.c"
   758                           	line	41
   759                           	global	__size_of_main
   760  04C1                     	__size_of_main	equ	__end_of_main-_main
   761                           	
   762  033F                     _main:	
   763                           	opt	stack 5
   764                           ; Regs used in _main: [wreg-fsr0h+status,2+status,0+btemp+1+pclath+cstack]
   765                           	line	43
   766                           	
   767  033F                     l3145:	
   768                           ;shoe 2.c: 43: TRISB=0XFF;
   769  033F  30FF               	movlw	(0FFh)
   770  0340  1683               	bsf	status, 5	;RP0=1, select bank1
   771  0341  1303               	bcf	status, 6	;RP1=0, select bank1
   772  0342  0086               	movwf	(134)^080h	;volatile
   773                           	line	44
   774                           	
   775  0343                     l3147:	
   776                           ;shoe 2.c: 44: TRISC=0X00;
   777  0343  0187               	clrf	(135)^080h	;volatile
   778                           	line	45
   779                           	
   780  0344                     l3149:	
   781                           ;shoe 2.c: 45: TRISD=0X00;
   782  0344  0188               	clrf	(136)^080h	;volatile
   783                           	line	46
   784                           ;shoe 2.c: 46: TRISA=0XFF;
   785  0345  30FF               	movlw	(0FFh)
   786  0346  0085               	movwf	(133)^080h	;volatile
   787                           	line	47
   788                           ;shoe 2.c: 47: TRISE=0X07;
   789  0347  3007               	movlw	(07h)
   790  0348  0089               	movwf	(137)^080h	;volatile
   791                           	line	48
   792                           	
   793  0349                     l3151:	
   794                           ;shoe 2.c: 48: PORTC=0x00;
   795  0349  1283               	bcf	status, 5	;RP0=0, select bank0
   796  034A  1303               	bcf	status, 6	;RP1=0, select bank0
   797  034B  0187               	clrf	(7)	;volatile
   798                           	line	49
   799                           	
   800  034C                     l3153:	
   801                           ;shoe 2.c: 49: ADCON1 = 0x07;
   802  034C  3007               	movlw	(07h)
   803  034D  1683               	bsf	status, 5	;RP0=1, select bank1
   804  034E  1303               	bcf	status, 6	;RP1=0, select bank1
   805  034F  009F               	movwf	(159)^080h	;volatile
   806                           	line	50
   807                           	
   808  0350                     l3155:	
   809                           ;shoe 2.c: 50: delay(100);
   810  0350  3064               	movlw	low(064h)
   811  0351  00F0               	movwf	(?_delay)
   812  0352  3000               	movlw	high(064h)
   813  0353  00F1               	movwf	((?_delay))+1
   814  0354  120A  118A  21EC   	fcall	_delay
              120A  118A         
   815                           	line	51
   816                           	
   817  0359                     l3157:	
   818                           ;shoe 2.c: 51: lcd_init();
   819  0359  120A  118A  22CC   	fcall	_lcd_init
              120A  118A         
   820                           	line	52
   821                           	
   822  035E                     l3159:	
   823                           ;shoe 2.c: 52: lcd_init();
   824  035E  120A  118A  22CC   	fcall	_lcd_init
              120A  118A         
   825                           	line	53
   826                           	
   827  0363                     l3161:	
   828                           ;shoe 2.c: 53: lcdcmd(0x80);
   829  0363  3080               	movlw	low(080h)
   830  0364  00F7               	movwf	(?_lcdcmd)
   831  0365  3000               	movlw	high(080h)
   832  0366  00F8               	movwf	((?_lcdcmd))+1
   833  0367  120A  118A  222A   	fcall	_lcdcmd
              120A  118A         
   834                           	line	54
   835                           	
   836  036C                     l3163:	
   837                           ;shoe 2.c: 54: display(" auto shoe rack ");
   838  036C  3000               	movlw	low(STR_1|8000h)
   839  036D  00FC               	movwf	(?_display)
   840  036E  3088               	movlw	high(STR_1|8000h)
   841  036F  00FD               	movwf	((?_display))+1
   842  0370  120A  118A  21B3   	fcall	_display
              120A  118A         
   843                           	line	55
   844                           	
   845  0375                     l3165:	
   846                           ;shoe 2.c: 55: delay(1000);
   847  0375  30E8               	movlw	low(03E8h)
   848  0376  00F0               	movwf	(?_delay)
   849  0377  3003               	movlw	high(03E8h)
   850  0378  00F1               	movwf	((?_delay))+1
   851  0379  120A  118A  21EC   	fcall	_delay
              120A  118A         
   852  037E  2B7F               	goto	l3167
   853                           	line	56
   854                           ;shoe 2.c: 56: while(1)
   855                           	
   856  037F                     l711:	
   857                           	line	58
   858                           	
   859  037F                     l3167:	
   860                           ;shoe 2.c: 57: {
   861                           ;shoe 2.c: 58: lcdcmd(0x80);
   862  037F  3080               	movlw	low(080h)
   863  0380  00F7               	movwf	(?_lcdcmd)
   864  0381  3000               	movlw	high(080h)
   865  0382  00F8               	movwf	((?_lcdcmd))+1
   866  0383  120A  118A  222A   	fcall	_lcdcmd
              120A  118A         
   867                           	line	59
   868                           	
   869  0388                     l3169:	
   870                           ;shoe 2.c: 59: display("put shoe on box ");
   871  0388  3011               	movlw	low(STR_2|8000h)
   872  0389  00FC               	movwf	(?_display)
   873  038A  3088               	movlw	high(STR_2|8000h)
   874  038B  00FD               	movwf	((?_display))+1
   875  038C  120A  118A  21B3   	fcall	_display
              120A  118A         
   876                           	line	60
   877                           	
   878  0391                     l3171:	
   879                           ;shoe 2.c: 60: lcdcmd(0xc0);
   880  0391  30C0               	movlw	low(0C0h)
   881  0392  00F7               	movwf	(?_lcdcmd)
   882  0393  3000               	movlw	high(0C0h)
   883  0394  00F8               	movwf	((?_lcdcmd))+1
   884  0395  120A  118A  222A   	fcall	_lcdcmd
              120A  118A         
   885                           	line	61
   886                           	
   887  039A                     l3173:	
   888                           ;shoe 2.c: 61: display("or give rack num");
   889  039A  3022               	movlw	low(STR_3|8000h)
   890  039B  00FC               	movwf	(?_display)
   891  039C  3088               	movlw	high(STR_3|8000h)
   892  039D  00FD               	movwf	((?_display))+1
   893  039E  120A  118A  21B3   	fcall	_display
              120A  118A         
   894                           	line	65
   895                           	
   896  03A3                     l3175:	
   897                           ;shoe 2.c: 65: if(RB0==1)
   898  03A3  1283               	bcf	status, 5	;RP0=0, select bank0
   899  03A4  1303               	bcf	status, 6	;RP1=0, select bank0
   900  03A5  1C06               	btfss	(48/8),(48)&7
   901  03A6  2BA8               	goto	u2661
   902  03A7  2BA9               	goto	u2660
   903  03A8                     u2661:
   904  03A8  2D73               	goto	l712
   905  03A9                     u2660:
   906                           	line	67
   907                           	
   908  03A9                     l3177:	
   909                           ;shoe 2.c: 66: {
   910                           ;shoe 2.c: 67: lcdcmd(0x01);
   911  03A9  3001               	movlw	low(01h)
   912  03AA  00F7               	movwf	(?_lcdcmd)
   913  03AB  3000               	movlw	high(01h)
   914  03AC  00F8               	movwf	((?_lcdcmd))+1
   915  03AD  120A  118A  222A   	fcall	_lcdcmd
              120A  118A         
   916                           	line	68
   917                           	
   918  03B2                     l3179:	
   919                           ;shoe 2.c: 68: display("   pls wait   ");
   920  03B2  3073               	movlw	low(STR_4|8000h)
   921  03B3  00FC               	movwf	(?_display)
   922  03B4  3088               	movlw	high(STR_4|8000h)
   923  03B5  00FD               	movwf	((?_display))+1
   924  03B6  120A  118A  21B3   	fcall	_display
              120A  118A         
   925                           	line	70
   926                           	
   927  03BB                     l3181:	
   928                           ;shoe 2.c: 70: if(RB5==0)
   929  03BB  1283               	bcf	status, 5	;RP0=0, select bank0
   930  03BC  1303               	bcf	status, 6	;RP1=0, select bank0
   931  03BD  1A86               	btfsc	(53/8),(53)&7
   932  03BE  2BC0               	goto	u2671
   933  03BF  2BC1               	goto	u2670
   934  03C0                     u2671:
   935  03C0  2C13               	goto	l713
   936  03C1                     u2670:
   937                           	line	72
   938                           	
   939  03C1                     l3183:	
   940                           ;shoe 2.c: 71: {
   941                           ;shoe 2.c: 72: if(RB1==1)
   942  03C1  1C86               	btfss	(49/8),(49)&7
   943  03C2  2BC4               	goto	u2681
   944  03C3  2BC5               	goto	u2680
   945  03C4                     u2681:
   946  03C4  2BDA               	goto	l714
   947  03C5                     u2680:
   948                           	line	74
   949                           	
   950  03C5                     l3185:	
   951                           ;shoe 2.c: 73: {
   952                           ;shoe 2.c: 74: RC2=1;
   953  03C5  1507               	bsf	(58/8),(58)&7
   954                           	line	75
   955                           ;shoe 2.c: 75: while(RE1==0);
   956  03C6  2BC7               	goto	l715
   957                           	
   958  03C7                     l716:	
   959                           	
   960  03C7                     l715:	
   961  03C7  1C89               	btfss	(73/8),(73)&7
   962  03C8  2BCA               	goto	u2691
   963  03C9  2BCB               	goto	u2690
   964  03CA                     u2691:
   965  03CA  2BC7               	goto	l715
   966  03CB                     u2690:
   967                           	
   968  03CB                     l717:	
   969                           	line	76
   970                           ;shoe 2.c: 76: RC2=0;
   971  03CB  1107               	bcf	(58/8),(58)&7
   972                           	line	77
   973                           ;shoe 2.c: 77: RC0=1;
   974  03CC  1407               	bsf	(56/8),(56)&7
   975                           	line	78
   976                           	
   977  03CD                     l3187:	
   978                           ;shoe 2.c: 78: delay(1000);
   979  03CD  30E8               	movlw	low(03E8h)
   980  03CE  00F0               	movwf	(?_delay)
   981  03CF  3003               	movlw	high(03E8h)
   982  03D0  00F1               	movwf	((?_delay))+1
   983  03D1  120A  118A  21EC   	fcall	_delay
              120A  118A         
   984                           	line	79
   985                           	
   986  03D6                     l3189:	
   987                           ;shoe 2.c: 79: RC0=0;
   988  03D6  1283               	bcf	status, 5	;RP0=0, select bank0
   989  03D7  1303               	bcf	status, 6	;RP1=0, select bank0
   990  03D8  1007               	bcf	(56/8),(56)&7
   991                           	line	80
   992                           ;shoe 2.c: 80: }
   993  03D9  2BF7               	goto	l718
   994                           	line	81
   995                           	
   996  03DA                     l714:	
   997                           	line	83
   998                           ;shoe 2.c: 81: else
   999                           ;shoe 2.c: 82: {
  1000                           ;shoe 2.c: 83: RC4=1;
  1001  03DA  1607               	bsf	(60/8),(60)&7
  1002                           	line	84
  1003                           ;shoe 2.c: 84: RC5=0;
  1004  03DB  1287               	bcf	(61/8),(61)&7
  1005                           	line	85
  1006                           ;shoe 2.c: 85: while(RB1==0);
  1007  03DC  2BDD               	goto	l719
  1008                           	
  1009  03DD                     l720:	
  1010                           	
  1011  03DD                     l719:	
  1012  03DD  1C86               	btfss	(49/8),(49)&7
  1013  03DE  2BE0               	goto	u2701
  1014  03DF  2BE1               	goto	u2700
  1015  03E0                     u2701:
  1016  03E0  2BDD               	goto	l719
  1017  03E1                     u2700:
  1018                           	
  1019  03E1                     l721:	
  1020                           	line	86
  1021                           ;shoe 2.c: 86: RC4=0;
  1022  03E1  1207               	bcf	(60/8),(60)&7
  1023                           	line	87
  1024                           ;shoe 2.c: 87: RC5=0;
  1025  03E2  1287               	bcf	(61/8),(61)&7
  1026                           	line	89
  1027                           ;shoe 2.c: 89: RC2=1;
  1028  03E3  1507               	bsf	(58/8),(58)&7
  1029                           	line	90
  1030                           ;shoe 2.c: 90: while(RE1==0);
  1031  03E4  2BE5               	goto	l722
  1032                           	
  1033  03E5                     l723:	
  1034                           	
  1035  03E5                     l722:	
  1036  03E5  1C89               	btfss	(73/8),(73)&7
  1037  03E6  2BE8               	goto	u2711
  1038  03E7  2BE9               	goto	u2710
  1039  03E8                     u2711:
  1040  03E8  2BE5               	goto	l722
  1041  03E9                     u2710:
  1042                           	
  1043  03E9                     l724:	
  1044                           	line	91
  1045                           ;shoe 2.c: 91: RC2=0;
  1046  03E9  1107               	bcf	(58/8),(58)&7
  1047                           	line	92
  1048                           ;shoe 2.c: 92: RC0=1;
  1049  03EA  1407               	bsf	(56/8),(56)&7
  1050                           	line	93
  1051                           	
  1052  03EB                     l3191:	
  1053                           ;shoe 2.c: 93: delay(1000);
  1054  03EB  30E8               	movlw	low(03E8h)
  1055  03EC  00F0               	movwf	(?_delay)
  1056  03ED  3003               	movlw	high(03E8h)
  1057  03EE  00F1               	movwf	((?_delay))+1
  1058  03EF  120A  118A  21EC   	fcall	_delay
              120A  118A         
  1059                           	line	94
  1060                           	
  1061  03F4                     l3193:	
  1062                           ;shoe 2.c: 94: RC0=0;
  1063  03F4  1283               	bcf	status, 5	;RP0=0, select bank0
  1064  03F5  1303               	bcf	status, 6	;RP1=0, select bank0
  1065  03F6  1007               	bcf	(56/8),(56)&7
  1066                           	line	95
  1067                           	
  1068  03F7                     l718:	
  1069                           	line	96
  1070                           ;shoe 2.c: 95: }
  1071                           ;shoe 2.c: 96: lcdcmd(0x80);
  1072  03F7  3080               	movlw	low(080h)
  1073  03F8  00F7               	movwf	(?_lcdcmd)
  1074  03F9  3000               	movlw	high(080h)
  1075  03FA  00F8               	movwf	((?_lcdcmd))+1
  1076  03FB  120A  118A  222A   	fcall	_lcdcmd
              120A  118A         
  1077                           	line	97
  1078                           	
  1079  0400                     l3195:	
  1080                           ;shoe 2.c: 97: display("shoe on rack #1");
  1081  0400  3033               	movlw	low(STR_5|8000h)
  1082  0401  00FC               	movwf	(?_display)
  1083  0402  3088               	movlw	high(STR_5|8000h)
  1084  0403  00FD               	movwf	((?_display))+1
  1085  0404  120A  118A  21B3   	fcall	_display
              120A  118A         
  1086                           	line	98
  1087                           	
  1088  0409                     l3197:	
  1089                           ;shoe 2.c: 98: delay(3000);
  1090  0409  30B8               	movlw	low(0BB8h)
  1091  040A  00F0               	movwf	(?_delay)
  1092  040B  300B               	movlw	high(0BB8h)
  1093  040C  00F1               	movwf	((?_delay))+1
  1094  040D  120A  118A  21EC   	fcall	_delay
              120A  118A         
  1095                           	line	100
  1096                           ;shoe 2.c: 100: }
  1097  0412  2B7F               	goto	l3167
  1098                           	line	104
  1099                           	
  1100  0413                     l713:	
  1101                           ;shoe 2.c: 104: else if(RB6==0)
  1102  0413  1B06               	btfsc	(54/8),(54)&7
  1103  0414  2C16               	goto	u2721
  1104  0415  2C17               	goto	u2720
  1105  0416                     u2721:
  1106  0416  2C69               	goto	l726
  1107  0417                     u2720:
  1108                           	line	106
  1109                           	
  1110  0417                     l3199:	
  1111                           ;shoe 2.c: 105: {
  1112                           ;shoe 2.c: 106: if(RB1==1)
  1113  0417  1C86               	btfss	(49/8),(49)&7
  1114  0418  2C1A               	goto	u2731
  1115  0419  2C1B               	goto	u2730
  1116  041A                     u2731:
  1117  041A  2C30               	goto	l727
  1118  041B                     u2730:
  1119                           	line	108
  1120                           	
  1121  041B                     l3201:	
  1122                           ;shoe 2.c: 107: {
  1123                           ;shoe 2.c: 108: RC2=1;
  1124  041B  1507               	bsf	(58/8),(58)&7
  1125                           	line	109
  1126                           ;shoe 2.c: 109: while(RE2==0);
  1127  041C  2C1D               	goto	l728
  1128                           	
  1129  041D                     l729:	
  1130                           	
  1131  041D                     l728:	
  1132  041D  1D09               	btfss	(74/8),(74)&7
  1133  041E  2C20               	goto	u2741
  1134  041F  2C21               	goto	u2740
  1135  0420                     u2741:
  1136  0420  2C1D               	goto	l728
  1137  0421                     u2740:
  1138                           	
  1139  0421                     l730:	
  1140                           	line	110
  1141                           ;shoe 2.c: 110: RC2=0;
  1142  0421  1107               	bcf	(58/8),(58)&7
  1143                           	line	111
  1144                           ;shoe 2.c: 111: RC0=1;
  1145  0422  1407               	bsf	(56/8),(56)&7
  1146                           	line	112
  1147                           	
  1148  0423                     l3203:	
  1149                           ;shoe 2.c: 112: delay(1000);
  1150  0423  30E8               	movlw	low(03E8h)
  1151  0424  00F0               	movwf	(?_delay)
  1152  0425  3003               	movlw	high(03E8h)
  1153  0426  00F1               	movwf	((?_delay))+1
  1154  0427  120A  118A  21EC   	fcall	_delay
              120A  118A         
  1155                           	line	113
  1156                           	
  1157  042C                     l3205:	
  1158                           ;shoe 2.c: 113: RC0=0;
  1159  042C  1283               	bcf	status, 5	;RP0=0, select bank0
  1160  042D  1303               	bcf	status, 6	;RP1=0, select bank0
  1161  042E  1007               	bcf	(56/8),(56)&7
  1162                           	line	114
  1163                           ;shoe 2.c: 114: }
  1164  042F  2C4D               	goto	l731
  1165                           	line	115
  1166                           	
  1167  0430                     l727:	
  1168                           	line	117
  1169                           ;shoe 2.c: 115: else
  1170                           ;shoe 2.c: 116: {
  1171                           ;shoe 2.c: 117: RC4=0;
  1172  0430  1207               	bcf	(60/8),(60)&7
  1173                           	line	118
  1174                           ;shoe 2.c: 118: RC5=1;
  1175  0431  1687               	bsf	(61/8),(61)&7
  1176                           	line	119
  1177                           ;shoe 2.c: 119: while(RB1==0);
  1178  0432  2C33               	goto	l732
  1179                           	
  1180  0433                     l733:	
  1181                           	
  1182  0433                     l732:	
  1183  0433  1C86               	btfss	(49/8),(49)&7
  1184  0434  2C36               	goto	u2751
  1185  0435  2C37               	goto	u2750
  1186  0436                     u2751:
  1187  0436  2C33               	goto	l732
  1188  0437                     u2750:
  1189                           	
  1190  0437                     l734:	
  1191                           	line	120
  1192                           ;shoe 2.c: 120: RC4=0;
  1193  0437  1207               	bcf	(60/8),(60)&7
  1194                           	line	121
  1195                           ;shoe 2.c: 121: RC5=0;
  1196  0438  1287               	bcf	(61/8),(61)&7
  1197                           	line	123
  1198                           ;shoe 2.c: 123: RC2=1;
  1199  0439  1507               	bsf	(58/8),(58)&7
  1200                           	line	124
  1201                           ;shoe 2.c: 124: while(RE2==0);
  1202  043A  2C3B               	goto	l735
  1203                           	
  1204  043B                     l736:	
  1205                           	
  1206  043B                     l735:	
  1207  043B  1D09               	btfss	(74/8),(74)&7
  1208  043C  2C3E               	goto	u2761
  1209  043D  2C3F               	goto	u2760
  1210  043E                     u2761:
  1211  043E  2C3B               	goto	l735
  1212  043F                     u2760:
  1213                           	
  1214  043F                     l737:	
  1215                           	line	125
  1216                           ;shoe 2.c: 125: RC2=0;
  1217  043F  1107               	bcf	(58/8),(58)&7
  1218                           	line	126
  1219                           ;shoe 2.c: 126: RC0=1;
  1220  0440  1407               	bsf	(56/8),(56)&7
  1221                           	line	127
  1222                           	
  1223  0441                     l3207:	
  1224                           ;shoe 2.c: 127: delay(1000);
  1225  0441  30E8               	movlw	low(03E8h)
  1226  0442  00F0               	movwf	(?_delay)
  1227  0443  3003               	movlw	high(03E8h)
  1228  0444  00F1               	movwf	((?_delay))+1
  1229  0445  120A  118A  21EC   	fcall	_delay
              120A  118A         
  1230                           	line	128
  1231                           	
  1232  044A                     l3209:	
  1233                           ;shoe 2.c: 128: RC0=0;
  1234  044A  1283               	bcf	status, 5	;RP0=0, select bank0
  1235  044B  1303               	bcf	status, 6	;RP1=0, select bank0
  1236  044C  1007               	bcf	(56/8),(56)&7
  1237                           	line	129
  1238                           	
  1239  044D                     l731:	
  1240                           	line	131
  1241                           ;shoe 2.c: 129: }
  1242                           ;shoe 2.c: 131: lcdcmd(0x80);
  1243  044D  3080               	movlw	low(080h)
  1244  044E  00F7               	movwf	(?_lcdcmd)
  1245  044F  3000               	movlw	high(080h)
  1246  0450  00F8               	movwf	((?_lcdcmd))+1
  1247  0451  120A  118A  222A   	fcall	_lcdcmd
              120A  118A         
  1248                           	line	132
  1249                           	
  1250  0456                     l3211:	
  1251                           ;shoe 2.c: 132: display("shoe on rack #2");
  1252  0456  3043               	movlw	low(STR_6|8000h)
  1253  0457  00FC               	movwf	(?_display)
  1254  0458  3088               	movlw	high(STR_6|8000h)
  1255  0459  00FD               	movwf	((?_display))+1
  1256  045A  120A  118A  21B3   	fcall	_display
              120A  118A         
  1257                           	line	134
  1258                           	
  1259  045F                     l3213:	
  1260                           ;shoe 2.c: 134: delay(3000);
  1261  045F  30B8               	movlw	low(0BB8h)
  1262  0460  00F0               	movwf	(?_delay)
  1263  0461  300B               	movlw	high(0BB8h)
  1264  0462  00F1               	movwf	((?_delay))+1
  1265  0463  120A  118A  21EC   	fcall	_delay
              120A  118A         
  1266                           	line	135
  1267                           ;shoe 2.c: 135: }
  1268  0468  2B7F               	goto	l3167
  1269                           	line	136
  1270                           	
  1271  0469                     l726:	
  1272                           ;shoe 2.c: 136: else if(RB7==0)
  1273  0469  1B86               	btfsc	(55/8),(55)&7
  1274  046A  2C6C               	goto	u2771
  1275  046B  2C6D               	goto	u2770
  1276  046C                     u2771:
  1277  046C  2CDE               	goto	l739
  1278  046D                     u2770:
  1279                           	line	138
  1280                           	
  1281  046D                     l3215:	
  1282                           ;shoe 2.c: 137: {
  1283                           ;shoe 2.c: 138: RD0=1;
  1284  046D  1408               	bsf	(64/8),(64)&7
  1285                           	line	139
  1286                           ;shoe 2.c: 139: RD1=0;
  1287  046E  1088               	bcf	(65/8),(65)&7
  1288                           	line	140
  1289                           	
  1290  046F                     l3217:	
  1291                           ;shoe 2.c: 140: delay(15000);
  1292  046F  3098               	movlw	low(03A98h)
  1293  0470  00F0               	movwf	(?_delay)
  1294  0471  303A               	movlw	high(03A98h)
  1295  0472  00F1               	movwf	((?_delay))+1
  1296  0473  120A  118A  21EC   	fcall	_delay
              120A  118A         
  1297                           	line	141
  1298                           	
  1299  0478                     l3219:	
  1300                           ;shoe 2.c: 141: RD0=0;
  1301  0478  1283               	bcf	status, 5	;RP0=0, select bank0
  1302  0479  1303               	bcf	status, 6	;RP1=0, select bank0
  1303  047A  1008               	bcf	(64/8),(64)&7
  1304                           	line	142
  1305                           	
  1306  047B                     l3221:	
  1307                           ;shoe 2.c: 142: RD1=0;
  1308  047B  1088               	bcf	(65/8),(65)&7
  1309                           	line	144
  1310                           	
  1311  047C                     l3223:	
  1312                           ;shoe 2.c: 144: if(RB1==1)
  1313  047C  1C86               	btfss	(49/8),(49)&7
  1314  047D  2C7F               	goto	u2781
  1315  047E  2C80               	goto	u2780
  1316  047F                     u2781:
  1317  047F  2C95               	goto	l740
  1318  0480                     u2780:
  1319                           	line	146
  1320                           	
  1321  0480                     l3225:	
  1322                           ;shoe 2.c: 145: {
  1323                           ;shoe 2.c: 146: RC2=1;
  1324  0480  1507               	bsf	(58/8),(58)&7
  1325                           	line	147
  1326                           ;shoe 2.c: 147: while(RE1);
  1327  0481  2C82               	goto	l741
  1328                           	
  1329  0482                     l742:	
  1330                           	
  1331  0482                     l741:	
  1332  0482  1889               	btfsc	(73/8),(73)&7
  1333  0483  2C85               	goto	u2791
  1334  0484  2C86               	goto	u2790
  1335  0485                     u2791:
  1336  0485  2C82               	goto	l741
  1337  0486                     u2790:
  1338                           	
  1339  0486                     l743:	
  1340                           	line	148
  1341                           ;shoe 2.c: 148: RC2=0;
  1342  0486  1107               	bcf	(58/8),(58)&7
  1343                           	line	149
  1344                           ;shoe 2.c: 149: RC0=1;
  1345  0487  1407               	bsf	(56/8),(56)&7
  1346                           	line	150
  1347                           	
  1348  0488                     l3227:	
  1349                           ;shoe 2.c: 150: delay(1000);
  1350  0488  30E8               	movlw	low(03E8h)
  1351  0489  00F0               	movwf	(?_delay)
  1352  048A  3003               	movlw	high(03E8h)
  1353  048B  00F1               	movwf	((?_delay))+1
  1354  048C  120A  118A  21EC   	fcall	_delay
              120A  118A         
  1355                           	line	151
  1356                           	
  1357  0491                     l3229:	
  1358                           ;shoe 2.c: 151: RC0=0;
  1359  0491  1283               	bcf	status, 5	;RP0=0, select bank0
  1360  0492  1303               	bcf	status, 6	;RP1=0, select bank0
  1361  0493  1007               	bcf	(56/8),(56)&7
  1362                           	line	152
  1363                           ;shoe 2.c: 152: }
  1364  0494  2CB3               	goto	l3235
  1365                           	line	153
  1366                           	
  1367  0495                     l740:	
  1368                           	line	155
  1369                           ;shoe 2.c: 153: else
  1370                           ;shoe 2.c: 154: {
  1371                           ;shoe 2.c: 155: RC4=1;
  1372  0495  1607               	bsf	(60/8),(60)&7
  1373                           	line	156
  1374                           ;shoe 2.c: 156: RC5=0;
  1375  0496  1287               	bcf	(61/8),(61)&7
  1376                           	line	157
  1377                           ;shoe 2.c: 157: while(RB1==0);
  1378  0497  2C98               	goto	l745
  1379                           	
  1380  0498                     l746:	
  1381                           	
  1382  0498                     l745:	
  1383  0498  1C86               	btfss	(49/8),(49)&7
  1384  0499  2C9B               	goto	u2801
  1385  049A  2C9C               	goto	u2800
  1386  049B                     u2801:
  1387  049B  2C98               	goto	l745
  1388  049C                     u2800:
  1389                           	
  1390  049C                     l747:	
  1391                           	line	158
  1392                           ;shoe 2.c: 158: RC4=0;
  1393  049C  1207               	bcf	(60/8),(60)&7
  1394                           	line	159
  1395                           ;shoe 2.c: 159: RC5=0;
  1396  049D  1287               	bcf	(61/8),(61)&7
  1397                           	line	161
  1398                           ;shoe 2.c: 161: RC2=1;
  1399  049E  1507               	bsf	(58/8),(58)&7
  1400                           	line	162
  1401                           ;shoe 2.c: 162: while(RE1==0);
  1402  049F  2CA0               	goto	l748
  1403                           	
  1404  04A0                     l749:	
  1405                           	
  1406  04A0                     l748:	
  1407  04A0  1C89               	btfss	(73/8),(73)&7
  1408  04A1  2CA3               	goto	u2811
  1409  04A2  2CA4               	goto	u2810
  1410  04A3                     u2811:
  1411  04A3  2CA0               	goto	l748
  1412  04A4                     u2810:
  1413                           	
  1414  04A4                     l750:	
  1415                           	line	163
  1416                           ;shoe 2.c: 163: RC2=0;
  1417  04A4  1107               	bcf	(58/8),(58)&7
  1418                           	line	164
  1419                           ;shoe 2.c: 164: RC0=1;
  1420  04A5  1407               	bsf	(56/8),(56)&7
  1421                           	line	165
  1422                           	
  1423  04A6                     l3231:	
  1424                           ;shoe 2.c: 165: delay(1000);
  1425  04A6  30E8               	movlw	low(03E8h)
  1426  04A7  00F0               	movwf	(?_delay)
  1427  04A8  3003               	movlw	high(03E8h)
  1428  04A9  00F1               	movwf	((?_delay))+1
  1429  04AA  120A  118A  21EC   	fcall	_delay
              120A  118A         
  1430                           	line	166
  1431                           	
  1432  04AF                     l3233:	
  1433                           ;shoe 2.c: 166: RC0=0;
  1434  04AF  1283               	bcf	status, 5	;RP0=0, select bank0
  1435  04B0  1303               	bcf	status, 6	;RP1=0, select bank0
  1436  04B1  1007               	bcf	(56/8),(56)&7
  1437  04B2  2CB3               	goto	l3235
  1438                           	line	167
  1439                           	
  1440  04B3                     l744:	
  1441                           	line	168
  1442                           	
  1443  04B3                     l3235:	
  1444                           ;shoe 2.c: 167: }
  1445                           ;shoe 2.c: 168: RD0=0;
  1446  04B3  1008               	bcf	(64/8),(64)&7
  1447                           	line	169
  1448                           	
  1449  04B4                     l3237:	
  1450                           ;shoe 2.c: 169: RD1=1;
  1451  04B4  1488               	bsf	(65/8),(65)&7
  1452                           	line	170
  1453                           ;shoe 2.c: 170: delay(15000);
  1454  04B5  3098               	movlw	low(03A98h)
  1455  04B6  00F0               	movwf	(?_delay)
  1456  04B7  303A               	movlw	high(03A98h)
  1457  04B8  00F1               	movwf	((?_delay))+1
  1458  04B9  120A  118A  21EC   	fcall	_delay
              120A  118A         
  1459                           	line	171
  1460                           	
  1461  04BE                     l3239:	
  1462                           ;shoe 2.c: 171: RD0=0;
  1463  04BE  1283               	bcf	status, 5	;RP0=0, select bank0
  1464  04BF  1303               	bcf	status, 6	;RP1=0, select bank0
  1465  04C0  1008               	bcf	(64/8),(64)&7
  1466                           	line	172
  1467                           	
  1468  04C1                     l3241:	
  1469                           ;shoe 2.c: 172: RD1=0;
  1470  04C1  1088               	bcf	(65/8),(65)&7
  1471                           	line	175
  1472                           ;shoe 2.c: 175: lcdcmd(0x80);
  1473  04C2  3080               	movlw	low(080h)
  1474  04C3  00F7               	movwf	(?_lcdcmd)
  1475  04C4  3000               	movlw	high(080h)
  1476  04C5  00F8               	movwf	((?_lcdcmd))+1
  1477  04C6  120A  118A  222A   	fcall	_lcdcmd
              120A  118A         
  1478                           	line	176
  1479                           	
  1480  04CB                     l3243:	
  1481                           ;shoe 2.c: 176: display("shoe on rack #3");
  1482  04CB  3053               	movlw	low(STR_7|8000h)
  1483  04CC  00FC               	movwf	(?_display)
  1484  04CD  3088               	movlw	high(STR_7|8000h)
  1485  04CE  00FD               	movwf	((?_display))+1
  1486  04CF  120A  118A  21B3   	fcall	_display
              120A  118A         
  1487                           	line	177
  1488                           	
  1489  04D4                     l3245:	
  1490                           ;shoe 2.c: 177: delay(3000);
  1491  04D4  30B8               	movlw	low(0BB8h)
  1492  04D5  00F0               	movwf	(?_delay)
  1493  04D6  300B               	movlw	high(0BB8h)
  1494  04D7  00F1               	movwf	((?_delay))+1
  1495  04D8  120A  118A  21EC   	fcall	_delay
              120A  118A         
  1496                           	line	179
  1497                           ;shoe 2.c: 179: }
  1498  04DD  2B7F               	goto	l3167
  1499                           	line	183
  1500                           	
  1501  04DE                     l739:	
  1502                           ;shoe 2.c: 183: else if(RE0==0)
  1503  04DE  1809               	btfsc	(72/8),(72)&7
  1504  04DF  2CE1               	goto	u2821
  1505  04E0  2CE2               	goto	u2820
  1506  04E1                     u2821:
  1507  04E1  2D53               	goto	l3279
  1508  04E2                     u2820:
  1509                           	line	185
  1510                           	
  1511  04E2                     l3247:	
  1512                           ;shoe 2.c: 184: {
  1513                           ;shoe 2.c: 185: RD0=1;
  1514  04E2  1408               	bsf	(64/8),(64)&7
  1515                           	line	186
  1516                           ;shoe 2.c: 186: RD1=0;
  1517  04E3  1088               	bcf	(65/8),(65)&7
  1518                           	line	187
  1519                           	
  1520  04E4                     l3249:	
  1521                           ;shoe 2.c: 187: delay(15000);
  1522  04E4  3098               	movlw	low(03A98h)
  1523  04E5  00F0               	movwf	(?_delay)
  1524  04E6  303A               	movlw	high(03A98h)
  1525  04E7  00F1               	movwf	((?_delay))+1
  1526  04E8  120A  118A  21EC   	fcall	_delay
              120A  118A         
  1527                           	line	188
  1528                           	
  1529  04ED                     l3251:	
  1530                           ;shoe 2.c: 188: RD0=0;
  1531  04ED  1283               	bcf	status, 5	;RP0=0, select bank0
  1532  04EE  1303               	bcf	status, 6	;RP1=0, select bank0
  1533  04EF  1008               	bcf	(64/8),(64)&7
  1534                           	line	189
  1535                           	
  1536  04F0                     l3253:	
  1537                           ;shoe 2.c: 189: RD1=0;
  1538  04F0  1088               	bcf	(65/8),(65)&7
  1539                           	line	191
  1540                           	
  1541  04F1                     l3255:	
  1542                           ;shoe 2.c: 191: if(RB1==1)
  1543  04F1  1C86               	btfss	(49/8),(49)&7
  1544  04F2  2CF4               	goto	u2831
  1545  04F3  2CF5               	goto	u2830
  1546  04F4                     u2831:
  1547  04F4  2D0A               	goto	l753
  1548  04F5                     u2830:
  1549                           	line	193
  1550                           	
  1551  04F5                     l3257:	
  1552                           ;shoe 2.c: 192: {
  1553                           ;shoe 2.c: 193: RC2=1;
  1554  04F5  1507               	bsf	(58/8),(58)&7
  1555                           	line	194
  1556                           ;shoe 2.c: 194: while(RE2==0);
  1557  04F6  2CF7               	goto	l754
  1558                           	
  1559  04F7                     l755:	
  1560                           	
  1561  04F7                     l754:	
  1562  04F7  1D09               	btfss	(74/8),(74)&7
  1563  04F8  2CFA               	goto	u2841
  1564  04F9  2CFB               	goto	u2840
  1565  04FA                     u2841:
  1566  04FA  2CF7               	goto	l754
  1567  04FB                     u2840:
  1568                           	
  1569  04FB                     l756:	
  1570                           	line	195
  1571                           ;shoe 2.c: 195: RC2=0;
  1572  04FB  1107               	bcf	(58/8),(58)&7
  1573                           	line	196
  1574                           ;shoe 2.c: 196: RC0=1;
  1575  04FC  1407               	bsf	(56/8),(56)&7
  1576                           	line	197
  1577                           	
  1578  04FD                     l3259:	
  1579                           ;shoe 2.c: 197: delay(1000);
  1580  04FD  30E8               	movlw	low(03E8h)
  1581  04FE  00F0               	movwf	(?_delay)
  1582  04FF  3003               	movlw	high(03E8h)
  1583  0500  00F1               	movwf	((?_delay))+1
  1584  0501  120A  118A  21EC   	fcall	_delay
              120A  118A         
  1585                           	line	198
  1586                           	
  1587  0506                     l3261:	
  1588                           ;shoe 2.c: 198: RC0=0;
  1589  0506  1283               	bcf	status, 5	;RP0=0, select bank0
  1590  0507  1303               	bcf	status, 6	;RP1=0, select bank0
  1591  0508  1007               	bcf	(56/8),(56)&7
  1592                           	line	199
  1593                           ;shoe 2.c: 199: }
  1594  0509  2D28               	goto	l3267
  1595                           	line	200
  1596                           	
  1597  050A                     l753:	
  1598                           	line	202
  1599                           ;shoe 2.c: 200: else
  1600                           ;shoe 2.c: 201: {
  1601                           ;shoe 2.c: 202: RC4=0;
  1602  050A  1207               	bcf	(60/8),(60)&7
  1603                           	line	203
  1604                           ;shoe 2.c: 203: RC5=1;
  1605  050B  1687               	bsf	(61/8),(61)&7
  1606                           	line	204
  1607                           ;shoe 2.c: 204: while(RB1==0);
  1608  050C  2D0D               	goto	l758
  1609                           	
  1610  050D                     l759:	
  1611                           	
  1612  050D                     l758:	
  1613  050D  1C86               	btfss	(49/8),(49)&7
  1614  050E  2D10               	goto	u2851
  1615  050F  2D11               	goto	u2850
  1616  0510                     u2851:
  1617  0510  2D0D               	goto	l758
  1618  0511                     u2850:
  1619                           	
  1620  0511                     l760:	
  1621                           	line	205
  1622                           ;shoe 2.c: 205: RC4=0;
  1623  0511  1207               	bcf	(60/8),(60)&7
  1624                           	line	206
  1625                           ;shoe 2.c: 206: RC5=0;
  1626  0512  1287               	bcf	(61/8),(61)&7
  1627                           	line	208
  1628                           ;shoe 2.c: 208: RC2=1;
  1629  0513  1507               	bsf	(58/8),(58)&7
  1630                           	line	209
  1631                           ;shoe 2.c: 209: while(RE2==0);
  1632  0514  2D15               	goto	l761
  1633                           	
  1634  0515                     l762:	
  1635                           	
  1636  0515                     l761:	
  1637  0515  1D09               	btfss	(74/8),(74)&7
  1638  0516  2D18               	goto	u2861
  1639  0517  2D19               	goto	u2860
  1640  0518                     u2861:
  1641  0518  2D15               	goto	l761
  1642  0519                     u2860:
  1643                           	
  1644  0519                     l763:	
  1645                           	line	210
  1646                           ;shoe 2.c: 210: RC2=0;
  1647  0519  1107               	bcf	(58/8),(58)&7
  1648                           	line	211
  1649                           ;shoe 2.c: 211: RC0=1;
  1650  051A  1407               	bsf	(56/8),(56)&7
  1651                           	line	212
  1652                           	
  1653  051B                     l3263:	
  1654                           ;shoe 2.c: 212: delay(1000);
  1655  051B  30E8               	movlw	low(03E8h)
  1656  051C  00F0               	movwf	(?_delay)
  1657  051D  3003               	movlw	high(03E8h)
  1658  051E  00F1               	movwf	((?_delay))+1
  1659  051F  120A  118A  21EC   	fcall	_delay
              120A  118A         
  1660                           	line	213
  1661                           	
  1662  0524                     l3265:	
  1663                           ;shoe 2.c: 213: RC0=0;
  1664  0524  1283               	bcf	status, 5	;RP0=0, select bank0
  1665  0525  1303               	bcf	status, 6	;RP1=0, select bank0
  1666  0526  1007               	bcf	(56/8),(56)&7
  1667  0527  2D28               	goto	l3267
  1668                           	line	214
  1669                           	
  1670  0528                     l757:	
  1671                           	line	216
  1672                           	
  1673  0528                     l3267:	
  1674                           ;shoe 2.c: 214: }
  1675                           ;shoe 2.c: 216: RD0=0;
  1676  0528  1008               	bcf	(64/8),(64)&7
  1677                           	line	217
  1678                           	
  1679  0529                     l3269:	
  1680                           ;shoe 2.c: 217: RD1=1;
  1681  0529  1488               	bsf	(65/8),(65)&7
  1682                           	line	218
  1683                           ;shoe 2.c: 218: delay(15000);
  1684  052A  3098               	movlw	low(03A98h)
  1685  052B  00F0               	movwf	(?_delay)
  1686  052C  303A               	movlw	high(03A98h)
  1687  052D  00F1               	movwf	((?_delay))+1
  1688  052E  120A  118A  21EC   	fcall	_delay
              120A  118A         
  1689                           	line	219
  1690                           	
  1691  0533                     l3271:	
  1692                           ;shoe 2.c: 219: RD0=0;
  1693  0533  1283               	bcf	status, 5	;RP0=0, select bank0
  1694  0534  1303               	bcf	status, 6	;RP1=0, select bank0
  1695  0535  1008               	bcf	(64/8),(64)&7
  1696                           	line	220
  1697                           	
  1698  0536                     l3273:	
  1699                           ;shoe 2.c: 220: RD1=0;
  1700  0536  1088               	bcf	(65/8),(65)&7
  1701                           	line	222
  1702                           ;shoe 2.c: 222: lcdcmd(0x80);
  1703  0537  3080               	movlw	low(080h)
  1704  0538  00F7               	movwf	(?_lcdcmd)
  1705  0539  3000               	movlw	high(080h)
  1706  053A  00F8               	movwf	((?_lcdcmd))+1
  1707  053B  120A  118A  222A   	fcall	_lcdcmd
              120A  118A         
  1708                           	line	223
  1709                           	
  1710  0540                     l3275:	
  1711                           ;shoe 2.c: 223: display("shoe on rack #4");
  1712  0540  3063               	movlw	low(STR_8|8000h)
  1713  0541  00FC               	movwf	(?_display)
  1714  0542  3088               	movlw	high(STR_8|8000h)
  1715  0543  00FD               	movwf	((?_display))+1
  1716  0544  120A  118A  21B3   	fcall	_display
              120A  118A         
  1717                           	line	224
  1718                           	
  1719  0549                     l3277:	
  1720                           ;shoe 2.c: 224: delay(3000);
  1721  0549  30B8               	movlw	low(0BB8h)
  1722  054A  00F0               	movwf	(?_delay)
  1723  054B  300B               	movlw	high(0BB8h)
  1724  054C  00F1               	movwf	((?_delay))+1
  1725  054D  120A  118A  21EC   	fcall	_delay
              120A  118A         
  1726                           	line	225
  1727                           ;shoe 2.c: 225: }
  1728  0552  2B7F               	goto	l3167
  1729                           	line	226
  1730                           	
  1731  0553                     l752:	
  1732                           	line	228
  1733                           	
  1734  0553                     l3279:	
  1735                           ;shoe 2.c: 226: else
  1736                           ;shoe 2.c: 227: {
  1737                           ;shoe 2.c: 228: lcdcmd(0x01);
  1738  0553  3001               	movlw	low(01h)
  1739  0554  00F7               	movwf	(?_lcdcmd)
  1740  0555  3000               	movlw	high(01h)
  1741  0556  00F8               	movwf	((?_lcdcmd))+1
  1742  0557  120A  118A  222A   	fcall	_lcdcmd
              120A  118A         
  1743                           	line	229
  1744                           	
  1745  055C                     l3281:	
  1746                           ;shoe 2.c: 229: display("sorry no space");
  1747  055C  30BE               	movlw	low(STR_9|8000h)
  1748  055D  00FC               	movwf	(?_display)
  1749  055E  3088               	movlw	high(STR_9|8000h)
  1750  055F  00FD               	movwf	((?_display))+1
  1751  0560  120A  118A  21B3   	fcall	_display
              120A  118A         
  1752                           	line	230
  1753                           	
  1754  0565                     l3283:	
  1755                           ;shoe 2.c: 230: delay(3000);
  1756  0565  30B8               	movlw	low(0BB8h)
  1757  0566  00F0               	movwf	(?_delay)
  1758  0567  300B               	movlw	high(0BB8h)
  1759  0568  00F1               	movwf	((?_delay))+1
  1760  0569  120A  118A  21EC   	fcall	_delay
              120A  118A         
  1761  056E  2B7F               	goto	l3167
  1762                           	line	232
  1763                           	
  1764  056F                     l764:	
  1765  056F  2B7F               	goto	l3167
  1766                           	
  1767  0570                     l751:	
  1768  0570  2B7F               	goto	l3167
  1769                           	
  1770  0571                     l738:	
  1771  0571  2B7F               	goto	l3167
  1772                           	
  1773  0572                     l725:	
  1774                           	line	235
  1775                           ;shoe 2.c: 232: }
  1776                           ;shoe 2.c: 235: }
  1777  0572  2B7F               	goto	l3167
  1778                           	line	237
  1779                           	
  1780  0573                     l712:	
  1781                           ;shoe 2.c: 237: else if(RA0==0)
  1782  0573  1805               	btfsc	(40/8),(40)&7
  1783  0574  2D76               	goto	u2871
  1784  0575  2D77               	goto	u2870
  1785  0576                     u2871:
  1786  0576  2E06               	goto	l766
  1787  0577                     u2870:
  1788                           	line	240
  1789                           	
  1790  0577                     l3285:	
  1791                           ;shoe 2.c: 238: {
  1792                           ;shoe 2.c: 240: if(RB5==0)
  1793  0577  1A86               	btfsc	(53/8),(53)&7
  1794  0578  2D7A               	goto	u2881
  1795  0579  2D7B               	goto	u2880
  1796  057A                     u2881:
  1797  057A  2D97               	goto	l3293
  1798  057B                     u2880:
  1799                           	line	242
  1800                           	
  1801  057B                     l3287:	
  1802                           ;shoe 2.c: 241: {
  1803                           ;shoe 2.c: 242: lcdcmd(0x01);
  1804  057B  3001               	movlw	low(01h)
  1805  057C  00F7               	movwf	(?_lcdcmd)
  1806  057D  3000               	movlw	high(01h)
  1807  057E  00F8               	movwf	((?_lcdcmd))+1
  1808  057F  120A  118A  222A   	fcall	_lcdcmd
              120A  118A         
  1809                           	line	243
  1810                           	
  1811  0584                     l3289:	
  1812                           ;shoe 2.c: 243: display("rack 1 is emty");
  1813  0584  30CD               	movlw	low(STR_10|8000h)
  1814  0585  00FC               	movwf	(?_display)
  1815  0586  3088               	movlw	high(STR_10|8000h)
  1816  0587  00FD               	movwf	((?_display))+1
  1817  0588  120A  118A  21B3   	fcall	_display
              120A  118A         
  1818                           	line	244
  1819                           	
  1820  058D                     l3291:	
  1821                           ;shoe 2.c: 244: delay(2000);
  1822  058D  30D0               	movlw	low(07D0h)
  1823  058E  00F0               	movwf	(?_delay)
  1824  058F  3007               	movlw	high(07D0h)
  1825  0590  00F1               	movwf	((?_delay))+1
  1826  0591  120A  118A  21EC   	fcall	_delay
              120A  118A         
  1827                           	line	245
  1828                           ;shoe 2.c: 245: }
  1829  0596  2B7F               	goto	l3167
  1830                           	line	246
  1831                           	
  1832  0597                     l767:	
  1833                           	line	248
  1834                           	
  1835  0597                     l3293:	
  1836                           ;shoe 2.c: 246: else
  1837                           ;shoe 2.c: 247: {
  1838                           ;shoe 2.c: 248: lcdcmd(0x01);
  1839  0597  3001               	movlw	low(01h)
  1840  0598  00F7               	movwf	(?_lcdcmd)
  1841  0599  3000               	movlw	high(01h)
  1842  059A  00F8               	movwf	((?_lcdcmd))+1
  1843  059B  120A  118A  222A   	fcall	_lcdcmd
              120A  118A         
  1844                           	line	249
  1845                           	
  1846  05A0                     l3295:	
  1847                           ;shoe 2.c: 249: display("getting rack 1");
  1848  05A0  3082               	movlw	low(STR_11|8000h)
  1849  05A1  00FC               	movwf	(?_display)
  1850  05A2  3088               	movlw	high(STR_11|8000h)
  1851  05A3  00FD               	movwf	((?_display))+1
  1852  05A4  120A  118A  21B3   	fcall	_display
              120A  118A         
  1853                           	line	250
  1854                           	
  1855  05A9                     l3297:	
  1856                           ;shoe 2.c: 250: if(RB3==1)
  1857  05A9  1283               	bcf	status, 5	;RP0=0, select bank0
  1858  05AA  1303               	bcf	status, 6	;RP1=0, select bank0
  1859  05AB  1D86               	btfss	(51/8),(51)&7
  1860  05AC  2DAE               	goto	u2891
  1861  05AD  2DAF               	goto	u2890
  1862  05AE                     u2891:
  1863  05AE  2DCA               	goto	l769
  1864  05AF                     u2890:
  1865                           	line	252
  1866                           	
  1867  05AF                     l3299:	
  1868                           ;shoe 2.c: 251: {
  1869                           ;shoe 2.c: 252: RC1=1;
  1870  05AF  1487               	bsf	(57/8),(57)&7
  1871                           	line	253
  1872                           	
  1873  05B0                     l3301:	
  1874                           ;shoe 2.c: 253: delay(1000);
  1875  05B0  30E8               	movlw	low(03E8h)
  1876  05B1  00F0               	movwf	(?_delay)
  1877  05B2  3003               	movlw	high(03E8h)
  1878  05B3  00F1               	movwf	((?_delay))+1
  1879  05B4  120A  118A  21EC   	fcall	_delay
              120A  118A         
  1880                           	line	254
  1881                           	
  1882  05B9                     l3303:	
  1883                           ;shoe 2.c: 254: RC1=0;
  1884  05B9  1283               	bcf	status, 5	;RP0=0, select bank0
  1885  05BA  1303               	bcf	status, 6	;RP1=0, select bank0
  1886  05BB  1087               	bcf	(57/8),(57)&7
  1887                           	line	255
  1888                           	
  1889  05BC                     l3305:	
  1890                           ;shoe 2.c: 255: RC2=1;
  1891  05BC  1507               	bsf	(58/8),(58)&7
  1892                           	line	256
  1893                           ;shoe 2.c: 256: delay(8000);
  1894  05BD  3040               	movlw	low(01F40h)
  1895  05BE  00F0               	movwf	(?_delay)
  1896  05BF  301F               	movlw	high(01F40h)
  1897  05C0  00F1               	movwf	((?_delay))+1
  1898  05C1  120A  118A  21EC   	fcall	_delay
              120A  118A         
  1899                           	line	257
  1900                           	
  1901  05C6                     l3307:	
  1902                           ;shoe 2.c: 257: RC2=0;
  1903  05C6  1283               	bcf	status, 5	;RP0=0, select bank0
  1904  05C7  1303               	bcf	status, 6	;RP1=0, select bank0
  1905  05C8  1107               	bcf	(58/8),(58)&7
  1906                           	line	258
  1907                           ;shoe 2.c: 258: }
  1908  05C9  2DE9               	goto	l770
  1909                           	line	259
  1910                           	
  1911  05CA                     l769:	
  1912                           	line	261
  1913                           ;shoe 2.c: 259: else
  1914                           ;shoe 2.c: 260: {
  1915                           ;shoe 2.c: 261: RC6=0;
  1916  05CA  1307               	bcf	(62/8),(62)&7
  1917                           	line	262
  1918                           ;shoe 2.c: 262: RC7=1;
  1919  05CB  1787               	bsf	(63/8),(63)&7
  1920                           	line	263
  1921                           ;shoe 2.c: 263: while(RB3==0);
  1922  05CC  2DCD               	goto	l771
  1923                           	
  1924  05CD                     l772:	
  1925                           	
  1926  05CD                     l771:	
  1927  05CD  1D86               	btfss	(51/8),(51)&7
  1928  05CE  2DD0               	goto	u2901
  1929  05CF  2DD1               	goto	u2900
  1930  05D0                     u2901:
  1931  05D0  2DCD               	goto	l771
  1932  05D1                     u2900:
  1933                           	
  1934  05D1                     l773:	
  1935                           	line	264
  1936                           ;shoe 2.c: 264: RC6=0;
  1937  05D1  1307               	bcf	(62/8),(62)&7
  1938                           	line	265
  1939                           ;shoe 2.c: 265: RC7=0;
  1940  05D2  1387               	bcf	(63/8),(63)&7
  1941                           	line	267
  1942                           ;shoe 2.c: 267: RC1=1;
  1943  05D3  1487               	bsf	(57/8),(57)&7
  1944                           	line	268
  1945                           	
  1946  05D4                     l3309:	
  1947                           ;shoe 2.c: 268: delay(1000);
  1948  05D4  30E8               	movlw	low(03E8h)
  1949  05D5  00F0               	movwf	(?_delay)
  1950  05D6  3003               	movlw	high(03E8h)
  1951  05D7  00F1               	movwf	((?_delay))+1
  1952  05D8  120A  118A  21EC   	fcall	_delay
              120A  118A         
  1953                           	line	269
  1954                           	
  1955  05DD                     l3311:	
  1956                           ;shoe 2.c: 269: RC1=0;
  1957  05DD  1283               	bcf	status, 5	;RP0=0, select bank0
  1958  05DE  1303               	bcf	status, 6	;RP1=0, select bank0
  1959  05DF  1087               	bcf	(57/8),(57)&7
  1960                           	line	270
  1961                           	
  1962  05E0                     l3313:	
  1963                           ;shoe 2.c: 270: RC2==1;
  1964                           	line	271
  1965                           ;shoe 2.c: 271: delay(18000);
  1966  05E0  3050               	movlw	low(04650h)
  1967  05E1  00F0               	movwf	(?_delay)
  1968  05E2  3046               	movlw	high(04650h)
  1969  05E3  00F1               	movwf	((?_delay))+1
  1970  05E4  120A  118A  21EC   	fcall	_delay
              120A  118A         
  1971                           	line	272
  1972                           	
  1973  05E9                     l3315:	
  1974                           ;shoe 2.c: 272: RC2==0;
  1975                           	line	273
  1976                           	
  1977  05E9                     l770:	
  1978                           	line	275
  1979                           ;shoe 2.c: 273: }
  1980                           ;shoe 2.c: 275: lcdcmd(0x80);
  1981  05E9  3080               	movlw	low(080h)
  1982  05EA  00F7               	movwf	(?_lcdcmd)
  1983  05EB  3000               	movlw	high(080h)
  1984  05EC  00F8               	movwf	((?_lcdcmd))+1
  1985  05ED  120A  118A  222A   	fcall	_lcdcmd
              120A  118A         
  1986                           	line	276
  1987                           	
  1988  05F2                     l3317:	
  1989                           ;shoe 2.c: 276: display("pls take shoe");
  1990  05F2  3009               	movlw	low(STR_12|8000h)
  1991  05F3  00FC               	movwf	(?_display)
  1992  05F4  3089               	movlw	high(STR_12|8000h)
  1993  05F5  00FD               	movwf	((?_display))+1
  1994  05F6  120A  118A  21B3   	fcall	_display
              120A  118A         
  1995                           	line	277
  1996                           	
  1997  05FB                     l3319:	
  1998                           ;shoe 2.c: 277: delay(3000);
  1999  05FB  30B8               	movlw	low(0BB8h)
  2000  05FC  00F0               	movwf	(?_delay)
  2001  05FD  300B               	movlw	high(0BB8h)
  2002  05FE  00F1               	movwf	((?_delay))+1
  2003  05FF  120A  118A  21EC   	fcall	_delay
              120A  118A         
  2004  0604  2B7F               	goto	l3167
  2005                           	line	278
  2006                           	
  2007  0605                     l768:	
  2008                           	line	279
  2009                           ;shoe 2.c: 278: }
  2010                           ;shoe 2.c: 279: }
  2011  0605  2B7F               	goto	l3167
  2012                           	line	285
  2013                           	
  2014  0606                     l766:	
  2015                           ;shoe 2.c: 285: else if(RA1==0)
  2016  0606  1885               	btfsc	(41/8),(41)&7
  2017  0607  2E09               	goto	u2911
  2018  0608  2E0A               	goto	u2910
  2019  0609                     u2911:
  2020  0609  2E95               	goto	l775
  2021  060A                     u2910:
  2022                           	line	287
  2023                           	
  2024  060A                     l3321:	
  2025                           ;shoe 2.c: 286: {
  2026                           ;shoe 2.c: 287: if(RB6==0)
  2027  060A  1B06               	btfsc	(54/8),(54)&7
  2028  060B  2E0D               	goto	u2921
  2029  060C  2E0E               	goto	u2920
  2030  060D                     u2921:
  2031  060D  2E2A               	goto	l3329
  2032  060E                     u2920:
  2033                           	line	289
  2034                           	
  2035  060E                     l3323:	
  2036                           ;shoe 2.c: 288: {
  2037                           ;shoe 2.c: 289: lcdcmd(0x01);
  2038  060E  3001               	movlw	low(01h)
  2039  060F  00F7               	movwf	(?_lcdcmd)
  2040  0610  3000               	movlw	high(01h)
  2041  0611  00F8               	movwf	((?_lcdcmd))+1
  2042  0612  120A  118A  222A   	fcall	_lcdcmd
              120A  118A         
  2043                           	line	290
  2044                           	
  2045  0617                     l3325:	
  2046                           ;shoe 2.c: 290: display("rack 2 is emty");
  2047  0617  30DC               	movlw	low(STR_13|8000h)
  2048  0618  00FC               	movwf	(?_display)
  2049  0619  3088               	movlw	high(STR_13|8000h)
  2050  061A  00FD               	movwf	((?_display))+1
  2051  061B  120A  118A  21B3   	fcall	_display
              120A  118A         
  2052                           	line	291
  2053                           	
  2054  0620                     l3327:	
  2055                           ;shoe 2.c: 291: delay(3000);
  2056  0620  30B8               	movlw	low(0BB8h)
  2057  0621  00F0               	movwf	(?_delay)
  2058  0622  300B               	movlw	high(0BB8h)
  2059  0623  00F1               	movwf	((?_delay))+1
  2060  0624  120A  118A  21EC   	fcall	_delay
              120A  118A         
  2061                           	line	292
  2062                           ;shoe 2.c: 292: }
  2063  0629  2B7F               	goto	l3167
  2064                           	line	293
  2065                           	
  2066  062A                     l776:	
  2067                           	line	295
  2068                           	
  2069  062A                     l3329:	
  2070                           ;shoe 2.c: 293: else
  2071                           ;shoe 2.c: 294: {
  2072                           ;shoe 2.c: 295: lcdcmd(0x01);
  2073  062A  3001               	movlw	low(01h)
  2074  062B  00F7               	movwf	(?_lcdcmd)
  2075  062C  3000               	movlw	high(01h)
  2076  062D  00F8               	movwf	((?_lcdcmd))+1
  2077  062E  120A  118A  222A   	fcall	_lcdcmd
              120A  118A         
  2078                           	line	296
  2079                           	
  2080  0633                     l3331:	
  2081                           ;shoe 2.c: 296: display("getting rack 2");
  2082  0633  3091               	movlw	low(STR_14|8000h)
  2083  0634  00FC               	movwf	(?_display)
  2084  0635  3088               	movlw	high(STR_14|8000h)
  2085  0636  00FD               	movwf	((?_display))+1
  2086  0637  120A  118A  21B3   	fcall	_display
              120A  118A         
  2087                           	line	297
  2088                           	
  2089  063C                     l3333:	
  2090                           ;shoe 2.c: 297: if(RB4==1)
  2091  063C  1283               	bcf	status, 5	;RP0=0, select bank0
  2092  063D  1303               	bcf	status, 6	;RP1=0, select bank0
  2093  063E  1E06               	btfss	(52/8),(52)&7
  2094  063F  2E41               	goto	u2931
  2095  0640  2E42               	goto	u2930
  2096  0641                     u2931:
  2097  0641  2E59               	goto	l778
  2098  0642                     u2930:
  2099                           	line	299
  2100                           	
  2101  0642                     l3335:	
  2102                           ;shoe 2.c: 298: {
  2103                           ;shoe 2.c: 299: RC1=1;
  2104  0642  1487               	bsf	(57/8),(57)&7
  2105                           	line	300
  2106                           	
  2107  0643                     l3337:	
  2108                           ;shoe 2.c: 300: delay(1000);
  2109  0643  30E8               	movlw	low(03E8h)
  2110  0644  00F0               	movwf	(?_delay)
  2111  0645  3003               	movlw	high(03E8h)
  2112  0646  00F1               	movwf	((?_delay))+1
  2113  0647  120A  118A  21EC   	fcall	_delay
              120A  118A         
  2114                           	line	301
  2115                           	
  2116  064C                     l3339:	
  2117                           ;shoe 2.c: 301: RC1=0;
  2118  064C  1283               	bcf	status, 5	;RP0=0, select bank0
  2119  064D  1303               	bcf	status, 6	;RP1=0, select bank0
  2120  064E  1087               	bcf	(57/8),(57)&7
  2121                           	line	302
  2122                           	
  2123  064F                     l3341:	
  2124                           ;shoe 2.c: 302: RC2==1;
  2125                           	line	303
  2126                           ;shoe 2.c: 303: delay(18000);
  2127  064F  3050               	movlw	low(04650h)
  2128  0650  00F0               	movwf	(?_delay)
  2129  0651  3046               	movlw	high(04650h)
  2130  0652  00F1               	movwf	((?_delay))+1
  2131  0653  120A  118A  21EC   	fcall	_delay
              120A  118A         
  2132                           	line	304
  2133                           	
  2134  0658                     l3343:	
  2135                           ;shoe 2.c: 304: RC2==0;
  2136                           	line	305
  2137                           ;shoe 2.c: 305: }
  2138  0658  2E78               	goto	l779
  2139                           	line	306
  2140                           	
  2141  0659                     l778:	
  2142                           	line	308
  2143                           ;shoe 2.c: 306: else
  2144                           ;shoe 2.c: 307: {
  2145                           ;shoe 2.c: 308: RC6=1;
  2146  0659  1707               	bsf	(62/8),(62)&7
  2147                           	line	309
  2148                           ;shoe 2.c: 309: RC7=0;
  2149  065A  1387               	bcf	(63/8),(63)&7
  2150                           	line	310
  2151                           ;shoe 2.c: 310: while(RB4==0);
  2152  065B  2E5C               	goto	l780
  2153                           	
  2154  065C                     l781:	
  2155                           	
  2156  065C                     l780:	
  2157  065C  1E06               	btfss	(52/8),(52)&7
  2158  065D  2E5F               	goto	u2941
  2159  065E  2E60               	goto	u2940
  2160  065F                     u2941:
  2161  065F  2E5C               	goto	l780
  2162  0660                     u2940:
  2163                           	
  2164  0660                     l782:	
  2165                           	line	311
  2166                           ;shoe 2.c: 311: RC6=0;
  2167  0660  1307               	bcf	(62/8),(62)&7
  2168                           	line	312
  2169                           ;shoe 2.c: 312: RC7=0;
  2170  0661  1387               	bcf	(63/8),(63)&7
  2171                           	line	314
  2172                           ;shoe 2.c: 314: RC1=1;
  2173  0662  1487               	bsf	(57/8),(57)&7
  2174                           	line	315
  2175                           	
  2176  0663                     l3345:	
  2177                           ;shoe 2.c: 315: delay(1000);
  2178  0663  30E8               	movlw	low(03E8h)
  2179  0664  00F0               	movwf	(?_delay)
  2180  0665  3003               	movlw	high(03E8h)
  2181  0666  00F1               	movwf	((?_delay))+1
  2182  0667  120A  118A  21EC   	fcall	_delay
              120A  118A         
  2183                           	line	316
  2184                           	
  2185  066C                     l3347:	
  2186                           ;shoe 2.c: 316: RC1=0;
  2187  066C  1283               	bcf	status, 5	;RP0=0, select bank0
  2188  066D  1303               	bcf	status, 6	;RP1=0, select bank0
  2189  066E  1087               	bcf	(57/8),(57)&7
  2190                           	line	317
  2191                           	
  2192  066F                     l3349:	
  2193                           ;shoe 2.c: 317: RC2==1;
  2194                           	line	318
  2195                           ;shoe 2.c: 318: delay(18000);
  2196  066F  3050               	movlw	low(04650h)
  2197  0670  00F0               	movwf	(?_delay)
  2198  0671  3046               	movlw	high(04650h)
  2199  0672  00F1               	movwf	((?_delay))+1
  2200  0673  120A  118A  21EC   	fcall	_delay
              120A  118A         
  2201                           	line	319
  2202                           	
  2203  0678                     l3351:	
  2204                           ;shoe 2.c: 319: RC2==0;
  2205                           	line	320
  2206                           	
  2207  0678                     l779:	
  2208                           	line	321
  2209                           ;shoe 2.c: 320: }
  2210                           ;shoe 2.c: 321: lcdcmd(0x80);
  2211  0678  3080               	movlw	low(080h)
  2212  0679  00F7               	movwf	(?_lcdcmd)
  2213  067A  3000               	movlw	high(080h)
  2214  067B  00F8               	movwf	((?_lcdcmd))+1
  2215  067C  120A  118A  222A   	fcall	_lcdcmd
              120A  118A         
  2216                           	line	322
  2217                           	
  2218  0681                     l3353:	
  2219                           ;shoe 2.c: 322: display("pls take shoe");
  2220  0681  3009               	movlw	low(STR_15|8000h)
  2221  0682  00FC               	movwf	(?_display)
  2222  0683  3089               	movlw	high(STR_15|8000h)
  2223  0684  00FD               	movwf	((?_display))+1
  2224  0685  120A  118A  21B3   	fcall	_display
              120A  118A         
  2225                           	line	323
  2226                           	
  2227  068A                     l3355:	
  2228                           ;shoe 2.c: 323: delay(3000);
  2229  068A  30B8               	movlw	low(0BB8h)
  2230  068B  00F0               	movwf	(?_delay)
  2231  068C  300B               	movlw	high(0BB8h)
  2232  068D  00F1               	movwf	((?_delay))+1
  2233  068E  120A  118A  21EC   	fcall	_delay
              120A  118A         
  2234  0693  2B7F               	goto	l3167
  2235                           	line	324
  2236                           	
  2237  0694                     l777:	
  2238                           	line	325
  2239                           ;shoe 2.c: 324: }
  2240                           ;shoe 2.c: 325: }
  2241  0694  2B7F               	goto	l3167
  2242                           	line	330
  2243                           	
  2244  0695                     l775:	
  2245                           ;shoe 2.c: 330: else if(RA2==0)
  2246  0695  1905               	btfsc	(42/8),(42)&7
  2247  0696  2E98               	goto	u2951
  2248  0697  2E99               	goto	u2950
  2249  0698                     u2951:
  2250  0698  2F44               	goto	l784
  2251  0699                     u2950:
  2252                           	line	332
  2253                           	
  2254  0699                     l3357:	
  2255                           ;shoe 2.c: 331: {
  2256                           ;shoe 2.c: 332: if(RB7==0)
  2257  0699  1B86               	btfsc	(55/8),(55)&7
  2258  069A  2E9C               	goto	u2961
  2259  069B  2E9D               	goto	u2960
  2260  069C                     u2961:
  2261  069C  2EB9               	goto	l3365
  2262  069D                     u2960:
  2263                           	line	334
  2264                           	
  2265  069D                     l3359:	
  2266                           ;shoe 2.c: 333: {
  2267                           ;shoe 2.c: 334: lcdcmd(0x01);
  2268  069D  3001               	movlw	low(01h)
  2269  069E  00F7               	movwf	(?_lcdcmd)
  2270  069F  3000               	movlw	high(01h)
  2271  06A0  00F8               	movwf	((?_lcdcmd))+1
  2272  06A1  120A  118A  222A   	fcall	_lcdcmd
              120A  118A         
  2273                           	line	335
  2274                           	
  2275  06A6                     l3361:	
  2276                           ;shoe 2.c: 335: display("rack 3 is emty");
  2277  06A6  30EB               	movlw	low(STR_16|8000h)
  2278  06A7  00FC               	movwf	(?_display)
  2279  06A8  3088               	movlw	high(STR_16|8000h)
  2280  06A9  00FD               	movwf	((?_display))+1
  2281  06AA  120A  118A  21B3   	fcall	_display
              120A  118A         
  2282                           	line	336
  2283                           	
  2284  06AF                     l3363:	
  2285                           ;shoe 2.c: 336: delay(3000);
  2286  06AF  30B8               	movlw	low(0BB8h)
  2287  06B0  00F0               	movwf	(?_delay)
  2288  06B1  300B               	movlw	high(0BB8h)
  2289  06B2  00F1               	movwf	((?_delay))+1
  2290  06B3  120A  118A  21EC   	fcall	_delay
              120A  118A         
  2291                           	line	337
  2292                           ;shoe 2.c: 337: }
  2293  06B8  2B7F               	goto	l3167
  2294                           	line	338
  2295                           	
  2296  06B9                     l785:	
  2297                           	line	340
  2298                           	
  2299  06B9                     l3365:	
  2300                           ;shoe 2.c: 338: else
  2301                           ;shoe 2.c: 339: {
  2302                           ;shoe 2.c: 340: lcdcmd(0x01);
  2303  06B9  3001               	movlw	low(01h)
  2304  06BA  00F7               	movwf	(?_lcdcmd)
  2305  06BB  3000               	movlw	high(01h)
  2306  06BC  00F8               	movwf	((?_lcdcmd))+1
  2307  06BD  120A  118A  222A   	fcall	_lcdcmd
              120A  118A         
  2308                           	line	341
  2309                           	
  2310  06C2                     l3367:	
  2311                           ;shoe 2.c: 341: display("getting rack 3");
  2312  06C2  30A0               	movlw	low(STR_17|8000h)
  2313  06C3  00FC               	movwf	(?_display)
  2314  06C4  3088               	movlw	high(STR_17|8000h)
  2315  06C5  00FD               	movwf	((?_display))+1
  2316  06C6  120A  118A  21B3   	fcall	_display
              120A  118A         
  2317                           	line	342
  2318                           	
  2319  06CB                     l3369:	
  2320                           ;shoe 2.c: 342: RD0=1;
  2321  06CB  1283               	bcf	status, 5	;RP0=0, select bank0
  2322  06CC  1303               	bcf	status, 6	;RP1=0, select bank0
  2323  06CD  1408               	bsf	(64/8),(64)&7
  2324                           	line	343
  2325                           	
  2326  06CE                     l3371:	
  2327                           ;shoe 2.c: 343: RD1=0;
  2328  06CE  1088               	bcf	(65/8),(65)&7
  2329                           	line	344
  2330                           	
  2331  06CF                     l3373:	
  2332                           ;shoe 2.c: 344: delay(15000);
  2333  06CF  3098               	movlw	low(03A98h)
  2334  06D0  00F0               	movwf	(?_delay)
  2335  06D1  303A               	movlw	high(03A98h)
  2336  06D2  00F1               	movwf	((?_delay))+1
  2337  06D3  120A  118A  21EC   	fcall	_delay
              120A  118A         
  2338                           	line	345
  2339                           	
  2340  06D8                     l3375:	
  2341                           ;shoe 2.c: 345: RD0=0;
  2342  06D8  1283               	bcf	status, 5	;RP0=0, select bank0
  2343  06D9  1303               	bcf	status, 6	;RP1=0, select bank0
  2344  06DA  1008               	bcf	(64/8),(64)&7
  2345                           	line	346
  2346                           	
  2347  06DB                     l3377:	
  2348                           ;shoe 2.c: 346: RD1=0;
  2349  06DB  1088               	bcf	(65/8),(65)&7
  2350                           	line	347
  2351                           	
  2352  06DC                     l3379:	
  2353                           ;shoe 2.c: 347: if(RB3==1)
  2354  06DC  1D86               	btfss	(51/8),(51)&7
  2355  06DD  2EDF               	goto	u2971
  2356  06DE  2EE0               	goto	u2970
  2357  06DF                     u2971:
  2358  06DF  2EF7               	goto	l787
  2359  06E0                     u2970:
  2360                           	line	349
  2361                           	
  2362  06E0                     l3381:	
  2363                           ;shoe 2.c: 348: {
  2364                           ;shoe 2.c: 349: RC1=1;
  2365  06E0  1487               	bsf	(57/8),(57)&7
  2366                           	line	350
  2367                           	
  2368  06E1                     l3383:	
  2369                           ;shoe 2.c: 350: delay(1000);
  2370  06E1  30E8               	movlw	low(03E8h)
  2371  06E2  00F0               	movwf	(?_delay)
  2372  06E3  3003               	movlw	high(03E8h)
  2373  06E4  00F1               	movwf	((?_delay))+1
  2374  06E5  120A  118A  21EC   	fcall	_delay
              120A  118A         
  2375                           	line	351
  2376                           	
  2377  06EA                     l3385:	
  2378                           ;shoe 2.c: 351: RC1=0;
  2379  06EA  1283               	bcf	status, 5	;RP0=0, select bank0
  2380  06EB  1303               	bcf	status, 6	;RP1=0, select bank0
  2381  06EC  1087               	bcf	(57/8),(57)&7
  2382                           	line	352
  2383                           	
  2384  06ED                     l3387:	
  2385                           ;shoe 2.c: 352: RC2==1;
  2386                           	line	353
  2387                           ;shoe 2.c: 353: delay(18000);
  2388  06ED  3050               	movlw	low(04650h)
  2389  06EE  00F0               	movwf	(?_delay)
  2390  06EF  3046               	movlw	high(04650h)
  2391  06F0  00F1               	movwf	((?_delay))+1
  2392  06F1  120A  118A  21EC   	fcall	_delay
              120A  118A         
  2393                           	line	354
  2394                           	
  2395  06F6                     l3389:	
  2396                           ;shoe 2.c: 354: RC2==0;
  2397                           	line	355
  2398                           ;shoe 2.c: 355: }
  2399  06F6  2F27               	goto	l788
  2400                           	line	356
  2401                           	
  2402  06F7                     l787:	
  2403                           	line	358
  2404                           ;shoe 2.c: 356: else
  2405                           ;shoe 2.c: 357: {
  2406                           ;shoe 2.c: 358: RC6=0;
  2407  06F7  1307               	bcf	(62/8),(62)&7
  2408                           	line	359
  2409                           ;shoe 2.c: 359: RC7=1;
  2410  06F8  1787               	bsf	(63/8),(63)&7
  2411                           	line	360
  2412                           ;shoe 2.c: 360: while(RB3==0);
  2413  06F9  2EFA               	goto	l789
  2414                           	
  2415  06FA                     l790:	
  2416                           	
  2417  06FA                     l789:	
  2418  06FA  1D86               	btfss	(51/8),(51)&7
  2419  06FB  2EFD               	goto	u2981
  2420  06FC  2EFE               	goto	u2980
  2421  06FD                     u2981:
  2422  06FD  2EFA               	goto	l789
  2423  06FE                     u2980:
  2424                           	
  2425  06FE                     l791:	
  2426                           	line	361
  2427                           ;shoe 2.c: 361: RC6=0;
  2428  06FE  1307               	bcf	(62/8),(62)&7
  2429                           	line	362
  2430                           ;shoe 2.c: 362: RC7=0;
  2431  06FF  1387               	bcf	(63/8),(63)&7
  2432                           	line	364
  2433                           ;shoe 2.c: 364: RC1=1;
  2434  0700  1487               	bsf	(57/8),(57)&7
  2435                           	line	365
  2436                           	
  2437  0701                     l3391:	
  2438                           ;shoe 2.c: 365: delay(1000);
  2439  0701  30E8               	movlw	low(03E8h)
  2440  0702  00F0               	movwf	(?_delay)
  2441  0703  3003               	movlw	high(03E8h)
  2442  0704  00F1               	movwf	((?_delay))+1
  2443  0705  120A  118A  21EC   	fcall	_delay
              120A  118A         
  2444                           	line	366
  2445                           	
  2446  070A                     l3393:	
  2447                           ;shoe 2.c: 366: RC1=0;
  2448  070A  1283               	bcf	status, 5	;RP0=0, select bank0
  2449  070B  1303               	bcf	status, 6	;RP1=0, select bank0
  2450  070C  1087               	bcf	(57/8),(57)&7
  2451                           	line	367
  2452                           	
  2453  070D                     l3395:	
  2454                           ;shoe 2.c: 367: RC2==1;
  2455                           	line	368
  2456                           ;shoe 2.c: 368: delay(18000);
  2457  070D  3050               	movlw	low(04650h)
  2458  070E  00F0               	movwf	(?_delay)
  2459  070F  3046               	movlw	high(04650h)
  2460  0710  00F1               	movwf	((?_delay))+1
  2461  0711  120A  118A  21EC   	fcall	_delay
              120A  118A         
  2462                           	line	369
  2463                           	
  2464  0716                     l3397:	
  2465                           ;shoe 2.c: 369: RC2==0;
  2466                           	line	371
  2467                           	
  2468  0716                     l3399:	
  2469                           ;shoe 2.c: 371: RD0=0;
  2470  0716  1283               	bcf	status, 5	;RP0=0, select bank0
  2471  0717  1303               	bcf	status, 6	;RP1=0, select bank0
  2472  0718  1008               	bcf	(64/8),(64)&7
  2473                           	line	372
  2474                           	
  2475  0719                     l3401:	
  2476                           ;shoe 2.c: 372: RD1=1;
  2477  0719  1488               	bsf	(65/8),(65)&7
  2478                           	line	373
  2479                           ;shoe 2.c: 373: delay(15000);
  2480  071A  3098               	movlw	low(03A98h)
  2481  071B  00F0               	movwf	(?_delay)
  2482  071C  303A               	movlw	high(03A98h)
  2483  071D  00F1               	movwf	((?_delay))+1
  2484  071E  120A  118A  21EC   	fcall	_delay
              120A  118A         
  2485                           	line	374
  2486                           	
  2487  0723                     l3403:	
  2488                           ;shoe 2.c: 374: RD0=0;
  2489  0723  1283               	bcf	status, 5	;RP0=0, select bank0
  2490  0724  1303               	bcf	status, 6	;RP1=0, select bank0
  2491  0725  1008               	bcf	(64/8),(64)&7
  2492                           	line	375
  2493                           	
  2494  0726                     l3405:	
  2495                           ;shoe 2.c: 375: RD1=0;
  2496  0726  1088               	bcf	(65/8),(65)&7
  2497                           	line	376
  2498                           	
  2499  0727                     l788:	
  2500                           	line	379
  2501                           ;shoe 2.c: 376: }
  2502                           ;shoe 2.c: 379: lcdcmd(0x80);
  2503  0727  3080               	movlw	low(080h)
  2504  0728  00F7               	movwf	(?_lcdcmd)
  2505  0729  3000               	movlw	high(080h)
  2506  072A  00F8               	movwf	((?_lcdcmd))+1
  2507  072B  120A  118A  222A   	fcall	_lcdcmd
              120A  118A         
  2508                           	line	380
  2509                           	
  2510  0730                     l3407:	
  2511                           ;shoe 2.c: 380: display("pls take shoe");
  2512  0730  3009               	movlw	low(STR_18|8000h)
  2513  0731  00FC               	movwf	(?_display)
  2514  0732  3089               	movlw	high(STR_18|8000h)
  2515  0733  00FD               	movwf	((?_display))+1
  2516  0734  120A  118A  21B3   	fcall	_display
              120A  118A         
  2517                           	line	381
  2518                           	
  2519  0739                     l3409:	
  2520                           ;shoe 2.c: 381: delay(3000);
  2521  0739  30B8               	movlw	low(0BB8h)
  2522  073A  00F0               	movwf	(?_delay)
  2523  073B  300B               	movlw	high(0BB8h)
  2524  073C  00F1               	movwf	((?_delay))+1
  2525  073D  120A  118A  21EC   	fcall	_delay
              120A  118A         
  2526  0742  2B7F               	goto	l3167
  2527                           	line	382
  2528                           	
  2529  0743                     l786:	
  2530                           	line	383
  2531                           ;shoe 2.c: 382: }
  2532                           ;shoe 2.c: 383: }
  2533  0743  2B7F               	goto	l3167
  2534                           	line	384
  2535                           	
  2536  0744                     l784:	
  2537                           ;shoe 2.c: 384: else if(RA3==0)
  2538  0744  1985               	btfsc	(43/8),(43)&7
  2539  0745  2F47               	goto	u2991
  2540  0746  2F48               	goto	u2990
  2541  0747                     u2991:
  2542  0747  2FF3               	goto	l3465
  2543  0748                     u2990:
  2544                           	line	386
  2545                           	
  2546  0748                     l3411:	
  2547                           ;shoe 2.c: 385: {
  2548                           ;shoe 2.c: 386: if(RE0==0)
  2549  0748  1809               	btfsc	(72/8),(72)&7
  2550  0749  2F4B               	goto	u3001
  2551  074A  2F4C               	goto	u3000
  2552  074B                     u3001:
  2553  074B  2F68               	goto	l3419
  2554  074C                     u3000:
  2555                           	line	388
  2556                           	
  2557  074C                     l3413:	
  2558                           ;shoe 2.c: 387: {
  2559                           ;shoe 2.c: 388: lcdcmd(0x01);
  2560  074C  3001               	movlw	low(01h)
  2561  074D  00F7               	movwf	(?_lcdcmd)
  2562  074E  3000               	movlw	high(01h)
  2563  074F  00F8               	movwf	((?_lcdcmd))+1
  2564  0750  120A  118A  222A   	fcall	_lcdcmd
              120A  118A         
  2565                           	line	389
  2566                           	
  2567  0755                     l3415:	
  2568                           ;shoe 2.c: 389: display("rack 4 is emty");
  2569  0755  30FA               	movlw	low(STR_19|8000h)
  2570  0756  00FC               	movwf	(?_display)
  2571  0757  3088               	movlw	high(STR_19|8000h)
  2572  0758  00FD               	movwf	((?_display))+1
  2573  0759  120A  118A  21B3   	fcall	_display
              120A  118A         
  2574                           	line	390
  2575                           	
  2576  075E                     l3417:	
  2577                           ;shoe 2.c: 390: delay(3000);
  2578  075E  30B8               	movlw	low(0BB8h)
  2579  075F  00F0               	movwf	(?_delay)
  2580  0760  300B               	movlw	high(0BB8h)
  2581  0761  00F1               	movwf	((?_delay))+1
  2582  0762  120A  118A  21EC   	fcall	_delay
              120A  118A         
  2583                           	line	391
  2584                           ;shoe 2.c: 391: }
  2585  0767  2B7F               	goto	l3167
  2586                           	line	392
  2587                           	
  2588  0768                     l794:	
  2589                           	line	395
  2590                           	
  2591  0768                     l3419:	
  2592                           ;shoe 2.c: 392: else
  2593                           ;shoe 2.c: 393: {
  2594                           ;shoe 2.c: 395: lcdcmd(0x01);
  2595  0768  3001               	movlw	low(01h)
  2596  0769  00F7               	movwf	(?_lcdcmd)
  2597  076A  3000               	movlw	high(01h)
  2598  076B  00F8               	movwf	((?_lcdcmd))+1
  2599  076C  120A  118A  222A   	fcall	_lcdcmd
              120A  118A         
  2600                           	line	396
  2601                           	
  2602  0771                     l3421:	
  2603                           ;shoe 2.c: 396: display("getting rack 4");
  2604  0771  30AF               	movlw	low(STR_20|8000h)
  2605  0772  00FC               	movwf	(?_display)
  2606  0773  3088               	movlw	high(STR_20|8000h)
  2607  0774  00FD               	movwf	((?_display))+1
  2608  0775  120A  118A  21B3   	fcall	_display
              120A  118A         
  2609                           	line	397
  2610                           	
  2611  077A                     l3423:	
  2612                           ;shoe 2.c: 397: RD0=1;
  2613  077A  1283               	bcf	status, 5	;RP0=0, select bank0
  2614  077B  1303               	bcf	status, 6	;RP1=0, select bank0
  2615  077C  1408               	bsf	(64/8),(64)&7
  2616                           	line	398
  2617                           	
  2618  077D                     l3425:	
  2619                           ;shoe 2.c: 398: RD1=0;
  2620  077D  1088               	bcf	(65/8),(65)&7
  2621                           	line	399
  2622                           	
  2623  077E                     l3427:	
  2624                           ;shoe 2.c: 399: delay(15000);
  2625  077E  3098               	movlw	low(03A98h)
  2626  077F  00F0               	movwf	(?_delay)
  2627  0780  303A               	movlw	high(03A98h)
  2628  0781  00F1               	movwf	((?_delay))+1
  2629  0782  120A  118A  21EC   	fcall	_delay
              120A  118A         
  2630                           	line	400
  2631                           	
  2632  0787                     l3429:	
  2633                           ;shoe 2.c: 400: RD0=0;
  2634  0787  1283               	bcf	status, 5	;RP0=0, select bank0
  2635  0788  1303               	bcf	status, 6	;RP1=0, select bank0
  2636  0789  1008               	bcf	(64/8),(64)&7
  2637                           	line	401
  2638                           	
  2639  078A                     l3431:	
  2640                           ;shoe 2.c: 401: RD1=0;
  2641  078A  1088               	bcf	(65/8),(65)&7
  2642                           	line	402
  2643                           	
  2644  078B                     l3433:	
  2645                           ;shoe 2.c: 402: if(RB4==1)
  2646  078B  1E06               	btfss	(52/8),(52)&7
  2647  078C  2F8E               	goto	u3011
  2648  078D  2F8F               	goto	u3010
  2649  078E                     u3011:
  2650  078E  2FA6               	goto	l796
  2651  078F                     u3010:
  2652                           	line	404
  2653                           	
  2654  078F                     l3435:	
  2655                           ;shoe 2.c: 403: {
  2656                           ;shoe 2.c: 404: RC1=1;
  2657  078F  1487               	bsf	(57/8),(57)&7
  2658                           	line	405
  2659                           	
  2660  0790                     l3437:	
  2661                           ;shoe 2.c: 405: delay(1000);
  2662  0790  30E8               	movlw	low(03E8h)
  2663  0791  00F0               	movwf	(?_delay)
  2664  0792  3003               	movlw	high(03E8h)
  2665  0793  00F1               	movwf	((?_delay))+1
  2666  0794  120A  118A  21EC   	fcall	_delay
              120A  118A         
  2667                           	line	406
  2668                           	
  2669  0799                     l3439:	
  2670                           ;shoe 2.c: 406: RC1=0;
  2671  0799  1283               	bcf	status, 5	;RP0=0, select bank0
  2672  079A  1303               	bcf	status, 6	;RP1=0, select bank0
  2673  079B  1087               	bcf	(57/8),(57)&7
  2674                           	line	407
  2675                           	
  2676  079C                     l3441:	
  2677                           ;shoe 2.c: 407: RC2==1;
  2678                           	line	408
  2679                           ;shoe 2.c: 408: delay(18000);
  2680  079C  3050               	movlw	low(04650h)
  2681  079D  00F0               	movwf	(?_delay)
  2682  079E  3046               	movlw	high(04650h)
  2683  079F  00F1               	movwf	((?_delay))+1
  2684  07A0  120A  118A  21EC   	fcall	_delay
              120A  118A         
  2685                           	line	409
  2686                           	
  2687  07A5                     l3443:	
  2688                           ;shoe 2.c: 409: RC2==0;
  2689                           	line	410
  2690                           ;shoe 2.c: 410: }
  2691  07A5  2FD6               	goto	l797
  2692                           	line	411
  2693                           	
  2694  07A6                     l796:	
  2695                           	line	413
  2696                           ;shoe 2.c: 411: else
  2697                           ;shoe 2.c: 412: {
  2698                           ;shoe 2.c: 413: RC6=0;
  2699  07A6  1307               	bcf	(62/8),(62)&7
  2700                           	line	414
  2701                           ;shoe 2.c: 414: RC7=1;
  2702  07A7  1787               	bsf	(63/8),(63)&7
  2703                           	line	415
  2704                           ;shoe 2.c: 415: while(RB4==0);
  2705  07A8  2FA9               	goto	l798
  2706                           	
  2707  07A9                     l799:	
  2708                           	
  2709  07A9                     l798:	
  2710  07A9  1E06               	btfss	(52/8),(52)&7
  2711  07AA  2FAC               	goto	u3021
  2712  07AB  2FAD               	goto	u3020
  2713  07AC                     u3021:
  2714  07AC  2FA9               	goto	l798
  2715  07AD                     u3020:
  2716                           	
  2717  07AD                     l800:	
  2718                           	line	416
  2719                           ;shoe 2.c: 416: RC6=0;
  2720  07AD  1307               	bcf	(62/8),(62)&7
  2721                           	line	417
  2722                           ;shoe 2.c: 417: RC7=0;
  2723  07AE  1387               	bcf	(63/8),(63)&7
  2724                           	line	419
  2725                           ;shoe 2.c: 419: RC1=1;
  2726  07AF  1487               	bsf	(57/8),(57)&7
  2727                           	line	420
  2728                           	
  2729  07B0                     l3445:	
  2730                           ;shoe 2.c: 420: delay(1000);
  2731  07B0  30E8               	movlw	low(03E8h)
  2732  07B1  00F0               	movwf	(?_delay)
  2733  07B2  3003               	movlw	high(03E8h)
  2734  07B3  00F1               	movwf	((?_delay))+1
  2735  07B4  120A  118A  21EC   	fcall	_delay
              120A  118A         
  2736                           	line	421
  2737                           	
  2738  07B9                     l3447:	
  2739                           ;shoe 2.c: 421: RC1=0;
  2740  07B9  1283               	bcf	status, 5	;RP0=0, select bank0
  2741  07BA  1303               	bcf	status, 6	;RP1=0, select bank0
  2742  07BB  1087               	bcf	(57/8),(57)&7
  2743                           	line	422
  2744                           	
  2745  07BC                     l3449:	
  2746                           ;shoe 2.c: 422: RC2==1;
  2747                           	line	423
  2748                           ;shoe 2.c: 423: delay(2000);
  2749  07BC  30D0               	movlw	low(07D0h)
  2750  07BD  00F0               	movwf	(?_delay)
  2751  07BE  3007               	movlw	high(07D0h)
  2752  07BF  00F1               	movwf	((?_delay))+1
  2753  07C0  120A  118A  21EC   	fcall	_delay
              120A  118A         
  2754                           	line	424
  2755                           	
  2756  07C5                     l3451:	
  2757                           ;shoe 2.c: 424: RC2==0;
  2758                           	line	426
  2759                           	
  2760  07C5                     l3453:	
  2761                           ;shoe 2.c: 426: RD0=0;
  2762  07C5  1283               	bcf	status, 5	;RP0=0, select bank0
  2763  07C6  1303               	bcf	status, 6	;RP1=0, select bank0
  2764  07C7  1008               	bcf	(64/8),(64)&7
  2765                           	line	427
  2766                           	
  2767  07C8                     l3455:	
  2768                           ;shoe 2.c: 427: RD1=1;
  2769  07C8  1488               	bsf	(65/8),(65)&7
  2770                           	line	428
  2771                           ;shoe 2.c: 428: delay(15000);
  2772  07C9  3098               	movlw	low(03A98h)
  2773  07CA  00F0               	movwf	(?_delay)
  2774  07CB  303A               	movlw	high(03A98h)
  2775  07CC  00F1               	movwf	((?_delay))+1
  2776  07CD  120A  118A  21EC   	fcall	_delay
              120A  118A         
  2777                           	line	429
  2778                           	
  2779  07D2                     l3457:	
  2780                           ;shoe 2.c: 429: RD0=0;
  2781  07D2  1283               	bcf	status, 5	;RP0=0, select bank0
  2782  07D3  1303               	bcf	status, 6	;RP1=0, select bank0
  2783  07D4  1008               	bcf	(64/8),(64)&7
  2784                           	line	430
  2785                           	
  2786  07D5                     l3459:	
  2787                           ;shoe 2.c: 430: RD1=0;
  2788  07D5  1088               	bcf	(65/8),(65)&7
  2789                           	line	431
  2790                           	
  2791  07D6                     l797:	
  2792                           	line	433
  2793                           ;shoe 2.c: 431: }
  2794                           ;shoe 2.c: 433: lcdcmd(0x80);
  2795  07D6  3080               	movlw	low(080h)
  2796  07D7  00F7               	movwf	(?_lcdcmd)
  2797  07D8  3000               	movlw	high(080h)
  2798  07D9  00F8               	movwf	((?_lcdcmd))+1
  2799  07DA  120A  118A  222A   	fcall	_lcdcmd
              120A  118A         
  2800                           	line	434
  2801                           	
  2802  07DF                     l3461:	
  2803                           ;shoe 2.c: 434: display("pls take shoe");
  2804  07DF  3009               	movlw	low(STR_21|8000h)
  2805  07E0  00FC               	movwf	(?_display)
  2806  07E1  3089               	movlw	high(STR_21|8000h)
  2807  07E2  00FD               	movwf	((?_display))+1
  2808  07E3  120A  118A  21B3   	fcall	_display
              120A  118A         
  2809                           	line	435
  2810                           	
  2811  07E8                     l3463:	
  2812                           ;shoe 2.c: 435: delay(8000);
  2813  07E8  3040               	movlw	low(01F40h)
  2814  07E9  00F0               	movwf	(?_delay)
  2815  07EA  301F               	movlw	high(01F40h)
  2816  07EB  00F1               	movwf	((?_delay))+1
  2817  07EC  120A  118A  21EC   	fcall	_delay
              120A  118A         
  2818  07F1  2B7F               	goto	l3167
  2819                           	line	436
  2820                           	
  2821  07F2                     l795:	
  2822                           	line	437
  2823                           ;shoe 2.c: 436: }
  2824                           ;shoe 2.c: 437: }
  2825  07F2  2B7F               	goto	l3167
  2826                           	line	438
  2827                           	
  2828  07F3                     l793:	
  2829                           	line	440
  2830                           	
  2831  07F3                     l3465:	
  2832                           ;shoe 2.c: 438: else
  2833                           ;shoe 2.c: 439: {
  2834                           ;shoe 2.c: 440: PORTC=0x00;
  2835  07F3  1283               	bcf	status, 5	;RP0=0, select bank0
  2836  07F4  1303               	bcf	status, 6	;RP1=0, select bank0
  2837  07F5  0187               	clrf	(7)	;volatile
  2838  07F6  2B7F               	goto	l3167
  2839                           	line	441
  2840                           	
  2841  07F7                     l801:	
  2842  07F7  2B7F               	goto	l3167
  2843                           	
  2844  07F8                     l792:	
  2845  07F8  2B7F               	goto	l3167
  2846                           	
  2847  07F9                     l783:	
  2848  07F9  2B7F               	goto	l3167
  2849                           	
  2850  07FA                     l774:	
  2851  07FA  2B7F               	goto	l3167
  2852                           	
  2853  07FB                     l765:	
  2854  07FB  2B7F               	goto	l3167
  2855                           	line	447
  2856                           	
  2857  07FC                     l802:	
  2858                           	line	56
  2859  07FC  2B7F               	goto	l3167
  2860                           	
  2861  07FD                     l803:	
  2862                           	line	453
  2863                           	
  2864  07FD                     l804:	
  2865                           	global	start
  2866  07FD  120A  118A  2800   	ljmp	start
  2867                           	opt stack 0
  2868                           GLOBAL	__end_of_main
  2869  0800                     	__end_of_main:
  2870 ;; =============== function _main ends ============
  2871                           
  2872                           	signat	_main,88
  2873                           	global	_display
  2874                           psect	text189,local,class=CODE,delta=2
  2875                           global __ptext189
  2876  01B3                     __ptext189:
  2877                           
  2878 ;; *************** function _display *****************
  2879 ;; Defined at:
  2880 ;;		line 103 in file "F:\pic projects\shoe rack controller\lcd.h"
  2881 ;; Parameters:    Size  Location     Type
  2882 ;;  p               2   12[COMMON] PTR unsigned char 
  2883 ;;		 -> STR_21(14), STR_20(15), STR_19(15), STR_18(14), 
  2884 ;;		 -> STR_17(15), STR_16(15), STR_15(14), STR_14(15), 
  2885 ;;		 -> STR_13(15), STR_12(14), STR_11(15), STR_10(15), 
  2886 ;;		 -> STR_9(15), STR_8(16), STR_7(16), STR_6(16), 
  2887 ;;		 -> STR_5(16), STR_4(15), STR_3(17), STR_2(17), 
  2888 ;;		 -> STR_1(17), 
  2889 ;; Auto vars:     Size  Location     Type
  2890 ;;		None
  2891 ;; Return value:  Size  Location     Type
  2892 ;;		None               void
  2893 ;; Registers used:
  2894 ;;		wreg, fsr0l, fsr0h, status,2, status,0, btemp+1, pclath, cstack
  2895 ;; Tracked objects:
  2896 ;;		On entry : 0/0
  2897 ;;		On exit  : 0/0
  2898 ;;		Unchanged: 0/0
  2899 ;; Data sizes:     COMMON   BANK0   BANK1   BANK3   BANK2
  2900 ;;      Params:         2       0       0       0       0
  2901 ;;      Locals:         0       0       0       0       0
  2902 ;;      Temps:          0       2       0       0       0
  2903 ;;      Totals:         2       2       0       0       0
  2904 ;;Total ram usage:        4 bytes
  2905 ;; Hardware stack levels used:    1
  2906 ;; Hardware stack levels required when called:    2
  2907 ;; This function calls:
  2908 ;;		_lcddata
  2909 ;;		_delay
  2910 ;; This function is called by:
  2911 ;;		_main
  2912 ;; This function uses a non-reentrant model
  2913 ;;
  2914                           psect	text189
  2915                           	file	"F:\pic projects\shoe rack controller\lcd.h"
  2916                           	line	103
  2917                           	global	__size_of_display
  2918  0039                     	__size_of_display	equ	__end_of_display-_display
  2919                           	
  2920  01B3                     _display:	
  2921                           	opt	stack 5
  2922                           ; Regs used in _display: [wreg-fsr0h+status,2+status,0+btemp+1+pclath+cstack]
  2923                           	line	104
  2924                           	
  2925  01B3                     l3135:	
  2926                           ;lcd.h: 104: while (*p)
  2927  01B3  29DA               	goto	l3143
  2928                           	
  2929  01B4                     l706:	
  2930                           	line	106
  2931                           	
  2932  01B4                     l3137:	
  2933                           ;lcd.h: 105: {
  2934                           ;lcd.h: 106: lcddata(*p);
  2935  01B4  087D               	movf	(display@p+1),w
  2936  01B5  1283               	bcf	status, 5	;RP0=0, select bank0
  2937  01B6  1303               	bcf	status, 6	;RP1=0, select bank0
  2938  01B7  00FF               	movwf	btemp+1
  2939  01B8  087C               	movf	(display@p),w
  2940  01B9  0084               	movwf	fsr0
  2941  01BA  120A  118A  2003   	fcall	stringtab
              120A  118A         
  2942  01BF  00A0               	movwf	(??_display+0)+0
  2943  01C0  01A1               	clrf	(??_display+0)+0+1
  2944  01C1  0820               	movf	0+(??_display+0)+0,w
  2945  01C2  00F7               	movwf	(?_lcddata)
  2946  01C3  0821               	movf	1+(??_display+0)+0,w
  2947  01C4  00F8               	movwf	(?_lcddata+1)
  2948  01C5  120A  118A  227B   	fcall	_lcddata
              120A  118A         
  2949                           	line	107
  2950                           	
  2951  01CA                     l3139:	
  2952                           ;lcd.h: 107: delay(1);
  2953  01CA  3001               	movlw	low(01h)
  2954  01CB  00F0               	movwf	(?_delay)
  2955  01CC  3000               	movlw	high(01h)
  2956  01CD  00F1               	movwf	((?_delay))+1
  2957  01CE  120A  118A  21EC   	fcall	_delay
              120A  118A         
  2958                           	line	108
  2959                           	
  2960  01D3                     l3141:	
  2961                           ;lcd.h: 108: p++;
  2962  01D3  3001               	movlw	low(01h)
  2963  01D4  07FC               	addwf	(display@p),f
  2964  01D5  1803               	skipnc
  2965  01D6  0AFD               	incf	(display@p+1),f
  2966  01D7  3000               	movlw	high(01h)
  2967  01D8  07FD               	addwf	(display@p+1),f
  2968  01D9  29DA               	goto	l3143
  2969                           	line	109
  2970                           	
  2971  01DA                     l705:	
  2972                           	line	104
  2973                           	
  2974  01DA                     l3143:	
  2975  01DA  087D               	movf	(display@p+1),w
  2976  01DB  1283               	bcf	status, 5	;RP0=0, select bank0
  2977  01DC  1303               	bcf	status, 6	;RP1=0, select bank0
  2978  01DD  00FF               	movwf	btemp+1
  2979  01DE  087C               	movf	(display@p),w
  2980  01DF  0084               	movwf	fsr0
  2981  01E0  120A  118A  2003   	fcall	stringtab
              120A  118A         
  2982  01E5  3800               	iorlw	0
  2983  01E6  1D03               	skipz
  2984  01E7  29E9               	goto	u2651
  2985  01E8  29EA               	goto	u2650
  2986  01E9                     u2651:
  2987  01E9  29B4               	goto	l3137
  2988  01EA                     u2650:
  2989  01EA  29EB               	goto	l708
  2990                           	
  2991  01EB                     l707:	
  2992                           	line	111
  2993                           ;lcd.h: 109: }
  2994                           ;lcd.h: 110: return;
  2995                           	
  2996  01EB                     l708:	
  2997  01EB  0008               	return
  2998                           	opt stack 0
  2999                           GLOBAL	__end_of_display
  3000  01EC                     	__end_of_display:
  3001 ;; =============== function _display ends ============
  3002                           
  3003                           	signat	_display,4216
  3004                           	global	_lcd_init
  3005                           psect	text190,local,class=CODE,delta=2
  3006                           global __ptext190
  3007  02CC                     __ptext190:
  3008                           
  3009 ;; *************** function _lcd_init *****************
  3010 ;; Defined at:
  3011 ;;		line 75 in file "F:\pic projects\shoe rack controller\lcd.h"
  3012 ;; Parameters:    Size  Location     Type
  3013 ;;		None
  3014 ;; Auto vars:     Size  Location     Type
  3015 ;;		None
  3016 ;; Return value:  Size  Location     Type
  3017 ;;		None               void
  3018 ;; Registers used:
  3019 ;;		wreg, status,2, status,0, btemp+1, pclath, cstack
  3020 ;; Tracked objects:
  3021 ;;		On entry : 0/0
  3022 ;;		On exit  : 0/0
  3023 ;;		Unchanged: 0/0
  3024 ;; Data sizes:     COMMON   BANK0   BANK1   BANK3   BANK2
  3025 ;;      Params:         0       0       0       0       0
  3026 ;;      Locals:         0       0       0       0       0
  3027 ;;      Temps:          0       0       0       0       0
  3028 ;;      Totals:         0       0       0       0       0
  3029 ;;Total ram usage:        0 bytes
  3030 ;; Hardware stack levels used:    1
  3031 ;; Hardware stack levels required when called:    2
  3032 ;; This function calls:
  3033 ;;		_delay
  3034 ;;		_lcd_init_write
  3035 ;;		_lcdcmd
  3036 ;; This function is called by:
  3037 ;;		_main
  3038 ;; This function uses a non-reentrant model
  3039 ;;
  3040                           psect	text190
  3041                           	file	"F:\pic projects\shoe rack controller\lcd.h"
  3042                           	line	75
  3043                           	global	__size_of_lcd_init
  3044  0073                     	__size_of_lcd_init	equ	__end_of_lcd_init-_lcd_init
  3045                           	
  3046  02CC                     _lcd_init:	
  3047                           	opt	stack 5
  3048                           ; Regs used in _lcd_init: [wreg+status,2+status,0+btemp+1+pclath+cstack]
  3049                           	line	76
  3050                           	
  3051  02CC                     l2801:	
  3052                           ;lcd.h: 76: delay(10);
  3053  02CC  300A               	movlw	low(0Ah)
  3054  02CD  00F0               	movwf	(?_delay)
  3055  02CE  3000               	movlw	high(0Ah)
  3056  02CF  00F1               	movwf	((?_delay))+1
  3057  02D0  120A  118A  21EC   	fcall	_delay
              120A  118A         
  3058                           	line	77
  3059                           ;lcd.h: 77: lcd_init_write(0x28);
  3060  02D5  3028               	movlw	(028h)
  3061  02D6  120A  118A  219F   	fcall	_lcd_init_write
              120A  118A         
  3062                           	line	78
  3063                           ;lcd.h: 78: delay(10);
  3064  02DB  300A               	movlw	low(0Ah)
  3065  02DC  00F0               	movwf	(?_delay)
  3066  02DD  3000               	movlw	high(0Ah)
  3067  02DE  00F1               	movwf	((?_delay))+1
  3068  02DF  120A  118A  21EC   	fcall	_delay
              120A  118A         
  3069                           	line	85
  3070                           ;lcd.h: 85: lcdcmd(0x28);
  3071  02E4  3028               	movlw	low(028h)
  3072  02E5  00F7               	movwf	(?_lcdcmd)
  3073  02E6  3000               	movlw	high(028h)
  3074  02E7  00F8               	movwf	((?_lcdcmd))+1
  3075  02E8  120A  118A  222A   	fcall	_lcdcmd
              120A  118A         
  3076                           	line	86
  3077                           ;lcd.h: 86: delay(10);
  3078  02ED  300A               	movlw	low(0Ah)
  3079  02EE  00F0               	movwf	(?_delay)
  3080  02EF  3000               	movlw	high(0Ah)
  3081  02F0  00F1               	movwf	((?_delay))+1
  3082  02F1  120A  118A  21EC   	fcall	_delay
              120A  118A         
  3083                           	line	87
  3084                           ;lcd.h: 87: lcdcmd(4);
  3085  02F6  3004               	movlw	low(04h)
  3086  02F7  00F7               	movwf	(?_lcdcmd)
  3087  02F8  3000               	movlw	high(04h)
  3088  02F9  00F8               	movwf	((?_lcdcmd))+1
  3089  02FA  120A  118A  222A   	fcall	_lcdcmd
              120A  118A         
  3090                           	line	88
  3091                           ;lcd.h: 88: delay(10);
  3092  02FF  300A               	movlw	low(0Ah)
  3093  0300  00F0               	movwf	(?_delay)
  3094  0301  3000               	movlw	high(0Ah)
  3095  0302  00F1               	movwf	((?_delay))+1
  3096  0303  120A  118A  21EC   	fcall	_delay
              120A  118A         
  3097                           	line	89
  3098                           ;lcd.h: 89: lcdcmd(0x0c);
  3099  0308  300C               	movlw	low(0Ch)
  3100  0309  00F7               	movwf	(?_lcdcmd)
  3101  030A  3000               	movlw	high(0Ch)
  3102  030B  00F8               	movwf	((?_lcdcmd))+1
  3103  030C  120A  118A  222A   	fcall	_lcdcmd
              120A  118A         
  3104                           	line	90
  3105                           ;lcd.h: 90: delay(10);
  3106  0311  300A               	movlw	low(0Ah)
  3107  0312  00F0               	movwf	(?_delay)
  3108  0313  3000               	movlw	high(0Ah)
  3109  0314  00F1               	movwf	((?_delay))+1
  3110  0315  120A  118A  21EC   	fcall	_delay
              120A  118A         
  3111                           	line	91
  3112                           ;lcd.h: 91: lcdcmd(0x01);
  3113  031A  3001               	movlw	low(01h)
  3114  031B  00F7               	movwf	(?_lcdcmd)
  3115  031C  3000               	movlw	high(01h)
  3116  031D  00F8               	movwf	((?_lcdcmd))+1
  3117  031E  120A  118A  222A   	fcall	_lcdcmd
              120A  118A         
  3118                           	line	92
  3119                           ;lcd.h: 92: delay(10);
  3120  0323  300A               	movlw	low(0Ah)
  3121  0324  00F0               	movwf	(?_delay)
  3122  0325  3000               	movlw	high(0Ah)
  3123  0326  00F1               	movwf	((?_delay))+1
  3124  0327  120A  118A  21EC   	fcall	_delay
              120A  118A         
  3125                           	line	93
  3126                           ;lcd.h: 93: lcdcmd(1);
  3127  032C  3001               	movlw	low(01h)
  3128  032D  00F7               	movwf	(?_lcdcmd)
  3129  032E  3000               	movlw	high(01h)
  3130  032F  00F8               	movwf	((?_lcdcmd))+1
  3131  0330  120A  118A  222A   	fcall	_lcdcmd
              120A  118A         
  3132                           	line	94
  3133                           ;lcd.h: 94: delay(10);
  3134  0335  300A               	movlw	low(0Ah)
  3135  0336  00F0               	movwf	(?_delay)
  3136  0337  3000               	movlw	high(0Ah)
  3137  0338  00F1               	movwf	((?_delay))+1
  3138  0339  120A  118A  21EC   	fcall	_delay
              120A  118A         
  3139                           	line	95
  3140                           	
  3141  033E                     l702:	
  3142  033E  0008               	return
  3143                           	opt stack 0
  3144                           GLOBAL	__end_of_lcd_init
  3145  033F                     	__end_of_lcd_init:
  3146 ;; =============== function _lcd_init ends ============
  3147                           
  3148                           	signat	_lcd_init,88
  3149                           	global	_lcd_init_write
  3150                           psect	text191,local,class=CODE,delta=2
  3151                           global __ptext191
  3152  019F                     __ptext191:
  3153                           
  3154 ;; *************** function _lcd_init_write *****************
  3155 ;; Defined at:
  3156 ;;		line 65 in file "F:\pic projects\shoe rack controller\lcd.h"
  3157 ;; Parameters:    Size  Location     Type
  3158 ;;  a               1    wreg     unsigned char 
  3159 ;; Auto vars:     Size  Location     Type
  3160 ;;  a               1    7[COMMON] unsigned char 
  3161 ;; Return value:  Size  Location     Type
  3162 ;;		None               void
  3163 ;; Registers used:
  3164 ;;		wreg, status,2, status,0, btemp+1, pclath, cstack
  3165 ;; Tracked objects:
  3166 ;;		On entry : 0/0
  3167 ;;		On exit  : 0/0
  3168 ;;		Unchanged: 0/0
  3169 ;; Data sizes:     COMMON   BANK0   BANK1   BANK3   BANK2
  3170 ;;      Params:         0       0       0       0       0
  3171 ;;      Locals:         1       0       0       0       0
  3172 ;;      Temps:          0       0       0       0       0
  3173 ;;      Totals:         1       0       0       0       0
  3174 ;;Total ram usage:        1 bytes
  3175 ;; Hardware stack levels used:    1
  3176 ;; Hardware stack levels required when called:    1
  3177 ;; This function calls:
  3178 ;;		_delay
  3179 ;; This function is called by:
  3180 ;;		_lcd_init
  3181 ;; This function uses a non-reentrant model
  3182 ;;
  3183                           psect	text191
  3184                           	file	"F:\pic projects\shoe rack controller\lcd.h"
  3185                           	line	65
  3186                           	global	__size_of_lcd_init_write
  3187  0014                     	__size_of_lcd_init_write	equ	__end_of_lcd_init_write-_lcd_init_write
  3188                           	
  3189  019F                     _lcd_init_write:	
  3190                           	opt	stack 5
  3191                           ; Regs used in _lcd_init_write: [wreg+status,2+status,0+btemp+1+pclath+cstack]
  3192                           ;lcd_init_write@a stored from wreg
  3193  019F  00F7               	movwf	(lcd_init_write@a)
  3194                           	line	66
  3195                           	
  3196  01A0                     l2791:	
  3197                           ;lcd.h: 66: RD3=0;
  3198  01A0  1283               	bcf	status, 5	;RP0=0, select bank0
  3199  01A1  1303               	bcf	status, 6	;RP1=0, select bank0
  3200  01A2  1188               	bcf	(67/8),(67)&7
  3201                           	line	67
  3202                           	
  3203  01A3                     l2793:	
  3204                           ;lcd.h: 67: PORTD=a;
  3205  01A3  0877               	movf	(lcd_init_write@a),w
  3206  01A4  0088               	movwf	(8)	;volatile
  3207                           	line	68
  3208                           	
  3209  01A5                     l2795:	
  3210                           ;lcd.h: 68: RD2=1;
  3211  01A5  1508               	bsf	(66/8),(66)&7
  3212                           	line	69
  3213                           	
  3214  01A6                     l2797:	
  3215                           ;lcd.h: 69: delay(10);
  3216  01A6  300A               	movlw	low(0Ah)
  3217  01A7  00F0               	movwf	(?_delay)
  3218  01A8  3000               	movlw	high(0Ah)
  3219  01A9  00F1               	movwf	((?_delay))+1
  3220  01AA  120A  118A  21EC   	fcall	_delay
              120A  118A         
  3221                           	line	70
  3222                           	
  3223  01AF                     l2799:	
  3224                           ;lcd.h: 70: RD2=0;
  3225  01AF  1283               	bcf	status, 5	;RP0=0, select bank0
  3226  01B0  1303               	bcf	status, 6	;RP1=0, select bank0
  3227  01B1  1108               	bcf	(66/8),(66)&7
  3228                           	line	71
  3229                           	
  3230  01B2                     l699:	
  3231  01B2  0008               	return
  3232                           	opt stack 0
  3233                           GLOBAL	__end_of_lcd_init_write
  3234  01B3                     	__end_of_lcd_init_write:
  3235 ;; =============== function _lcd_init_write ends ============
  3236                           
  3237                           	signat	_lcd_init_write,4216
  3238                           	global	_lcddata
  3239                           psect	text192,local,class=CODE,delta=2
  3240                           global __ptext192
  3241  027B                     __ptext192:
  3242                           
  3243 ;; *************** function _lcddata *****************
  3244 ;; Defined at:
  3245 ;;		line 42 in file "F:\pic projects\shoe rack controller\lcd.h"
  3246 ;; Parameters:    Size  Location     Type
  3247 ;;  value           2    7[COMMON] unsigned int 
  3248 ;; Auto vars:     Size  Location     Type
  3249 ;;  temp            1   11[COMMON] unsigned char 
  3250 ;; Return value:  Size  Location     Type
  3251 ;;		None               void
  3252 ;; Registers used:
  3253 ;;		wreg, status,2, status,0, btemp+1, pclath, cstack
  3254 ;; Tracked objects:
  3255 ;;		On entry : 0/0
  3256 ;;		On exit  : 0/0
  3257 ;;		Unchanged: 0/0
  3258 ;; Data sizes:     COMMON   BANK0   BANK1   BANK3   BANK2
  3259 ;;      Params:         2       0       0       0       0
  3260 ;;      Locals:         1       0       0       0       0
  3261 ;;      Temps:          2       0       0       0       0
  3262 ;;      Totals:         5       0       0       0       0
  3263 ;;Total ram usage:        5 bytes
  3264 ;; Hardware stack levels used:    1
  3265 ;; Hardware stack levels required when called:    1
  3266 ;; This function calls:
  3267 ;;		_delay
  3268 ;; This function is called by:
  3269 ;;		_display
  3270 ;; This function uses a non-reentrant model
  3271 ;;
  3272                           psect	text192
  3273                           	file	"F:\pic projects\shoe rack controller\lcd.h"
  3274                           	line	42
  3275                           	global	__size_of_lcddata
  3276  0051                     	__size_of_lcddata	equ	__end_of_lcddata-_lcddata
  3277                           	
  3278  027B                     _lcddata:	
  3279                           	opt	stack 5
  3280                           ; Regs used in _lcddata: [wreg+status,2+status,0+btemp+1+pclath+cstack]
  3281                           	line	45
  3282                           	
  3283  027B                     l2757:	
  3284                           ;lcd.h: 43: unsigned char temp;
  3285                           ;lcd.h: 45: RD3=1;
  3286  027B  1283               	bcf	status, 5	;RP0=0, select bank0
  3287  027C  1303               	bcf	status, 6	;RP1=0, select bank0
  3288  027D  1588               	bsf	(67/8),(67)&7
  3289                           	line	46
  3290                           	
  3291  027E                     l2759:	
  3292                           ;lcd.h: 46: temp= value;
  3293  027E  0877               	movf	(lcddata@value),w
  3294  027F  00F9               	movwf	(??_lcddata+0)+0
  3295  0280  0879               	movf	(??_lcddata+0)+0,w
  3296  0281  00FB               	movwf	(lcddata@temp)
  3297                           	line	47
  3298                           	
  3299  0282                     l2761:	
  3300                           ;lcd.h: 47: temp&=0xf0;
  3301  0282  30F0               	movlw	(0F0h)
  3302  0283  00F9               	movwf	(??_lcddata+0)+0
  3303  0284  0879               	movf	(??_lcddata+0)+0,w
  3304  0285  05FB               	andwf	(lcddata@temp),f
  3305                           	line	48
  3306                           	
  3307  0286                     l2763:	
  3308                           ;lcd.h: 48: PORTD&=0x0f;
  3309  0286  300F               	movlw	(0Fh)
  3310  0287  00F9               	movwf	(??_lcddata+0)+0
  3311  0288  0879               	movf	(??_lcddata+0)+0,w
  3312  0289  0588               	andwf	(8),f	;volatile
  3313                           	line	49
  3314                           	
  3315  028A                     l2765:	
  3316                           ;lcd.h: 49: PORTD|=temp;
  3317  028A  087B               	movf	(lcddata@temp),w
  3318  028B  00F9               	movwf	(??_lcddata+0)+0
  3319  028C  0879               	movf	(??_lcddata+0)+0,w
  3320  028D  0488               	iorwf	(8),f	;volatile
  3321                           	line	50
  3322                           	
  3323  028E                     l2767:	
  3324                           ;lcd.h: 50: RD2=1;
  3325  028E  1508               	bsf	(66/8),(66)&7
  3326                           	line	51
  3327                           	
  3328  028F                     l2769:	
  3329                           ;lcd.h: 51: delay(3);
  3330  028F  3003               	movlw	low(03h)
  3331  0290  00F0               	movwf	(?_delay)
  3332  0291  3000               	movlw	high(03h)
  3333  0292  00F1               	movwf	((?_delay))+1
  3334  0293  120A  118A  21EC   	fcall	_delay
              120A  118A         
  3335                           	line	52
  3336                           	
  3337  0298                     l2771:	
  3338                           ;lcd.h: 52: RD2=0;
  3339  0298  1283               	bcf	status, 5	;RP0=0, select bank0
  3340  0299  1303               	bcf	status, 6	;RP1=0, select bank0
  3341  029A  1108               	bcf	(66/8),(66)&7
  3342                           	line	53
  3343                           	
  3344  029B                     l2773:	
  3345                           ;lcd.h: 53: temp=value<<4;
  3346  029B  0877               	movf	(lcddata@value),w
  3347  029C  00F9               	movwf	(??_lcddata+0)+0
  3348  029D  3003               	movlw	(04h)-1
  3349  029E                     u2265:
  3350  029E  1003               	clrc
  3351  029F  0DF9               	rlf	(??_lcddata+0)+0,f
  3352  02A0  3EFF               	addlw	-1
  3353  02A1  1D03               	skipz
  3354  02A2  2A9E               	goto	u2265
  3355  02A3  1003               	clrc
  3356  02A4  0D79               	rlf	(??_lcddata+0)+0,w
  3357  02A5  00FA               	movwf	(??_lcddata+1)+0
  3358  02A6  087A               	movf	(??_lcddata+1)+0,w
  3359  02A7  00FB               	movwf	(lcddata@temp)
  3360                           	line	54
  3361                           	
  3362  02A8                     l2775:	
  3363                           ;lcd.h: 54: temp&=0xf0;
  3364  02A8  30F0               	movlw	(0F0h)
  3365  02A9  00F9               	movwf	(??_lcddata+0)+0
  3366  02AA  0879               	movf	(??_lcddata+0)+0,w
  3367  02AB  05FB               	andwf	(lcddata@temp),f
  3368                           	line	55
  3369                           	
  3370  02AC                     l2777:	
  3371                           ;lcd.h: 55: PORTD&=0x0f;
  3372  02AC  300F               	movlw	(0Fh)
  3373  02AD  00F9               	movwf	(??_lcddata+0)+0
  3374  02AE  0879               	movf	(??_lcddata+0)+0,w
  3375  02AF  0588               	andwf	(8),f	;volatile
  3376                           	line	56
  3377                           	
  3378  02B0                     l2779:	
  3379                           ;lcd.h: 56: PORTD|=temp;
  3380  02B0  087B               	movf	(lcddata@temp),w
  3381  02B1  00F9               	movwf	(??_lcddata+0)+0
  3382  02B2  0879               	movf	(??_lcddata+0)+0,w
  3383  02B3  0488               	iorwf	(8),f	;volatile
  3384                           	line	57
  3385                           	
  3386  02B4                     l2781:	
  3387                           ;lcd.h: 57: RD2=1;
  3388  02B4  1508               	bsf	(66/8),(66)&7
  3389                           	line	58
  3390                           	
  3391  02B5                     l2783:	
  3392                           ;lcd.h: 58: delay(3);
  3393  02B5  3003               	movlw	low(03h)
  3394  02B6  00F0               	movwf	(?_delay)
  3395  02B7  3000               	movlw	high(03h)
  3396  02B8  00F1               	movwf	((?_delay))+1
  3397  02B9  120A  118A  21EC   	fcall	_delay
              120A  118A         
  3398                           	line	59
  3399                           	
  3400  02BE                     l2785:	
  3401                           ;lcd.h: 59: RD2=0;
  3402  02BE  1283               	bcf	status, 5	;RP0=0, select bank0
  3403  02BF  1303               	bcf	status, 6	;RP1=0, select bank0
  3404  02C0  1108               	bcf	(66/8),(66)&7
  3405                           	line	60
  3406                           	
  3407  02C1                     l2787:	
  3408                           ;lcd.h: 60: delay(3);
  3409  02C1  3003               	movlw	low(03h)
  3410  02C2  00F0               	movwf	(?_delay)
  3411  02C3  3000               	movlw	high(03h)
  3412  02C4  00F1               	movwf	((?_delay))+1
  3413  02C5  120A  118A  21EC   	fcall	_delay
              120A  118A         
  3414  02CA  2ACB               	goto	l696
  3415                           	line	61
  3416                           	
  3417  02CB                     l2789:	
  3418                           	line	62
  3419                           ;lcd.h: 61: return;
  3420                           	
  3421  02CB                     l696:	
  3422  02CB  0008               	return
  3423                           	opt stack 0
  3424                           GLOBAL	__end_of_lcddata
  3425  02CC                     	__end_of_lcddata:
  3426 ;; =============== function _lcddata ends ============
  3427                           
  3428                           	signat	_lcddata,4216
  3429                           	global	_lcdcmd
  3430                           psect	text193,local,class=CODE,delta=2
  3431                           global __ptext193
  3432  022A                     __ptext193:
  3433                           
  3434 ;; *************** function _lcdcmd *****************
  3435 ;; Defined at:
  3436 ;;		line 18 in file "F:\pic projects\shoe rack controller\lcd.h"
  3437 ;; Parameters:    Size  Location     Type
  3438 ;;  value           2    7[COMMON] unsigned int 
  3439 ;; Auto vars:     Size  Location     Type
  3440 ;;  temp            1   11[COMMON] unsigned char 
  3441 ;; Return value:  Size  Location     Type
  3442 ;;		None               void
  3443 ;; Registers used:
  3444 ;;		wreg, status,2, status,0, btemp+1, pclath, cstack
  3445 ;; Tracked objects:
  3446 ;;		On entry : 0/0
  3447 ;;		On exit  : 0/0
  3448 ;;		Unchanged: 0/0
  3449 ;; Data sizes:     COMMON   BANK0   BANK1   BANK3   BANK2
  3450 ;;      Params:         2       0       0       0       0
  3451 ;;      Locals:         1       0       0       0       0
  3452 ;;      Temps:          2       0       0       0       0
  3453 ;;      Totals:         5       0       0       0       0
  3454 ;;Total ram usage:        5 bytes
  3455 ;; Hardware stack levels used:    1
  3456 ;; Hardware stack levels required when called:    1
  3457 ;; This function calls:
  3458 ;;		_delay
  3459 ;; This function is called by:
  3460 ;;		_lcd_init
  3461 ;;		_main
  3462 ;; This function uses a non-reentrant model
  3463 ;;
  3464                           psect	text193
  3465                           	file	"F:\pic projects\shoe rack controller\lcd.h"
  3466                           	line	18
  3467                           	global	__size_of_lcdcmd
  3468  0051                     	__size_of_lcdcmd	equ	__end_of_lcdcmd-_lcdcmd
  3469                           	
  3470  022A                     _lcdcmd:	
  3471                           	opt	stack 6
  3472                           ; Regs used in _lcdcmd: [wreg+status,2+status,0+btemp+1+pclath+cstack]
  3473                           	line	21
  3474                           	
  3475  022A                     l2723:	
  3476                           ;lcd.h: 19: unsigned char temp;
  3477                           ;lcd.h: 21: RD3=0;
  3478  022A  1283               	bcf	status, 5	;RP0=0, select bank0
  3479  022B  1303               	bcf	status, 6	;RP1=0, select bank0
  3480  022C  1188               	bcf	(67/8),(67)&7
  3481                           	line	22
  3482                           	
  3483  022D                     l2725:	
  3484                           ;lcd.h: 22: temp= value;
  3485  022D  0877               	movf	(lcdcmd@value),w
  3486  022E  00F9               	movwf	(??_lcdcmd+0)+0
  3487  022F  0879               	movf	(??_lcdcmd+0)+0,w
  3488  0230  00FB               	movwf	(lcdcmd@temp)
  3489                           	line	23
  3490                           	
  3491  0231                     l2727:	
  3492                           ;lcd.h: 23: temp&=0xf0;
  3493  0231  30F0               	movlw	(0F0h)
  3494  0232  00F9               	movwf	(??_lcdcmd+0)+0
  3495  0233  0879               	movf	(??_lcdcmd+0)+0,w
  3496  0234  05FB               	andwf	(lcdcmd@temp),f
  3497                           	line	24
  3498                           	
  3499  0235                     l2729:	
  3500                           ;lcd.h: 24: PORTD&=0x0f;
  3501  0235  300F               	movlw	(0Fh)
  3502  0236  00F9               	movwf	(??_lcdcmd+0)+0
  3503  0237  0879               	movf	(??_lcdcmd+0)+0,w
  3504  0238  0588               	andwf	(8),f	;volatile
  3505                           	line	25
  3506                           	
  3507  0239                     l2731:	
  3508                           ;lcd.h: 25: PORTD|=temp;
  3509  0239  087B               	movf	(lcdcmd@temp),w
  3510  023A  00F9               	movwf	(??_lcdcmd+0)+0
  3511  023B  0879               	movf	(??_lcdcmd+0)+0,w
  3512  023C  0488               	iorwf	(8),f	;volatile
  3513                           	line	26
  3514                           	
  3515  023D                     l2733:	
  3516                           ;lcd.h: 26: RD2=1;
  3517  023D  1508               	bsf	(66/8),(66)&7
  3518                           	line	27
  3519                           	
  3520  023E                     l2735:	
  3521                           ;lcd.h: 27: delay(3);
  3522  023E  3003               	movlw	low(03h)
  3523  023F  00F0               	movwf	(?_delay)
  3524  0240  3000               	movlw	high(03h)
  3525  0241  00F1               	movwf	((?_delay))+1
  3526  0242  120A  118A  21EC   	fcall	_delay
              120A  118A         
  3527                           	line	28
  3528                           	
  3529  0247                     l2737:	
  3530                           ;lcd.h: 28: RD2=0;
  3531  0247  1283               	bcf	status, 5	;RP0=0, select bank0
  3532  0248  1303               	bcf	status, 6	;RP1=0, select bank0
  3533  0249  1108               	bcf	(66/8),(66)&7
  3534                           	line	29
  3535                           	
  3536  024A                     l2739:	
  3537                           ;lcd.h: 29: temp=value<<4;
  3538  024A  0877               	movf	(lcdcmd@value),w
  3539  024B  00F9               	movwf	(??_lcdcmd+0)+0
  3540  024C  3003               	movlw	(04h)-1
  3541  024D                     u2255:
  3542  024D  1003               	clrc
  3543  024E  0DF9               	rlf	(??_lcdcmd+0)+0,f
  3544  024F  3EFF               	addlw	-1
  3545  0250  1D03               	skipz
  3546  0251  2A4D               	goto	u2255
  3547  0252  1003               	clrc
  3548  0253  0D79               	rlf	(??_lcdcmd+0)+0,w
  3549  0254  00FA               	movwf	(??_lcdcmd+1)+0
  3550  0255  087A               	movf	(??_lcdcmd+1)+0,w
  3551  0256  00FB               	movwf	(lcdcmd@temp)
  3552                           	line	30
  3553                           	
  3554  0257                     l2741:	
  3555                           ;lcd.h: 30: temp&=0xf0;
  3556  0257  30F0               	movlw	(0F0h)
  3557  0258  00F9               	movwf	(??_lcdcmd+0)+0
  3558  0259  0879               	movf	(??_lcdcmd+0)+0,w
  3559  025A  05FB               	andwf	(lcdcmd@temp),f
  3560                           	line	31
  3561                           	
  3562  025B                     l2743:	
  3563                           ;lcd.h: 31: PORTD&=0x0f;
  3564  025B  300F               	movlw	(0Fh)
  3565  025C  00F9               	movwf	(??_lcdcmd+0)+0
  3566  025D  0879               	movf	(??_lcdcmd+0)+0,w
  3567  025E  0588               	andwf	(8),f	;volatile
  3568                           	line	32
  3569                           	
  3570  025F                     l2745:	
  3571                           ;lcd.h: 32: PORTD|=temp;
  3572  025F  087B               	movf	(lcdcmd@temp),w
  3573  0260  00F9               	movwf	(??_lcdcmd+0)+0
  3574  0261  0879               	movf	(??_lcdcmd+0)+0,w
  3575  0262  0488               	iorwf	(8),f	;volatile
  3576                           	line	33
  3577                           	
  3578  0263                     l2747:	
  3579                           ;lcd.h: 33: RD2=1;
  3580  0263  1508               	bsf	(66/8),(66)&7
  3581                           	line	34
  3582                           	
  3583  0264                     l2749:	
  3584                           ;lcd.h: 34: delay(3);
  3585  0264  3003               	movlw	low(03h)
  3586  0265  00F0               	movwf	(?_delay)
  3587  0266  3000               	movlw	high(03h)
  3588  0267  00F1               	movwf	((?_delay))+1
  3589  0268  120A  118A  21EC   	fcall	_delay
              120A  118A         
  3590                           	line	35
  3591                           	
  3592  026D                     l2751:	
  3593                           ;lcd.h: 35: RD2=0;
  3594  026D  1283               	bcf	status, 5	;RP0=0, select bank0
  3595  026E  1303               	bcf	status, 6	;RP1=0, select bank0
  3596  026F  1108               	bcf	(66/8),(66)&7
  3597                           	line	36
  3598                           	
  3599  0270                     l2753:	
  3600                           ;lcd.h: 36: delay(3);
  3601  0270  3003               	movlw	low(03h)
  3602  0271  00F0               	movwf	(?_delay)
  3603  0272  3000               	movlw	high(03h)
  3604  0273  00F1               	movwf	((?_delay))+1
  3605  0274  120A  118A  21EC   	fcall	_delay
              120A  118A         
  3606  0279  2A7A               	goto	l693
  3607                           	line	37
  3608                           	
  3609  027A                     l2755:	
  3610                           	line	38
  3611                           ;lcd.h: 37: return;
  3612                           	
  3613  027A                     l693:	
  3614  027A  0008               	return
  3615                           	opt stack 0
  3616                           GLOBAL	__end_of_lcdcmd
  3617  027B                     	__end_of_lcdcmd:
  3618 ;; =============== function _lcdcmd ends ============
  3619                           
  3620                           	signat	_lcdcmd,4216
  3621                           	global	_delay
  3622                           psect	text194,local,class=CODE,delta=2
  3623                           global __ptext194
  3624  01EC                     __ptext194:
  3625                           
  3626 ;; *************** function _delay *****************
  3627 ;; Defined at:
  3628 ;;		line 9 in file "F:\pic projects\shoe rack controller\lcd.h"
  3629 ;; Parameters:    Size  Location     Type
  3630 ;;  itime           2    0[COMMON] int 
  3631 ;; Auto vars:     Size  Location     Type
  3632 ;;  j               2    5[COMMON] int 
  3633 ;;  i               2    3[COMMON] int 
  3634 ;; Return value:  Size  Location     Type
  3635 ;;		None               void
  3636 ;; Registers used:
  3637 ;;		wreg, status,2, btemp+1
  3638 ;; Tracked objects:
  3639 ;;		On entry : 0/0
  3640 ;;		On exit  : 0/0
  3641 ;;		Unchanged: 0/0
  3642 ;; Data sizes:     COMMON   BANK0   BANK1   BANK3   BANK2
  3643 ;;      Params:         2       0       0       0       0
  3644 ;;      Locals:         4       0       0       0       0
  3645 ;;      Temps:          1       0       0       0       0
  3646 ;;      Totals:         7       0       0       0       0
  3647 ;;Total ram usage:        7 bytes
  3648 ;; Hardware stack levels used:    1
  3649 ;; This function calls:
  3650 ;;		Nothing
  3651 ;; This function is called by:
  3652 ;;		_lcdcmd
  3653 ;;		_lcddata
  3654 ;;		_lcd_init_write
  3655 ;;		_lcd_init
  3656 ;;		_display
  3657 ;;		_main
  3658 ;; This function uses a non-reentrant model
  3659 ;;
  3660                           psect	text194
  3661                           	file	"F:\pic projects\shoe rack controller\lcd.h"
  3662                           	line	9
  3663                           	global	__size_of_delay
  3664  003E                     	__size_of_delay	equ	__end_of_delay-_delay
  3665                           	
  3666  01EC                     _delay:	
  3667                           	opt	stack 6
  3668                           ; Regs used in _delay: [wreg+status,2+btemp+1]
  3669                           	line	11
  3670                           	
  3671  01EC                     l1851:	
  3672                           ;lcd.h: 10: int i,j;
  3673                           ;lcd.h: 11: for(i=0;i<itime;i++)
  3674  01EC  01F3               	clrf	(delay@i)
  3675  01ED  01F4               	clrf	(delay@i+1)
  3676  01EE  2A1A               	goto	l685
  3677                           	line	12
  3678                           	
  3679  01EF                     l686:	
  3680                           	
  3681  01EF                     l1853:	
  3682                           ;lcd.h: 12: for(j=0;j<235;j++);
  3683  01EF  01F5               	clrf	(delay@j)
  3684  01F0  01F6               	clrf	(delay@j+1)
  3685                           	
  3686  01F1                     l1855:	
  3687  01F1  0876               	movf	(delay@j+1),w
  3688  01F2  3A80               	xorlw	80h
  3689  01F3  00FF               	movwf	btemp+1
  3690  01F4  3080               	movlw	(high(0EBh))^80h
  3691  01F5  027F               	subwf	btemp+1,w
  3692  01F6  1D03               	skipz
  3693  01F7  29FA               	goto	u15
  3694  01F8  30EB               	movlw	low(0EBh)
  3695  01F9  0275               	subwf	(delay@j),w
  3696  01FA                     u15:
  3697                           
  3698  01FA  1C03               	skipc
  3699  01FB  29FD               	goto	u11
  3700  01FC  29FE               	goto	u10
  3701  01FD                     u11:
  3702  01FD  2A00               	goto	l1859
  3703  01FE                     u10:
  3704  01FE  2A14               	goto	l1863
  3705                           	
  3706  01FF                     l1857:	
  3707  01FF  2A14               	goto	l1863
  3708                           	
  3709  0200                     l687:	
  3710                           	
  3711  0200                     l1859:	
  3712  0200  3001               	movlw	low(01h)
  3713  0201  07F5               	addwf	(delay@j),f
  3714  0202  1803               	skipnc
  3715  0203  0AF6               	incf	(delay@j+1),f
  3716  0204  3000               	movlw	high(01h)
  3717  0205  07F6               	addwf	(delay@j+1),f
  3718                           	
  3719  0206                     l1861:	
  3720  0206  0876               	movf	(delay@j+1),w
  3721  0207  3A80               	xorlw	80h
  3722  0208  00FF               	movwf	btemp+1
  3723  0209  3080               	movlw	(high(0EBh))^80h
  3724  020A  027F               	subwf	btemp+1,w
  3725  020B  1D03               	skipz
  3726  020C  2A0F               	goto	u25
  3727  020D  30EB               	movlw	low(0EBh)
  3728  020E  0275               	subwf	(delay@j),w
  3729  020F                     u25:
  3730                           
  3731  020F  1C03               	skipc
  3732  0210  2A12               	goto	u21
  3733  0211  2A13               	goto	u20
  3734  0212                     u21:
  3735  0212  2A00               	goto	l1859
  3736  0213                     u20:
  3737  0213  2A14               	goto	l1863
  3738                           	
  3739  0214                     l688:	
  3740                           	line	11
  3741                           	
  3742  0214                     l1863:	
  3743  0214  3001               	movlw	low(01h)
  3744  0215  07F3               	addwf	(delay@i),f
  3745  0216  1803               	skipnc
  3746  0217  0AF4               	incf	(delay@i+1),f
  3747  0218  3000               	movlw	high(01h)
  3748  0219  07F4               	addwf	(delay@i+1),f
  3749                           	
  3750  021A                     l685:	
  3751  021A  0874               	movf	(delay@i+1),w
  3752  021B  3A80               	xorlw	80h
  3753  021C  00F2               	movwf	(??_delay+0)+0
  3754  021D  0871               	movf	(delay@itime+1),w
  3755  021E  3A80               	xorlw	80h
  3756  021F  0272               	subwf	(??_delay+0)+0,w
  3757  0220  1D03               	skipz
  3758  0221  2A24               	goto	u35
  3759  0222  0870               	movf	(delay@itime),w
  3760  0223  0273               	subwf	(delay@i),w
  3761  0224                     u35:
  3762                           
  3763  0224  1C03               	skipc
  3764  0225  2A27               	goto	u31
  3765  0226  2A28               	goto	u30
  3766  0227                     u31:
  3767  0227  29EF               	goto	l1853
  3768  0228                     u30:
  3769  0228  2A29               	goto	l690
  3770                           	
  3771  0229                     l689:	
  3772                           	line	14
  3773                           ;lcd.h: 13: return;
  3774                           	
  3775  0229                     l690:	
  3776  0229  0008               	return
  3777                           	opt stack 0
  3778                           GLOBAL	__end_of_delay
  3779  022A                     	__end_of_delay:
  3780 ;; =============== function _delay ends ============
  3781                           
  3782                           	signat	_delay,4216
  3783                           psect	text195,local,class=CODE,delta=2
  3784                           global __ptext195
  3785  0000                     __ptext195:
  3786                           	global	btemp
  3787  007E                     	btemp set 07Eh
  3788                           
  3789                           	DABS	1,126,2	;btemp
  3790                           	global	wtemp0
  3791  007E                     	wtemp0 set btemp


HI-TECH Software PICC Macro Assembler V9.83 build 10920 
Symbol Table                                                                                   Tue Dec 09 16:55:22 2014

                      pc 0002                       _RD 0C60                       u10 01FE  
                     u11 01FD                       u20 0213                       u21 0212  
                     u30 0228                       u31 0227                       u15 01FA  
                     u25 020F                       u35 0224                       _WR 0C61  
                     fsr 0004                      l702 033E                      l711 037F  
                    l800 07AD                      l720 03DD                      l712 0573  
                    l705 01DA                      l801 07F7                      l721 03E1  
                    l713 0413                      l706 01B4                      l802 07FC  
                    l730 0421                      l722 03E5                      l714 03DA  
                    l707 01EB                      l803 07FD                      l731 044D  
                    l723 03E5                      l715 03C7                      l708 01EB  
                    l804 07FD                      l740 0495                      l732 0433  
                    l724 03E9                      l716 03C7                      l725 0572  
                    l741 0482                      l733 0433                      l717 03CB  
                    l750 04A4                      l742 0482                      l734 0437  
                    l726 0469                      l718 03F7                      l751 0570  
                    l743 0486                      l735 043B                      l727 0430  
                    l719 03DD                      l752 0553                      l760 0511  
                    l744 04B3                      l736 043B                      l728 041D  
                    l761 0515                      l753 050A                      l745 0498  
                    l737 043F                      l729 041D                      l690 0229  
                    l770 05E9                      l738 0571                      l762 0515  
                    l754 04F7                      l746 0498                      l771 05CD  
                    l763 0519                      l755 04F7                      l747 049C  
                    l739 04DE                      l780 065C                      l772 05CD  
                    l764 056F                      l756 04FB                      l748 04A0  
                    l685 021A                      l693 027A                      l765 07FB  
                    l781 065C                      l773 05D1                      l757 0528  
                    l749 04A0                      l686 01EF                      l774 07FA  
                    l790 06FA                      l782 0660                      l766 0606  
                    l758 050D                      l687 0200                      l783 07F9  
                    l791 06FE                      l775 0695                      l767 0597  
                    l759 050D                      l688 0214                      l696 02CB  
                    l792 07F8                      l784 0744                      l776 062A  
                    l768 0605                      l689 0229                      l793 07F3  
                    l785 06B9                      l777 0694                      l769 05CA  
                    l794 0768                      l786 0743                      l778 0659  
                    l699 01B2                      l795 07F2                      l787 06F7  
                    l779 0678                      l796 07A6                      l788 0727  
                    l797 07D6                      l789 06FA                      l798 07A9  
                    l799 07A9                      _GIE 005F                      _RA0 0028  
                    _RA1 0029                      _RB0 0030                      _RA2 002A  
                    _RB1 0031                      _RA3 002B                      _RC0 0038  
                    _RC1 0039                      _RB3 0033                      _RD0 0040  
                    _RC2 003A                      _RB4 0034                      _RD1 0041  
                    _RB5 0035                      _RE0 0048                      _RD2 0042  
                    _RC4 003C                      _RB6 0036                      _RE1 0049  
                    _RD3 0043                      _RC5 003D                      _RB7 0037  
                    _RE2 004A                      _RC6 003E                      _RC7 003F  
            lcdcmd@value 0077              lcddata@temp 007B                      fsr0 0004  
                    indf 0000                     l3201 041B                     l3211 0456  
                   l3203 0423                     l3141 01D3                     l3301 05B0  
                   l3221 047B                     l3213 045F                     l3205 042C  
                   l3143 01DA                     l3135 01B3                     l3311 05DD  
                   l3303 05B9                     l3231 04A6                     l3223 047C  
                   l3215 046D                     l3207 0441                     l3151 0349  
                   l3137 01B4                     l3401 0719                     l3321 060A  
                   l3313 05E0                     l3305 05BC                     l3241 04C1  
                   l3233 04AF                     l3225 0480                     l3217 046F  
                   l3209 044A                     l3161 0363                     l3153 034C  
                   l3145 033F                     l3139 01CA                     l3411 0748  
                   l3403 0723                     l3331 0633                     l3323 060E  
                   l3315 05E9                     l3307 05C6                     l3251 04ED  
                   l3243 04CB                     l3235 04B3                     l3227 0488  
                   l3219 0478                     l3171 0391                     l3163 036C  
                   l3155 0350                     l3147 0343                     l3421 0771  
                   l3413 074C                     l3405 0726                     l3341 064F  
                   l3333 063C                     l3325 0617                     l3317 05F2  
                   l3309 05D4                     l3261 0506                     l3253 04F0  
                   l3245 04D4                     l3237 04B4                     l3229 0491  
                   l3181 03BB                     l3173 039A                     l3165 0375  
                   l3157 0359                     l3149 0344                     l3431 078A  
                   l3423 077A                     l3415 0755                     l3407 0730  
                   l3351 0678                     l3343 0658                     l3335 0642  
                   l3327 0620                     l3319 05FB                     l3271 0533  
                   l3263 051B                     l3255 04F1                     l3247 04E2  
                   l3239 04BE                     l3191 03EB                     l3183 03C1  
                   l3175 03A3                     l3167 037F                     l3159 035E  
                   l2801 02CC                     l3441 079C                     l3433 078B  
                   l3425 077D                     l3417 075E                     l3409 0739  
                   l3361 06A6                     l3353 0681                     l3345 0663  
                   l3337 0643                     l3329 062A                     l3281 055C  
                   l3273 0536                     l3265 0524                     l3257 04F5  
                   l3249 04E4                     l3193 03F4                     l3185 03C5  
                   l3177 03A9                     l3169 0388                     l1851 01EC  
                   l2731 0239                     l2723 022A                     l3451 07C5  
                   l3443 07A5                     l3435 078F                     l3427 077E  
                   l3419 0768                     l3371 06CE                     l3363 06AF  
                   l3355 068A                     l3347 066C                     l3339 064C  
                   l3291 058D                     l3283 0565                     l3275 0540  
                   l3267 0528                     l3259 04FD                     l3195 0400  
                   l3187 03CD                     l3179 03B2                     l1861 0206  
                   l1853 01EF                     l2741 0257                     l2733 023D  
                   l2725 022D                     l3461 07DF                     l3453 07C5  
                   l3445 07B0                     l3437 0790                     l3429 0787  
                   l3381 06E0                     l3373 06CF                     l3365 06B9  
                   l3357 0699                     l3349 066F                     l3293 0597  
                   l3285 0577                     l3277 0549                     l3269 0529  
                   l3197 0409                     l3189 03D6                     l1863 0214  
                   l1855 01F1                     l2751 026D                     l2743 025B  
                   l2735 023E                     l2727 0231                     l3463 07E8  
                   l3455 07C8                     l3447 07B9                     l3439 0799  
                   l3391 0701                     l3383 06E1                     l3375 06D8  
                   l3367 06C2                     l3359 069D                     l3295 05A0  
                   l3287 057B                     l3279 0553                     l3199 0417  
                   l1857 01FF                     l2753 0270                     l2745 025F  
                   l2737 0247                     l2729 0235                     l2761 0282  
                   l3457 07D2                     l3449 07BC                     l3465 07F3  
                   l3393 070A                     l3385 06EA                     l3377 06DB  
                   l3369 06CB                     l3297 05A9                     l3289 0584  
                   l1859 0200                     l2755 027A                     l2747 0263  
                   l2739 024A                     l2771 0298                     l2763 0286  
                   l3459 07D5                     l3395 070D                     l3387 06ED  
                   l3379 06DC                     l3299 05AF                     l2749 0264  
                   l2781 02B4                     l2773 029B                     l2765 028A  
                   l2757 027B                     l3397 0716                     l3389 06F6  
                   l2783 02B5                     l2775 02A8                     l2767 028E  
                   l2759 027E                     l2791 01A0                     l3399 0716  
                   l2785 02BE                     l2777 02AC                     l2769 028F  
                   l2793 01A3                     l2787 02C1                     l2779 02B0  
                   l2795 01A5                     l2789 02CB                     l2797 01A6  
                   l2799 01AF                     STR_1 0800                     STR_2 0811  
                   STR_3 0822                     STR_4 0873                     STR_5 0833  
                   STR_6 0843                     STR_7 0853                     STR_8 0863  
                   STR_9 08BE                     u3000 074C                     u3001 074B  
                   u3010 078F                     u3011 078E                     u3020 07AD  
                   u3021 07AC                     u2255 024D                     u2265 029E  
                   u2700 03E1                     u2701 03E0                     u2710 03E9  
                   u2711 03E8                     u2800 049C                     u2720 0417  
                   u2801 049B                     u2721 0416                     u2650 01EA  
                   u2810 04A4                     u2730 041B                     u2651 01E9  
                   u2811 04A3                     u2731 041A                     u2900 05D1  
                   u2820 04E2                     u2740 0421                     u2660 03A9  
                   u2901 05D0                     u2821 04E1                     u2741 0420  
                   u2661 03A8                     u2910 060A                     u2830 04F5  
                   u2750 0437                     u2670 03C1                     u2911 0609  
                   u2831 04F4                     u2751 0436                     u2671 03C0  
                   u2920 060E                     u2840 04FB                     u2760 043F  
                   u2680 03C5                     u2921 060D                     u2841 04FA  
                   u2761 043E                     u2681 03C4                     u2930 0642  
                   u2850 0511                     u2770 046D                     u2690 03CB  
                   u2931 0641                     u2851 0510                     u2771 046C  
                   u2691 03CA                     u2940 0660                     u2860 0519  
                   u2780 0480                     u2941 065F                     u2861 0518  
                   u2781 047F                     u2950 0699                     u2870 0577  
                   u2790 0486                     u2951 0698                     u2871 0576  
                   u2791 0485                     u2960 069D                     u2880 057B  
                   u2961 069C                     u2881 057A                     u2970 06E0  
                   u2890 05AF                     u2971 06DF                     u2891 05AE  
                   u2980 06FE                     u2981 06FD                     u2990 0748  
                   u2991 0747                     _WREN 0C62                     _main 033F  
           lcddata@value 0077                     btemp 007E                     start 0000  
                  ?_main 0070                    _EEADR 010D                    STR_10 08CD  
                  STR_11 0882                    STR_12 0909                    STR_20 08AF  
                  STR_21 0909                    STR_13 08DC                    STR_14 0891  
                  STR_15 0909                    STR_16 08EB                    STR_17 08A0  
                  STR_18 0909                    STR_19 08FA                    _CARRY 0018  
                  _PORTC 0007                    _PORTD 0008                    _TRISA 0085  
                  _TRISB 0086                    _TRISC 0087                    _TRISD 0088  
                  _TRISE 0089          __end_of_lcddata 02CC          __end_of_display 01EC  
                  _delay 01EC                    pclath 000A                    status 0003  
                  wtemp0 007E             __end_of_main 0800                   ??_main 007E  
                 ?_delay 0070                   _ADCON1 009F                   _EEDATA 010C  
                 _EECON1 018C                   _EECON2 018D         __end_of_lcd_init 033F  
                 _lcdcmd 022A                   delay@i 0073                   delay@j 0075  
              ??_lcddata 0079                ??_display 0020         ??_lcd_init_write 0077  
         __pcstackCOMMON 0070            __end_of_delay 022A                  ??_delay 0072  
             __pmaintext 033F                  ?_lcdcmd 0077                ?_lcd_init 0070  
        __size_of_lcdcmd 0051                  _lcddata 027B                  _display 01B3  
             delay@itime 0070               ??_lcd_init 007C     end_of_initialization 019B  
           __pstringtext 0800               lcdcmd@temp 007B          lcd_init_write@a 0077  
         __end_of_lcdcmd 027B      start_initialization 019B                 ??_lcdcmd 0079  
          __pcstackBANK0 0020        __size_of_lcd_init 0073  __size_of_lcd_init_write 0014  
              __ptext190 02CC                __ptext191 019F                __ptext192 027B  
              __ptext193 022A                __ptext194 01EC                __ptext195 0000  
              __ptext188 0000                __ptext189 01B3                __pstrings 0003  
               ?_lcddata 0077                 ?_display 007C           __size_of_delay 003E  
            __stringbase 0015         __size_of_lcddata 0051         __size_of_display 0039  
               _lcd_init 02CC            __size_of_main 04C1           _lcd_init_write 019F  
               display@p 007C   __end_of_lcd_init_write 01B3                stringcode 000D  
               stringtab 0003          ?_lcd_init_write 0070  
