

HI-TECH Software PIC LITE Macro Assembler V9.83 build 10920 
                                                                                               Fri Dec 05 23:03:05 2014

HI-TECH Software Omniscient Code Generator (Lite mode) build 10920
     1  0000                     opt subtitle "HI-TECH Software Omniscient Code Generator (Lite mode) build 10920"
     2                           
     3                           opt pagewidth 120
     4                           
     5                           	opt lm
     6                           
     7                           	processor	16F877A
     8                           clrc	macro
     9                           	bcf	3,0
    10  0000                     	endm
    11                           clrz	macro
    12                           	bcf	3,2
    13  0000                     	endm
    14                           setc	macro
    15                           	bsf	3,0
    16  0000                     	endm
    17                           setz	macro
    18                           	bsf	3,2
    19  0000                     	endm
    20                           skipc	macro
    21                           	btfss	3,0
    22  0000                     	endm
    23                           skipz	macro
    24                           	btfss	3,2
    25  0000                     	endm
    26                           skipnc	macro
    27                           	btfsc	3,0
    28  0000                     	endm
    29                           skipnz	macro
    30                           	btfsc	3,2
    31  0000                     	endm
    32  0000                     indf	equ	0
    33  0000                     indf0	equ	0
    34  0002                     pc	equ	2
    35  0002                     pcl	equ	2
    36  0003                     status	equ	3
    37  0004                     fsr	equ	4
    38  0004                     fsr0	equ	4
    39  0001                     c	equ	1
    40  0000                     z	equ	0
    41  000A                     pclath	equ	10
    42                           	FNCALL	_main,_uart_init
    43                           	FNCALL	_main,_lcd_init
    44                           	FNCALL	_main,_StorTempl
    45                           	FNCALL	_main,_lcdcmd
    46                           	FNCALL	_main,_display
    47                           	FNCALL	_main,_delay
    48                           	FNCALL	_main,_SrchFinger
    49                           	FNCALL	_SrchFinger,_Readfinger
    50                           	FNCALL	_SrchFinger,_storChar1
    51                           	FNCALL	_SrchFinger,_storChar2
    52                           	FNCALL	_SrchFinger,_Sendstring
    53                           	FNCALL	_SrchFinger,_lcdcmd
    54                           	FNCALL	_SrchFinger,_delay
    55                           	FNCALL	_SrchFinger,_display
    56                           	FNCALL	_SrchFinger,_errorDisplay
    57                           	FNCALL	_StorTempl,_lcdcmd
    58                           	FNCALL	_StorTempl,_delay
    59                           	FNCALL	_StorTempl,_display
    60                           	FNCALL	_StorTempl,_Readfinger
    61                           	FNCALL	_StorTempl,_storChar1
    62                           	FNCALL	_StorTempl,_storChar2
    63                           	FNCALL	_StorTempl,_Sendstring
    64                           	FNCALL	_StorTempl,_TX
    65                           	FNCALL	_StorTempl,_errorDisplay
    66                           	FNCALL	_errorDisplay,_lcdcmd
    67                           	FNCALL	_errorDisplay,_delay
    68                           	FNCALL	_errorDisplay,_display
    69                           	FNCALL	_storChar2,_Sendstring
    70                           	FNCALL	_storChar1,_Sendstring
    71                           	FNCALL	_Readfinger,_Sendstring
    72                           	FNCALL	_display,_lcddata
    73                           	FNCALL	_display,_delay
    74                           	FNCALL	_lcd_init,_delay
    75                           	FNCALL	_lcd_init,_lcd_init_write
    76                           	FNCALL	_lcd_init,_lcdcmd
    77                           	FNCALL	_Sendstring,_TX
    78                           	FNCALL	_Sendstring,_delay
    79                           	FNCALL	_lcd_init_write,_delay
    80                           	FNCALL	_lcddata,_delay
    81                           	FNCALL	_lcdcmd,_delay
    82                           	FNROOT	_main
    83                           	FNCALL	intlevel1,_receive
    84                           	global	intlevel1
    85                           	FNROOT	intlevel1
    86                           	global	_Stortemplate
    87                           	global	_Srchtemplate
    88                           	global	_Genchar1
    89                           	global	_Genchar2
    90                           	global	_GenImg
    91                           	global	_Gentemplate
    92                           	global	_Rdvlidtempl
    93                           psect	idataBANK1,class=CODE,space=0,delta=2
    94                           global __pidataBANK1
    95  0795                     __pidataBANK1:
    96                           	file	"F:\pic projects\finger voting machine\finger test.c"
    97                           	line	37
    98                           
    99                           ;initializer for _Stortemplate
   100  0795  34EF               	retlw	0EFh
   101  0796  3401               	retlw	01h
   102  0797  34FF               	retlw	0FFh
   103  0798  34FF               	retlw	0FFh
   104  0799  34FF               	retlw	0FFh
   105  079A  34FF               	retlw	0FFh
   106  079B  3401               	retlw	01h
   107  079C  3400               	retlw	0
   108  079D  3406               	retlw	06h
   109  079E  3406               	retlw	06h
   110  079F  3401               	retlw	01h
   111  07A0  3400               	retlw	0
   112  07A1  3402               	retlw	02h
   113  07A2  3400               	retlw	0
   114  07A3  3410               	retlw	010h
   115                           psect	idataBANK3,class=CODE,space=0,delta=2
   116                           global __pidataBANK3
   117  0E5B                     __pidataBANK3:
   118                           	line	38
   119                           
   120                           ;initializer for _Srchtemplate
   121  0E5B  34EF               	retlw	0EFh
   122  0E5C  3401               	retlw	01h
   123  0E5D  34FF               	retlw	0FFh
   124  0E5E  34FF               	retlw	0FFh
   125  0E5F  34FF               	retlw	0FFh
   126  0E60  34FF               	retlw	0FFh
   127  0E61  3401               	retlw	01h
   128  0E62  3400               	retlw	0
   129  0E63  3408               	retlw	08h
   130  0E64  3404               	retlw	04h
   131  0E65  3401               	retlw	01h
   132  0E66  3400               	retlw	0
   133  0E67  3401               	retlw	01h
   134  0E68  3400               	retlw	0
   135  0E69  343F               	retlw	03Fh
   136  0E6A  3400               	retlw	0
   137  0E6B  344E               	retlw	04Eh
   138                           psect	idataBANK1
   139                           	line	33
   140                           
   141                           ;initializer for _Genchar1
   142  07A4  34EF               	retlw	0EFh
   143  07A5  3401               	retlw	01h
   144  07A6  34FF               	retlw	0FFh
   145  07A7  34FF               	retlw	0FFh
   146  07A8  34FF               	retlw	0FFh
   147  07A9  34FF               	retlw	0FFh
   148  07AA  3401               	retlw	01h
   149  07AB  3400               	retlw	0
   150  07AC  3404               	retlw	04h
   151  07AD  3402               	retlw	02h
   152  07AE  3401               	retlw	01h
   153  07AF  3400               	retlw	0
   154  07B0  3408               	retlw	08h
   155                           	line	34
   156                           
   157                           ;initializer for _Genchar2
   158  07B1  34EF               	retlw	0EFh
   159  07B2  3401               	retlw	01h
   160  07B3  34FF               	retlw	0FFh
   161  07B4  34FF               	retlw	0FFh
   162  07B5  34FF               	retlw	0FFh
   163  07B6  34FF               	retlw	0FFh
   164  07B7  3401               	retlw	01h
   165  07B8  3400               	retlw	0
   166  07B9  3404               	retlw	04h
   167  07BA  3402               	retlw	02h
   168  07BB  3402               	retlw	02h
   169  07BC  3400               	retlw	0
   170  07BD  3409               	retlw	09h
   171                           	line	32
   172                           
   173                           ;initializer for _GenImg
   174  07BE  34EF               	retlw	0EFh
   175  07BF  3401               	retlw	01h
   176  07C0  34FF               	retlw	0FFh
   177  07C1  34FF               	retlw	0FFh
   178  07C2  34FF               	retlw	0FFh
   179  07C3  34FF               	retlw	0FFh
   180  07C4  3401               	retlw	01h
   181  07C5  3400               	retlw	0
   182  07C6  3403               	retlw	03h
   183  07C7  3401               	retlw	01h
   184  07C8  3400               	retlw	0
   185  07C9  3405               	retlw	05h
   186                           	line	35
   187                           
   188                           ;initializer for _Gentemplate
   189  07CA  34EF               	retlw	0EFh
   190  07CB  3401               	retlw	01h
   191  07CC  34FF               	retlw	0FFh
   192  07CD  34FF               	retlw	0FFh
   193  07CE  34FF               	retlw	0FFh
   194  07CF  34FF               	retlw	0FFh
   195  07D0  3401               	retlw	01h
   196  07D1  3400               	retlw	0
   197  07D2  3403               	retlw	03h
   198  07D3  3405               	retlw	05h
   199  07D4  3400               	retlw	0
   200  07D5  3409               	retlw	09h
   201                           	line	36
   202                           
   203                           ;initializer for _Rdvlidtempl
   204  07D6  34EF               	retlw	0EFh
   205  07D7  3401               	retlw	01h
   206  07D8  34FF               	retlw	0FFh
   207  07D9  34FF               	retlw	0FFh
   208  07DA  34FF               	retlw	0FFh
   209  07DB  34FF               	retlw	0FFh
   210  07DC  3401               	retlw	01h
   211  07DD  3400               	retlw	0
   212  07DE  3403               	retlw	03h
   213  07DF  341D               	retlw	01Dh
   214  07E0  3400               	retlw	0
   215  07E1  3421               	retlw	021h
   216                           	global	_aa
   217                           	global	_gg
   218                           	global	_ii
   219                           	global	_intrf
   220                           	global	_MSG
   221                           	global	_OF
   222                           	global	_ON
   223                           	global	_TT
   224                           	global	__SMS
   225                           	global	_chk
   226                           	global	_AA
   227                           	global	_bb
   228                           	global	_b
   229                           	global	_c
   230                           	global	_d
   231                           	global	_i
   232                           	global	_ff
   233                           	global	_hh
   234                           	global	_qq
   235                           	global	_INTCON
   236  000B                     _INTCON	set	11
   237                           	global	_PORTB
   238  0006                     _PORTB	set	6
   239                           	global	_RCREG
   240  001A                     _RCREG	set	26
   241                           	global	_RCSTA
   242  0018                     _RCSTA	set	24
   243                           	global	_TXREG
   244  0019                     _TXREG	set	25
   245                           	global	_CARRY
   246  0018                     _CARRY	set	24
   247                           	global	_CREN
   248  00C4                     _CREN	set	196
   249                           	global	_GIE
   250  005F                     _GIE	set	95
   251                           	global	_OERR
   252  00C1                     _OERR	set	193
   253                           	global	_RB1
   254  0031                     _RB1	set	49
   255                           	global	_RB2
   256  0032                     _RB2	set	50
   257                           	global	_RC0
   258  0038                     _RC0	set	56
   259                           	global	_RC1
   260  0039                     _RC1	set	57
   261                           	global	_RC2
   262  003A                     _RC2	set	58
   263                           	global	_RCIF
   264  0065                     _RCIF	set	101
   265                           	global	_RD2
   266  0042                     _RD2	set	66
   267                           	global	_RD3
   268  0043                     _RD3	set	67
   269                           	global	_SPBRG
   270  0099                     _SPBRG	set	153
   271                           	global	_TRISB
   272  0086                     _TRISB	set	134
   273                           	global	_TRISC
   274  0087                     _TRISC	set	135
   275                           	global	_TRISD
   276  0088                     _TRISD	set	136
   277                           	global	_TXSTA
   278  0098                     _TXSTA	set	152
   279                           	global	_BRGH
   280  04C2                     _BRGH	set	1218
   281                           	global	_RCIE
   282  0465                     _RCIE	set	1125
   283                           	global	_TRISC6
   284  043E                     _TRISC6	set	1086
   285                           	global	_TRISC7
   286  043F                     _TRISC7	set	1087
   287                           	global	_TRMT
   288  04C1                     _TRMT	set	1217
   289                           	global	_EEADR
   290  010D                     _EEADR	set	269
   291                           	global	_EEDATA
   292  010C                     _EEDATA	set	268
   293                           	global	_EECON1
   294  018C                     _EECON1	set	396
   295                           	global	_EECON2
   296  018D                     _EECON2	set	397
   297                           	global	_RD
   298  0C60                     _RD	set	3168
   299                           	global	_WR
   300  0C61                     _WR	set	3169
   301                           	global	_WREN
   302  0C62                     _WREN	set	3170
   303                           psect	strings,class=STRING,delta=2
   304                           global __pstrings
   305  0800                     __pstrings:
   306                           ;	global	stringtab,__stringbase
   307  0800                     stringtab:
   308                           ;	String table - string pointers are 2 bytes each
   309  0800  1BFF               	btfsc	(btemp+1),7
   310  0801  280A               	ljmp	stringcode
   311  0802  1383               	bcf	status,7
   312  0803  187F               	btfsc	(btemp+1),0
   313  0804  1783               	bsf	status,7
   314  0805  0800               	movf	indf,w
   315  0806  0A84               	incf fsr
   316  0807  1903               skipnz
   317  0808  0AFF               incf btemp+1
   318  0809  0008               	return
   319  080A                     stringcode:
   320  080A  087F               	movf btemp+1,w
   321  080B  397F               andlw 7Fh
   322  080C  008A               movwf	pclath
   323  080D  0804               	movf	fsr,w
   324  080E  0A84               incf fsr
   325  080F  1903               skipnz
   326  0810  0AFF               incf btemp+1
   327  0811  0082               	movwf pc
   328  0812                     __stringbase:
   329                           psect	stringtext,class=STRCODE,delta=2,reloc=256
   330                           global __pstringtext
   331  0600                     __pstringtext:
   332                           	
   333  0600                     STR_1:	
   334  0600  3420               	retlw	32	;' '
   335  0601  3420               	retlw	32	;' '
   336  0602  3420               	retlw	32	;' '
   337  0603  3462               	retlw	98	;'b'
   338  0604  3469               	retlw	105	;'i'
   339  0605  346F               	retlw	111	;'o'
   340  0606  346D               	retlw	109	;'m'
   341  0607  3465               	retlw	101	;'e'
   342  0608  3474               	retlw	116	;'t'
   343  0609  3472               	retlw	114	;'r'
   344  060A  3469               	retlw	105	;'i'
   345  060B  3463               	retlw	99	;'c'
   346  060C  3420               	retlw	32	;' '
   347  060D  3420               	retlw	32	;' '
   348  060E  3420               	retlw	32	;' '
   349  060F  3420               	retlw	32	;' '
   350  0610  3400               	retlw	0
   351                           psect	stringtext
   352                           	
   353  0611                     STR_13:	
   354  0611  3420               	retlw	32	;' '
   355  0612  3420               	retlw	32	;' '
   356  0613  3470               	retlw	112	;'p'
   357  0614  346C               	retlw	108	;'l'
   358  0615  3461               	retlw	97	;'a'
   359  0616  3463               	retlw	99	;'c'
   360  0617  3465               	retlw	101	;'e'
   361  0618  3420               	retlw	32	;' '
   362  0619  3466               	retlw	102	;'f'
   363  061A  3469               	retlw	105	;'i'
   364  061B  346E               	retlw	110	;'n'
   365  061C  3467               	retlw	103	;'g'
   366  061D  3465               	retlw	101	;'e'
   367  061E  3472               	retlw	114	;'r'
   368  061F  3420               	retlw	32	;' '
   369  0620  3420               	retlw	32	;' '
   370  0621  3400               	retlw	0
   371                           psect	stringtext
   372                           	
   373  0622                     STR_5:	
   374  0622  3420               	retlw	32	;' '
   375  0623  3420               	retlw	32	;' '
   376  0624  3465               	retlw	101	;'e'
   377  0625  346E               	retlw	110	;'n'
   378  0626  3474               	retlw	116	;'t'
   379  0627  3465               	retlw	101	;'e'
   380  0628  3472               	retlw	114	;'r'
   381  0629  3420               	retlw	32	;' '
   382  062A  3466               	retlw	102	;'f'
   383  062B  3469               	retlw	105	;'i'
   384  062C  346E               	retlw	110	;'n'
   385  062D  3467               	retlw	103	;'g'
   386  062E  3465               	retlw	101	;'e'
   387  062F  3472               	retlw	114	;'r'
   388  0630  3420               	retlw	32	;' '
   389  0631  3420               	retlw	32	;' '
   390  0632  3400               	retlw	0
   391                           psect	stringtext
   392                           	
   393  0633                     STR_10:	
   394  0633  3420               	retlw	32	;' '
   395  0634  3466               	retlw	102	;'f'
   396  0635  346F               	retlw	111	;'o'
   397  0636  3472               	retlw	114	;'r'
   398  0637  3420               	retlw	32	;' '
   399  0638  346F               	retlw	111	;'o'
   400  0639  3470               	retlw	112	;'p'
   401  063A  3465               	retlw	101	;'e'
   402  063B  346E               	retlw	110	;'n'
   403  063C  3420               	retlw	32	;' '
   404  063D  3464               	retlw	100	;'d'
   405  063E  346F               	retlw	111	;'o'
   406  063F  346F               	retlw	111	;'o'
   407  0640  3472               	retlw	114	;'r'
   408  0641  3420               	retlw	32	;' '
   409  0642  3420               	retlw	32	;' '
   410  0643  3400               	retlw	0
   411                           psect	stringtext
   412                           	
   413  0644                     STR_6:	
   414  0644  3420               	retlw	32	;' '
   415  0645  3466               	retlw	102	;'f'
   416  0646  346F               	retlw	111	;'o'
   417  0647  3472               	retlw	114	;'r'
   418  0648  3420               	retlw	32	;' '
   419  0649  3463               	retlw	99	;'c'
   420  064A  346C               	retlw	108	;'l'
   421  064B  346F               	retlw	111	;'o'
   422  064C  3473               	retlw	115	;'s'
   423  064D  3465               	retlw	101	;'e'
   424  064E  3420               	retlw	32	;' '
   425  064F  3464               	retlw	100	;'d'
   426  0650  346F               	retlw	111	;'o'
   427  0651  346F               	retlw	111	;'o'
   428  0652  3472               	retlw	114	;'r'
   429  0653  3420               	retlw	32	;' '
   430  0654  3400               	retlw	0
   431                           psect	stringtext
   432                           	
   433  0655                     STR_15:	
   434  0655  344E               	retlw	78	;'N'
   435  0656  3465               	retlw	101	;'e'
   436  0657  3477               	retlw	119	;'w'
   437  0658  3420               	retlw	32	;' '
   438  0659  3466               	retlw	102	;'f'
   439  065A  3469               	retlw	105	;'i'
   440  065B  346E               	retlw	110	;'n'
   441  065C  3467               	retlw	103	;'g'
   442  065D  3465               	retlw	101	;'e'
   443  065E  3472               	retlw	114	;'r'
   444  065F  3420               	retlw	32	;' '
   445  0660  3461               	retlw	97	;'a'
   446  0661  3464               	retlw	100	;'d'
   447  0662  3464               	retlw	100	;'d'
   448  0663  3465               	retlw	101	;'e'
   449  0664  3464               	retlw	100	;'d'
   450  0665  3400               	retlw	0
   451                           psect	stringtext
   452                           	
   453  0666                     STR_2:	
   454  0666  3464               	retlw	100	;'d'
   455  0667  346F               	retlw	111	;'o'
   456  0668  346F               	retlw	111	;'o'
   457  0669  3472               	retlw	114	;'r'
   458  066A  3420               	retlw	32	;' '
   459  066B  346C               	retlw	108	;'l'
   460  066C  346F               	retlw	111	;'o'
   461  066D  3463               	retlw	99	;'c'
   462  066E  346B               	retlw	107	;'k'
   463  066F  3420               	retlw	32	;' '
   464  0670  3473               	retlw	115	;'s'
   465  0671  3479               	retlw	121	;'y'
   466  0672  3473               	retlw	115	;'s'
   467  0673  3474               	retlw	116	;'t'
   468  0674  3465               	retlw	101	;'e'
   469  0675  346D               	retlw	109	;'m'
   470  0676  3400               	retlw	0
   471                           psect	stringtext
   472                           	
   473  0677                     STR_14:	
   474  0677  3470               	retlw	112	;'p'
   475  0678  3475               	retlw	117	;'u'
   476  0679  3474               	retlw	116	;'t'
   477  067A  3420               	retlw	32	;' '
   478  067B  3466               	retlw	102	;'f'
   479  067C  3469               	retlw	105	;'i'
   480  067D  346E               	retlw	110	;'n'
   481  067E  3467               	retlw	103	;'g'
   482  067F  3465               	retlw	101	;'e'
   483  0680  3472               	retlw	114	;'r'
   484  0681  3420               	retlw	32	;' '
   485  0682  3461               	retlw	97	;'a'
   486  0683  3467               	retlw	103	;'g'
   487  0684  3461               	retlw	97	;'a'
   488  0685  3469               	retlw	105	;'i'
   489  0686  346E               	retlw	110	;'n'
   490  0687  3400               	retlw	0
   491                           psect	stringtext
   492                           	
   493  0688                     STR_21:	
   494  0688  3420               	retlw	32	;' '
   495  0689  3420               	retlw	32	;' '
   496  068A  346D               	retlw	109	;'m'
   497  068B  3461               	retlw	97	;'a'
   498  068C  3474               	retlw	116	;'t'
   499  068D  3463               	retlw	99	;'c'
   500  068E  3468               	retlw	104	;'h'
   501  068F  3420               	retlw	32	;' '
   502  0690  3466               	retlw	102	;'f'
   503  0691  346F               	retlw	111	;'o'
   504  0692  3475               	retlw	117	;'u'
   505  0693  346E               	retlw	110	;'n'
   506  0694  3464               	retlw	100	;'d'
   507  0695  3420               	retlw	32	;' '
   508  0696  3420               	retlw	32	;' '
   509  0697  3400               	retlw	0
   510                           psect	stringtext
   511                           	
   512  0698                     STR_20:	
   513  0698  3420               	retlw	32	;' '
   514  0699  3420               	retlw	32	;' '
   515  069A  3473               	retlw	115	;'s'
   516  069B  3465               	retlw	101	;'e'
   517  069C  3461               	retlw	97	;'a'
   518  069D  3472               	retlw	114	;'r'
   519  069E  3463               	retlw	99	;'c'
   520  069F  3468               	retlw	104	;'h'
   521  06A0  3469               	retlw	105	;'i'
   522  06A1  346E               	retlw	110	;'n'
   523  06A2  3467               	retlw	103	;'g'
   524  06A3  3420               	retlw	32	;' '
   525  06A4  3420               	retlw	32	;' '
   526  06A5  3400               	retlw	0
   527                           psect	stringtext
   528                           	
   529  06A6                     STR_17:	
   530  06A6  3420               	retlw	32	;' '
   531  06A7  3420               	retlw	32	;' '
   532  06A8  346E               	retlw	110	;'n'
   533  06A9  346F               	retlw	111	;'o'
   534  06AA  3420               	retlw	32	;' '
   535  06AB  3466               	retlw	102	;'f'
   536  06AC  3469               	retlw	105	;'i'
   537  06AD  346E               	retlw	110	;'n'
   538  06AE  3467               	retlw	103	;'g'
   539  06AF  3465               	retlw	101	;'e'
   540  06B0  3472               	retlw	114	;'r'
   541  06B1  3420               	retlw	32	;' '
   542  06B2  3420               	retlw	32	;' '
   543  06B3  3400               	retlw	0
   544                           psect	stringtext
   545                           	
   546  06B4                     STR_19:	
   547  06B4  3420               	retlw	32	;' '
   548  06B5  3420               	retlw	32	;' '
   549  06B6  3463               	retlw	99	;'c'
   550  06B7  346F               	retlw	111	;'o'
   551  06B8  346D               	retlw	109	;'m'
   552  06B9  3420               	retlw	32	;' '
   553  06BA  3465               	retlw	101	;'e'
   554  06BB  3472               	retlw	114	;'r'
   555  06BC  3472               	retlw	114	;'r'
   556  06BD  346F               	retlw	111	;'o'
   557  06BE  3472               	retlw	114	;'r'
   558  06BF  3420               	retlw	32	;' '
   559  06C0  3420               	retlw	32	;' '
   560  06C1  3400               	retlw	0
   561                           psect	stringtext
   562                           	
   563  06C2                     STR_8:	
   564  06C2  3461               	retlw	97	;'a'
   565  06C3  3463               	retlw	99	;'c'
   566  06C4  3463               	retlw	99	;'c'
   567  06C5  3465               	retlw	101	;'e'
   568  06C6  3473               	retlw	115	;'s'
   569  06C7  3473               	retlw	115	;'s'
   570  06C8  3420               	retlw	32	;' '
   571  06C9  3464               	retlw	100	;'d'
   572  06CA  3465               	retlw	101	;'e'
   573  06CB  346E               	retlw	110	;'n'
   574  06CC  3469               	retlw	105	;'i'
   575  06CD  3465               	retlw	101	;'e'
   576  06CE  3464               	retlw	100	;'d'
   577  06CF  3400               	retlw	0
   578                           psect	stringtext
   579                           	
   580  06D0                     STR_22:	
   581  06D0  3420               	retlw	32	;' '
   582  06D1  3420               	retlw	32	;' '
   583  06D2  346E               	retlw	110	;'n'
   584  06D3  346F               	retlw	111	;'o'
   585  06D4  3420               	retlw	32	;' '
   586  06D5  346D               	retlw	109	;'m'
   587  06D6  3461               	retlw	97	;'a'
   588  06D7  3474               	retlw	116	;'t'
   589  06D8  3463               	retlw	99	;'c'
   590  06D9  3468               	retlw	104	;'h'
   591  06DA  3420               	retlw	32	;' '
   592  06DB  3420               	retlw	32	;' '
   593  06DC  3400               	retlw	0
   594                           psect	stringtext
   595                           	
   596  06DD                     STR_11:	
   597  06DD  3464               	retlw	100	;'d'
   598  06DE  346F               	retlw	111	;'o'
   599  06DF  346F               	retlw	111	;'o'
   600  06E0  3472               	retlw	114	;'r'
   601  06E1  3420               	retlw	32	;' '
   602  06E2  346F               	retlw	111	;'o'
   603  06E3  3470               	retlw	112	;'p'
   604  06E4  3465               	retlw	101	;'e'
   605  06E5  346E               	retlw	110	;'n'
   606  06E6  3469               	retlw	105	;'i'
   607  06E7  346E               	retlw	110	;'n'
   608  06E8  3467               	retlw	103	;'g'
   609  06E9  3400               	retlw	0
   610                           psect	stringtext
   611                           	
   612  06EA                     STR_7:	
   613  06EA  3464               	retlw	100	;'d'
   614  06EB  346F               	retlw	111	;'o'
   615  06EC  346F               	retlw	111	;'o'
   616  06ED  3472               	retlw	114	;'r'
   617  06EE  3420               	retlw	32	;' '
   618  06EF  3463               	retlw	99	;'c'
   619  06F0  346C               	retlw	108	;'l'
   620  06F1  346F               	retlw	111	;'o'
   621  06F2  3473               	retlw	115	;'s'
   622  06F3  3469               	retlw	105	;'i'
   623  06F4  346E               	retlw	110	;'n'
   624  06F5  3467               	retlw	103	;'g'
   625  06F6  3400               	retlw	0
   626                           psect	stringtext
   627                           	
   628  06F7                     STR_16:	
   629  06F7  3420               	retlw	32	;' '
   630  06F8  3420               	retlw	32	;' '
   631  06F9  3465               	retlw	101	;'e'
   632  06FA  3472               	retlw	114	;'r'
   633  06FB  3472               	retlw	114	;'r'
   634  06FC  346F               	retlw	111	;'o'
   635  06FD  3472               	retlw	114	;'r'
   636  06FE  3420               	retlw	32	;' '
   637  06FF  3420               	retlw	32	;' '
   638  0700  3400               	retlw	0
   639                           psect	stringtext
   640                           	
   641  0701                     STR_18:	
   642  0701  3420               	retlw	32	;' '
   643  0702  3420               	retlw	32	;' '
   644  0703  3466               	retlw	102	;'f'
   645  0704  3461               	retlw	97	;'a'
   646  0705  3469               	retlw	105	;'i'
   647  0706  346C               	retlw	108	;'l'
   648  0707  3420               	retlw	32	;' '
   649  0708  3420               	retlw	32	;' '
   650  0709  3400               	retlw	0
   651                           psect	stringtext
   652  0666                     STR_4	equ	STR_2+0
   653  06C2                     STR_12	equ	STR_8+0
   654  06F8                     STR_23	equ	STR_16+1
   655  0622                     STR_9	equ	STR_5+0
   656  0600                     STR_3	equ	STR_1+0
   657                           	file	"finger voting.as"
   658                           	line	#
   659                           psect cinit,class=CODE,delta=2
   660                           global start_initialization
   661  0F39                     start_initialization:
   662                           
   663                           psect	bssCOMMON,class=COMMON,space=1
   664                           global __pbssCOMMON
   665  0070                     __pbssCOMMON:
   666  0070                     _i:
   667  0070                            ds      2
   668                           
   669  0072                     _ff:
   670  0072                            ds      1
   671                           
   672  0073                     _hh:
   673  0073                            ds      1
   674                           
   675  0074                     _qq:
   676  0074                            ds      1
   677                           
   678                           psect	bssBANK0,class=BANK0,space=1
   679                           global __pbssBANK0
   680  0020                     __pbssBANK0:
   681  0020                     _aa:
   682  0020                            ds      50
   683                           
   684  0052                     _gg:
   685  0052                            ds      2
   686                           
   687  0054                     _ii:
   688  0054                            ds      2
   689                           
   690  0056                     _intrf:
   691  0056                            ds      2
   692                           
   693  0058                     _MSG:
   694  0058                            ds      1
   695                           
   696  0059                     _OF:
   697  0059                            ds      1
   698                           
   699  005A                     _ON:
   700  005A                            ds      1
   701                           
   702  005B                     _TT:
   703  005B                            ds      1
   704                           
   705  005C                     __SMS:
   706  005C                            ds      1
   707                           
   708  005D                     _chk:
   709  005D                            ds      1
   710                           
   711                           psect	dataBANK1,class=BANK1,space=1
   712                           global __pdataBANK1
   713  00A0                     __pdataBANK1:
   714                           	file	"F:\pic projects\finger voting machine\finger test.c"
   715                           	line	37
   716  00A0                     _Stortemplate:
   717  00A0                            ds      15
   718                           
   719                           psect	dataBANK1
   720                           	file	"F:\pic projects\finger voting machine\finger test.c"
   721                           	line	33
   722  00AF                     _Genchar1:
   723  00AF                            ds      13
   724                           
   725                           psect	dataBANK1
   726                           	file	"F:\pic projects\finger voting machine\finger test.c"
   727                           	line	34
   728  00BC                     _Genchar2:
   729  00BC                            ds      13
   730                           
   731                           psect	dataBANK1
   732                           	file	"F:\pic projects\finger voting machine\finger test.c"
   733                           	line	32
   734  00C9                     _GenImg:
   735  00C9                            ds      12
   736                           
   737                           psect	dataBANK1
   738                           	file	"F:\pic projects\finger voting machine\finger test.c"
   739                           	line	35
   740  00D5                     _Gentemplate:
   741  00D5                            ds      12
   742                           
   743                           psect	dataBANK1
   744                           	file	"F:\pic projects\finger voting machine\finger test.c"
   745                           	line	36
   746  00E1                     _Rdvlidtempl:
   747  00E1                            ds      12
   748                           
   749                           psect	bssBANK3,class=BANK3,space=1
   750                           global __pbssBANK3
   751  0190                     __pbssBANK3:
   752  0190                     _b:
   753  0190                            ds      20
   754                           
   755  01A4                     _c:
   756  01A4                            ds      20
   757                           
   758  01B8                     _d:
   759  01B8                            ds      20
   760                           
   761                           psect	dataBANK3,class=BANK3,space=1
   762                           global __pdataBANK3
   763  01CC                     __pdataBANK3:
   764                           	file	"F:\pic projects\finger voting machine\finger test.c"
   765                           	line	38
   766  01CC                     _Srchtemplate:
   767  01CC                            ds      17
   768                           
   769                           psect	bssBANK2,class=BANK2,space=1
   770                           global __pbssBANK2
   771  0110                     __pbssBANK2:
   772  0110                     _AA:
   773  0110                            ds      25
   774                           
   775  0129                     _bb:
   776  0129                            ds      20
   777                           
   778                           psect clrtext,class=CODE,delta=2
   779                           global clear_ram
   780                           ;	Called with FSR containing the base address, and
   781                           ;	W with the last address+1
   782  07F6                     clear_ram:
   783  07F6  0064               	clrwdt			;clear the watchdog before getting into this loop
   784  07F7                     clrloop:
   785  07F7  0180               	clrf	indf		;clear RAM location pointed to by FSR
   786  07F8  0A84               	incf	fsr,f		;increment pointer
   787  07F9  0604               	xorwf	fsr,w		;XOR with final address
   788  07FA  1903               	btfsc	status,2	;have we reached the end yet?
   789  07FB  3400               	retlw	0		;all done for this memory range, return
   790  07FC  0604               	xorwf	fsr,w		;XOR again to restore value
   791  07FD  2FF7               	goto	clrloop		;do the next byte
   792                           
   793                           ; Clear objects allocated to COMMON
   794                           psect cinit,class=CODE,delta=2
   795  0F39  01F0               	clrf	((__pbssCOMMON)+0)&07Fh
   796  0F3A  01F1               	clrf	((__pbssCOMMON)+1)&07Fh
   797  0F3B  01F2               	clrf	((__pbssCOMMON)+2)&07Fh
   798  0F3C  01F3               	clrf	((__pbssCOMMON)+3)&07Fh
   799  0F3D  01F4               	clrf	((__pbssCOMMON)+4)&07Fh
   800                           ; Clear objects allocated to BANK0
   801                           psect cinit,class=CODE,delta=2
   802  0F3E  1383               	bcf	status, 7	;select IRP bank0
   803  0F3F  3020               	movlw	low(__pbssBANK0)
   804  0F40  0084               	movwf	fsr
   805  0F41  305E               	movlw	low((__pbssBANK0)+03Eh)
   806  0F42  120A  118A  27F6   	fcall	clear_ram
              120A  158A         
   807                           ; Clear objects allocated to BANK3
   808                           psect cinit,class=CODE,delta=2
   809  0F47  1783               	bsf	status, 7	;select IRP bank2
   810  0F48  3090               	movlw	low(__pbssBANK3)
   811  0F49  0084               	movwf	fsr
   812  0F4A  30CC               	movlw	low((__pbssBANK3)+03Ch)
   813  0F4B  120A  118A  27F6   	fcall	clear_ram
              120A  158A         
   814                           ; Clear objects allocated to BANK2
   815                           psect cinit,class=CODE,delta=2
   816  0F50  3010               	movlw	low(__pbssBANK2)
   817  0F51  0084               	movwf	fsr
   818  0F52  303D               	movlw	low((__pbssBANK2)+02Dh)
   819  0F53  120A  118A  27F6   	fcall	clear_ram
              120A  158A         
   820                           global btemp
   821                           psect inittext,class=CODE,delta=2
   822                           global init_fetch,btemp
   823                           ;	Called with low address in FSR and high address in W
   824  0E7E                     init_fetch:
   825  0E7E  087E               	movf btemp,w
   826  0E7F  008A               	movwf pclath
   827  0E80  087F               	movf btemp+1,w
   828  0E81  0082               	movwf pc
   829                           global init_ram
   830                           ;Called with:
   831                           ;	high address of idata address in btemp 
   832                           ;	low address of idata address in btemp+1 
   833                           ;	low address of data in FSR
   834                           ;	high address + 1 of data in btemp-1
   835  0E82                     init_ram:
   836  0E82  120A  158A  267E   	fcall init_fetch
              120A  158A         
   837  0E87  0080               	movwf indf,f
   838  0E88  0A84               	incf fsr,f
   839  0E89  0804               	movf fsr,w
   840  0E8A  067D               	xorwf btemp-1,w
   841  0E8B  1903               	btfsc status,2
   842  0E8C  3400               	retlw 0
   843  0E8D  0AFF               	incf btemp+1,f
   844  0E8E  1903               	btfsc status,2
   845  0E8F  0AFE               	incf btemp,f
   846  0E90  2E82               	goto init_ram
   847                           ; Initialize objects allocated to BANK3
   848                           psect cinit,class=CODE,delta=2
   849                           global init_ram, __pidataBANK3
   850  0F58  30DD               	movlw low(__pdataBANK3+17)
   851  0F59  00FD               	movwf btemp-1,f
   852  0F5A  300E               	movlw high(__pidataBANK3)
   853  0F5B  00FE               	movwf btemp,f
   854  0F5C  305B               	movlw low(__pidataBANK3)
   855  0F5D  00FF               	movwf btemp+1,f
   856  0F5E  30CC               	movlw low(__pdataBANK3)
   857  0F5F  0084               	movwf fsr,f
   858  0F60  120A  158A  2682   	fcall init_ram
              120A  158A         
   859                           ; Initialize objects allocated to BANK1
   860                           psect cinit,class=CODE,delta=2
   861                           global init_ram, __pidataBANK1
   862  0F65  1383               	bcf	status, 7	;select IRP bank0
   863  0F66  30ED               	movlw low(__pdataBANK1+77)
   864  0F67  00FD               	movwf btemp-1,f
   865  0F68  3007               	movlw high(__pidataBANK1)
   866  0F69  00FE               	movwf btemp,f
   867  0F6A  3095               	movlw low(__pidataBANK1)
   868  0F6B  00FF               	movwf btemp+1,f
   869  0F6C  30A0               	movlw low(__pdataBANK1)
   870  0F6D  0084               	movwf fsr,f
   871  0F6E  120A  158A  2682   	fcall init_ram
              120A  158A         
   872                           psect cinit,class=CODE,delta=2
   873                           global end_of_initialization
   874                           
   875                           ;End of C runtime variable initialization code
   876                           
   877  0F73                     end_of_initialization:
   878  0F73  0183               clrf status
   879  0F74  120A  118A  2A7B   ljmp _main	;jump to C main() function
   880                           psect	cstackBANK1,class=BANK1,space=1
   881                           global __pcstackBANK1
   882  00ED                     __pcstackBANK1:
   883                           	global	StorTempl@chksum
   884  00ED                     StorTempl@chksum:	; 1 bytes @ 0x0
   885  00ED                     	ds	1
   886                           	global	StorTempl@addr1
   887  00EE                     StorTempl@addr1:	; 1 bytes @ 0x1
   888  00EE                     	ds	1
   889                           	global	StorTempl@addr2
   890  00EF                     StorTempl@addr2:	; 1 bytes @ 0x2
   891  00EF                     	ds	1
   892                           psect	cstackCOMMON,class=COMMON,space=1
   893                           global __pcstackCOMMON
   894  0075                     __pcstackCOMMON:
   895                           	global	?_uart_init
   896  0075                     ?_uart_init:	; 0 bytes @ 0x0
   897                           	global	?_lcd_init
   898  0075                     ?_lcd_init:	; 0 bytes @ 0x0
   899                           	global	?_StorTempl
   900  0075                     ?_StorTempl:	; 0 bytes @ 0x0
   901                           	global	?_SrchFinger
   902  0075                     ?_SrchFinger:	; 0 bytes @ 0x0
   903                           	global	?_errorDisplay
   904  0075                     ?_errorDisplay:	; 0 bytes @ 0x0
   905                           	global	?_main
   906  0075                     ?_main:	; 0 bytes @ 0x0
   907                           	global	?_TX
   908  0075                     ?_TX:	; 0 bytes @ 0x0
   909                           	global	?_receive
   910  0075                     ?_receive:	; 0 bytes @ 0x0
   911                           	global	??_receive
   912  0075                     ??_receive:	; 0 bytes @ 0x0
   913                           	global	?_lcd_init_write
   914  0075                     ?_lcd_init_write:	; 0 bytes @ 0x0
   915                           	global	?_Readfinger
   916  0075                     ?_Readfinger:	; 0 bytes @ 0x0
   917                           	global	?_storChar1
   918  0075                     ?_storChar1:	; 0 bytes @ 0x0
   919                           	global	?_storChar2
   920  0075                     ?_storChar2:	; 0 bytes @ 0x0
   921  0075                     	ds	5
   922                           psect	cstackBANK0,class=BANK0,space=1
   923                           global __pcstackBANK0
   924  005E                     __pcstackBANK0:
   925                           	global	??_uart_init
   926  005E                     ??_uart_init:	; 0 bytes @ 0x0
   927                           	global	?_delay
   928  005E                     ?_delay:	; 0 bytes @ 0x0
   929                           	global	??_TX
   930  005E                     ??_TX:	; 0 bytes @ 0x0
   931                           	global	TX@TX_BYTE
   932  005E                     TX@TX_BYTE:	; 1 bytes @ 0x0
   933                           	global	delay@d
   934  005E                     delay@d:	; 2 bytes @ 0x0
   935  005E                     	ds	2
   936                           	global	??_delay
   937  0060                     ??_delay:	; 0 bytes @ 0x2
   938                           	global	delay@h
   939  0060                     delay@h:	; 2 bytes @ 0x2
   940  0060                     	ds	2
   941                           	global	delay@k
   942  0062                     delay@k:	; 2 bytes @ 0x4
   943  0062                     	ds	2
   944                           	global	?_lcdcmd
   945  0064                     ?_lcdcmd:	; 0 bytes @ 0x6
   946                           	global	?_lcddata
   947  0064                     ?_lcddata:	; 0 bytes @ 0x6
   948                           	global	??_lcd_init_write
   949  0064                     ??_lcd_init_write:	; 0 bytes @ 0x6
   950                           	global	?_Sendstring
   951  0064                     ?_Sendstring:	; 0 bytes @ 0x6
   952                           	global	lcd_init_write@a
   953  0064                     lcd_init_write@a:	; 1 bytes @ 0x6
   954                           	global	lcdcmd@value
   955  0064                     lcdcmd@value:	; 2 bytes @ 0x6
   956                           	global	lcddata@value
   957  0064                     lcddata@value:	; 2 bytes @ 0x6
   958                           	global	Sendstring@strng
   959  0064                     Sendstring@strng:	; 2 bytes @ 0x6
   960  0064                     	ds	2
   961                           	global	??_lcdcmd
   962  0066                     ??_lcdcmd:	; 0 bytes @ 0x8
   963                           	global	??_lcddata
   964  0066                     ??_lcddata:	; 0 bytes @ 0x8
   965                           	global	Sendstring@length
   966  0066                     Sendstring@length:	; 1 bytes @ 0x8
   967  0066                     	ds	1
   968                           	global	??_Sendstring
   969  0067                     ??_Sendstring:	; 0 bytes @ 0x9
   970  0067                     	ds	1
   971                           	global	lcdcmd@temp
   972  0068                     lcdcmd@temp:	; 1 bytes @ 0xA
   973                           	global	lcddata@temp
   974  0068                     lcddata@temp:	; 1 bytes @ 0xA
   975  0068                     	ds	1
   976                           	global	??_lcd_init
   977  0069                     ??_lcd_init:	; 0 bytes @ 0xB
   978                           	global	?_display
   979  0069                     ?_display:	; 0 bytes @ 0xB
   980                           	global	display@p
   981  0069                     display@p:	; 2 bytes @ 0xB
   982  0069                     	ds	1
   983                           	global	??_Readfinger
   984  006A                     ??_Readfinger:	; 0 bytes @ 0xC
   985                           	global	??_storChar1
   986  006A                     ??_storChar1:	; 0 bytes @ 0xC
   987                           	global	??_storChar2
   988  006A                     ??_storChar2:	; 0 bytes @ 0xC
   989  006A                     	ds	1
   990                           	global	??_display
   991  006B                     ??_display:	; 0 bytes @ 0xD
   992  006B                     	ds	2
   993                           	global	??_StorTempl
   994  006D                     ??_StorTempl:	; 0 bytes @ 0xF
   995                           	global	??_SrchFinger
   996  006D                     ??_SrchFinger:	; 0 bytes @ 0xF
   997                           	global	??_errorDisplay
   998  006D                     ??_errorDisplay:	; 0 bytes @ 0xF
   999  006D                     	ds	1
  1000                           	global	??_main
  1001  006E                     ??_main:	; 0 bytes @ 0x10
  1002 ;;Data sizes: Strings 266, constant 0, data 94, bss 172, persistent 0 stack 0
  1003 ;;Auto spaces:   Size  Autos    Used
  1004 ;; COMMON          14      5      10
  1005 ;; BANK0           80     16      78
  1006 ;; BANK1           80      3      80
  1007 ;; BANK3           96      0      77
  1008 ;; BANK2           96      0      45
  1009                           
  1010 ;;
  1011 ;; Pointer list with targets:
  1012                           
  1013 ;; Sendstring@strng	PTR unsigned char  size(2) Largest target is 17
  1014 ;;		 -> Srchtemplate(BANK3[17]), Rdvlidtempl(BANK1[12]), Gentemplate(BANK1[12]), Genchar2(BANK1[13]), 
  1015 ;;		 -> Genchar1(BANK1[13]), GenImg(BANK1[12]), 
  1016 ;;
  1017 ;; display@p	PTR unsigned char  size(2) Largest target is 17
  1018 ;;		 -> STR_23(CODE[9]), STR_22(CODE[13]), STR_21(CODE[16]), STR_20(CODE[14]), 
  1019 ;;		 -> STR_19(CODE[14]), STR_18(CODE[9]), STR_17(CODE[14]), STR_16(CODE[10]), 
  1020 ;;		 -> STR_15(CODE[17]), STR_14(CODE[17]), STR_13(CODE[17]), STR_12(CODE[14]), 
  1021 ;;		 -> STR_11(CODE[13]), STR_10(CODE[17]), STR_9(CODE[17]), STR_8(CODE[14]), 
  1022 ;;		 -> STR_7(CODE[13]), STR_6(CODE[17]), STR_5(CODE[17]), STR_4(CODE[17]), 
  1023 ;;		 -> STR_3(CODE[17]), STR_2(CODE[17]), STR_1(CODE[17]), 
  1024 ;;
  1025                           
  1026                           
  1027 ;;
  1028 ;; Critical Paths under _main in COMMON
  1029 ;;
  1030 ;;   None.
  1031 ;;
  1032 ;; Critical Paths under _receive in COMMON
  1033 ;;
  1034 ;;   None.
  1035 ;;
  1036 ;; Critical Paths under _main in BANK0
  1037 ;;
  1038 ;;   _main->_StorTempl
  1039 ;;   _main->_SrchFinger
  1040 ;;   _SrchFinger->_display
  1041 ;;   _StorTempl->_display
  1042 ;;   _errorDisplay->_display
  1043 ;;   _storChar2->_Sendstring
  1044 ;;   _storChar1->_Sendstring
  1045 ;;   _Readfinger->_Sendstring
  1046 ;;   _display->_lcddata
  1047 ;;   _lcd_init->_lcdcmd
  1048 ;;   _Sendstring->_delay
  1049 ;;   _lcd_init_write->_delay
  1050 ;;   _lcddata->_delay
  1051 ;;   _lcdcmd->_delay
  1052 ;;
  1053 ;; Critical Paths under _receive in BANK0
  1054 ;;
  1055 ;;   None.
  1056 ;;
  1057 ;; Critical Paths under _main in BANK1
  1058 ;;
  1059 ;;   _main->_StorTempl
  1060 ;;
  1061 ;; Critical Paths under _receive in BANK1
  1062 ;;
  1063 ;;   None.
  1064 ;;
  1065 ;; Critical Paths under _main in BANK3
  1066 ;;
  1067 ;;   None.
  1068 ;;
  1069 ;; Critical Paths under _receive in BANK3
  1070 ;;
  1071 ;;   None.
  1072 ;;
  1073 ;; Critical Paths under _main in BANK2
  1074 ;;
  1075 ;;   None.
  1076 ;;
  1077 ;; Critical Paths under _receive in BANK2
  1078 ;;
  1079 ;;   None.
  1080                           
  1081 ;;
  1082 ;;Main: autosize = 0, tempsize = 0, incstack = 0, save=0
  1083 ;;
  1084                           
  1085 ;;
  1086 ;;Call Graph Tables:
  1087 ;;
  1088 ;; ---------------------------------------------------------------------------------
  1089 ;; (Depth) Function   	        Calls       Base Space   Used Autos Params    Refs
  1090 ;; ---------------------------------------------------------------------------------
  1091 ;; (0) _main                                                 0     0      0    7007
  1092 ;;                          _uart_init
  1093 ;;                           _lcd_init
  1094 ;;                          _StorTempl
  1095 ;;                             _lcdcmd
  1096 ;;                            _display
  1097 ;;                              _delay
  1098 ;;                         _SrchFinger
  1099 ;; ---------------------------------------------------------------------------------
  1100 ;; (1) _SrchFinger                                           1     1      0    2678
  1101 ;;                                             15 BANK0      1     1      0
  1102 ;;                         _Readfinger
  1103 ;;                          _storChar1
  1104 ;;                          _storChar2
  1105 ;;                         _Sendstring
  1106 ;;                             _lcdcmd
  1107 ;;                              _delay
  1108 ;;                            _display
  1109 ;;                       _errorDisplay
  1110 ;; ---------------------------------------------------------------------------------
  1111 ;; (1) _StorTempl                                            4     4      0    2873
  1112 ;;                                             15 BANK0      1     1      0
  1113 ;;                                              0 BANK1      3     3      0
  1114 ;;                             _lcdcmd
  1115 ;;                              _delay
  1116 ;;                            _display
  1117 ;;                         _Readfinger
  1118 ;;                          _storChar1
  1119 ;;                          _storChar2
  1120 ;;                         _Sendstring
  1121 ;;                                 _TX
  1122 ;;                       _errorDisplay
  1123 ;; ---------------------------------------------------------------------------------
  1124 ;; (2) _errorDisplay                                         0     0      0     881
  1125 ;;                             _lcdcmd
  1126 ;;                              _delay
  1127 ;;                            _display
  1128 ;; ---------------------------------------------------------------------------------
  1129 ;; (2) _storChar2                                            1     1      0     229
  1130 ;;                                             12 BANK0      1     1      0
  1131 ;;                         _Sendstring
  1132 ;; ---------------------------------------------------------------------------------
  1133 ;; (2) _storChar1                                            1     1      0     229
  1134 ;;                                             12 BANK0      1     1      0
  1135 ;;                         _Sendstring
  1136 ;; ---------------------------------------------------------------------------------
  1137 ;; (2) _Readfinger                                           1     1      0     229
  1138 ;;                                             12 BANK0      1     1      0
  1139 ;;                         _Sendstring
  1140 ;; ---------------------------------------------------------------------------------
  1141 ;; (3) _display                                              4     2      2     473
  1142 ;;                                             11 BANK0      4     2      2
  1143 ;;                            _lcddata
  1144 ;;                              _delay
  1145 ;; ---------------------------------------------------------------------------------
  1146 ;; (1) _lcd_init                                             0     0      0     575
  1147 ;;                              _delay
  1148 ;;                     _lcd_init_write
  1149 ;;                             _lcdcmd
  1150 ;; ---------------------------------------------------------------------------------
  1151 ;; (2) _Sendstring                                           6     3      3     229
  1152 ;;                                              6 BANK0      6     3      3
  1153 ;;                                 _TX
  1154 ;;                              _delay
  1155 ;; ---------------------------------------------------------------------------------
  1156 ;; (2) _lcd_init_write                                       1     1      0     167
  1157 ;;                                              6 BANK0      1     1      0
  1158 ;;                              _delay
  1159 ;; ---------------------------------------------------------------------------------
  1160 ;; (4) _lcddata                                              5     3      2     272
  1161 ;;                                              6 BANK0      5     3      2
  1162 ;;                              _delay
  1163 ;; ---------------------------------------------------------------------------------
  1164 ;; (3) _lcdcmd                                               5     3      2     272
  1165 ;;                                              6 BANK0      5     3      2
  1166 ;;                              _delay
  1167 ;; ---------------------------------------------------------------------------------
  1168 ;; (3) _TX                                                   1     1      0      31
  1169 ;;                                              0 BANK0      1     1      0
  1170 ;; ---------------------------------------------------------------------------------
  1171 ;; (4) _delay                                                6     4      2     136
  1172 ;;                                              0 BANK0      6     4      2
  1173 ;; ---------------------------------------------------------------------------------
  1174 ;; (1) _uart_init                                            0     0      0       0
  1175 ;; ---------------------------------------------------------------------------------
  1176 ;; Estimated maximum stack depth 4
  1177 ;; ---------------------------------------------------------------------------------
  1178 ;; (Depth) Function   	        Calls       Base Space   Used Autos Params    Refs
  1179 ;; ---------------------------------------------------------------------------------
  1180 ;; (6) _receive                                              7     7      0       0
  1181 ;;                                              0 COMMON     5     5      0
  1182 ;; ---------------------------------------------------------------------------------
  1183 ;; Estimated maximum stack depth 6
  1184 ;; ---------------------------------------------------------------------------------
  1185                           
  1186 ;; Call Graph Graphs:
  1187                           
  1188 ;; _main (ROOT)
  1189 ;;   _uart_init
  1190 ;;   _lcd_init
  1191 ;;     _delay
  1192 ;;     _lcd_init_write
  1193 ;;       _delay
  1194 ;;     _lcdcmd
  1195 ;;       _delay
  1196 ;;   _StorTempl
  1197 ;;     _lcdcmd
  1198 ;;       _delay
  1199 ;;     _delay
  1200 ;;     _display
  1201 ;;       _lcddata
  1202 ;;         _delay
  1203 ;;       _delay
  1204 ;;     _Readfinger
  1205 ;;       _Sendstring
  1206 ;;         _TX
  1207 ;;         _delay
  1208 ;;     _storChar1
  1209 ;;       _Sendstring
  1210 ;;         _TX
  1211 ;;         _delay
  1212 ;;     _storChar2
  1213 ;;       _Sendstring
  1214 ;;         _TX
  1215 ;;         _delay
  1216 ;;     _Sendstring
  1217 ;;       _TX
  1218 ;;       _delay
  1219 ;;     _TX
  1220 ;;     _errorDisplay
  1221 ;;       _lcdcmd
  1222 ;;         _delay
  1223 ;;       _delay
  1224 ;;       _display
  1225 ;;         _lcddata
  1226 ;;           _delay
  1227 ;;         _delay
  1228 ;;   _lcdcmd
  1229 ;;     _delay
  1230 ;;   _display
  1231 ;;     _lcddata
  1232 ;;       _delay
  1233 ;;     _delay
  1234 ;;   _delay
  1235 ;;   _SrchFinger
  1236 ;;     _Readfinger
  1237 ;;       _Sendstring
  1238 ;;         _TX
  1239 ;;         _delay
  1240 ;;     _storChar1
  1241 ;;       _Sendstring
  1242 ;;         _TX
  1243 ;;         _delay
  1244 ;;     _storChar2
  1245 ;;       _Sendstring
  1246 ;;         _TX
  1247 ;;         _delay
  1248 ;;     _Sendstring
  1249 ;;       _TX
  1250 ;;       _delay
  1251 ;;     _lcdcmd
  1252 ;;       _delay
  1253 ;;     _delay
  1254 ;;     _display
  1255 ;;       _lcddata
  1256 ;;         _delay
  1257 ;;       _delay
  1258 ;;     _errorDisplay
  1259 ;;       _lcdcmd
  1260 ;;         _delay
  1261 ;;       _delay
  1262 ;;       _display
  1263 ;;         _lcddata
  1264 ;;           _delay
  1265 ;;         _delay
  1266 ;;
  1267 ;; _receive (ROOT)
  1268 ;;
  1269                           
  1270 ;; Address spaces:
  1271                           
  1272 ;;Name               Size   Autos  Total    Cost      Usage
  1273 ;;BANK3               60      0      4D       9       80.2%
  1274 ;;BITBANK3            60      0       0       8        0.0%
  1275 ;;SFR3                 0      0       0       4        0.0%
  1276 ;;BITSFR3              0      0       0       4        0.0%
  1277 ;;BANK2               60      0      2D      11       46.9%
  1278 ;;BITBANK2            60      0       0      10        0.0%
  1279 ;;SFR2                 0      0       0       5        0.0%
  1280 ;;BITSFR2              0      0       0       5        0.0%
  1281 ;;SFR1                 0      0       0       2        0.0%
  1282 ;;BITSFR1              0      0       0       2        0.0%
  1283 ;;BANK1               50      3      50       7      100.0%
  1284 ;;BITBANK1            50      0       0       6        0.0%
  1285 ;;CODE                 0      0       0       0        0.0%
  1286 ;;DATA                 0      0     127      12        0.0%
  1287 ;;ABS                  0      0     122       3        0.0%
  1288 ;;NULL                 0      0       0       0        0.0%
  1289 ;;STACK                0      0       5       2        0.0%
  1290 ;;BANK0               50     10      4E       5       97.5%
  1291 ;;BITBANK0            50      0       0       4        0.0%
  1292 ;;SFR0                 0      0       0       1        0.0%
  1293 ;;BITSFR0              0      0       0       1        0.0%
  1294 ;;COMMON               E      5       A       1       71.4%
  1295 ;;BITCOMMON            E      0       0       0        0.0%
  1296 ;;EEDATA             100      0       0       0        0.0%
  1297                           
  1298                           	global	_main
  1299                           psect	maintext,global,class=CODE,delta=2
  1300                           global __pmaintext
  1301  027B                     __pmaintext:
  1302                           
  1303 ;; *************** function _main *****************
  1304 ;; Defined at:
  1305 ;;		line 48 in file "F:\pic projects\finger voting machine\finger test.c"
  1306 ;; Parameters:    Size  Location     Type
  1307 ;;		None
  1308 ;; Auto vars:     Size  Location     Type
  1309 ;;		None
  1310 ;; Return value:  Size  Location     Type
  1311 ;;		None               void
  1312 ;; Registers used:
  1313 ;;		wreg, fsr0l, fsr0h, status,2, status,0, btemp+1, pclath, cstack
  1314 ;; Tracked objects:
  1315 ;;		On entry : 17F/0
  1316 ;;		On exit  : 0/0
  1317 ;;		Unchanged: 0/0
  1318 ;; Data sizes:     COMMON   BANK0   BANK1   BANK3   BANK2
  1319 ;;      Params:         0       0       0       0       0
  1320 ;;      Locals:         0       0       0       0       0
  1321 ;;      Temps:          0       0       0       0       0
  1322 ;;      Totals:         0       0       0       0       0
  1323 ;;Total ram usage:        0 bytes
  1324 ;; Hardware stack levels required when called:    6
  1325 ;; This function calls:
  1326 ;;		_uart_init
  1327 ;;		_lcd_init
  1328 ;;		_StorTempl
  1329 ;;		_lcdcmd
  1330 ;;		_display
  1331 ;;		_delay
  1332 ;;		_SrchFinger
  1333 ;; This function is called by:
  1334 ;;		Startup code after reset
  1335 ;; This function uses a non-reentrant model
  1336 ;;
  1337                           psect	maintext
  1338                           	file	"F:\pic projects\finger voting machine\finger test.c"
  1339                           	line	48
  1340                           	global	__size_of_main
  1341  01EC                     	__size_of_main	equ	__end_of_main-_main
  1342                           	
  1343  027B                     _main:	
  1344                           	opt	stack 2
  1345                           ; Regs used in _main: [wreg-fsr0h+status,2+status,0+btemp+1+pclath+cstack]
  1346                           	line	50
  1347                           	
  1348  027B                     l4022:	
  1349                           ;finger test.c: 50: TRISB=0X00;
  1350  027B  1683               	bsf	status, 5	;RP0=1, select bank1
  1351  027C  1303               	bcf	status, 6	;RP1=0, select bank1
  1352  027D  0186               	clrf	(134)^080h	;volatile
  1353                           	line	51
  1354                           ;finger test.c: 51: TRISD=0x00;
  1355  027E  0188               	clrf	(136)^080h	;volatile
  1356                           	line	52
  1357                           	
  1358  027F                     l4024:	
  1359                           ;finger test.c: 52: TRISC=0X0F;
  1360  027F  300F               	movlw	(0Fh)
  1361  0280  0087               	movwf	(135)^080h	;volatile
  1362                           	line	53
  1363                           	
  1364  0281                     l4026:	
  1365                           ;finger test.c: 53: PORTB=0X00;
  1366  0281  1283               	bcf	status, 5	;RP0=0, select bank0
  1367  0282  1303               	bcf	status, 6	;RP1=0, select bank0
  1368  0283  0186               	clrf	(6)	;volatile
  1369                           	line	54
  1370                           	
  1371  0284                     l4028:	
  1372                           ;finger test.c: 54: RD2=0;
  1373  0284  1108               	bcf	(66/8),(66)&7
  1374                           	line	55
  1375                           	
  1376  0285                     l4030:	
  1377                           ;finger test.c: 55: RD3=0;
  1378  0285  1188               	bcf	(67/8),(67)&7
  1379                           	line	57
  1380                           	
  1381  0286                     l4032:	
  1382                           ;finger test.c: 57: uart_init();
  1383  0286  120A  158A  266C   	fcall	_uart_init
              120A  118A         
  1384                           	line	66
  1385                           	
  1386  028B                     l4034:	
  1387                           ;finger test.c: 66: lcd_init();
  1388  028B  120A  118A  270A   	fcall	_lcd_init
              120A  118A         
  1389                           	line	67
  1390                           	
  1391  0290                     l4036:	
  1392                           ;finger test.c: 67: if(RC0==0)
  1393  0290  1283               	bcf	status, 5	;RP0=0, select bank0
  1394  0291  1303               	bcf	status, 6	;RP1=0, select bank0
  1395  0292  1807               	btfsc	(56/8),(56)&7
  1396  0293  2A95               	goto	u3921
  1397  0294  2A96               	goto	u3920
  1398  0295                     u3921:
  1399  0295  2AA3               	goto	l4042
  1400  0296                     u3920:
  1401  0296  2A98               	goto	l754
  1402                           	line	69
  1403                           	
  1404  0297                     l4038:	
  1405                           ;finger test.c: 68: {
  1406                           ;finger test.c: 69: while(RC0==0);
  1407  0297  2A98               	goto	l754
  1408                           	
  1409  0298                     l755:	
  1410                           	
  1411  0298                     l754:	
  1412  0298  1C07               	btfss	(56/8),(56)&7
  1413  0299  2A9B               	goto	u3931
  1414  029A  2A9C               	goto	u3930
  1415  029B                     u3931:
  1416  029B  2A98               	goto	l754
  1417  029C                     u3930:
  1418  029C  2A9D               	goto	l4040
  1419                           	
  1420  029D                     l756:	
  1421                           	line	71
  1422                           	
  1423  029D                     l4040:	
  1424                           ;finger test.c: 71: StorTempl();
  1425  029D  120A  118A  2015   	fcall	_StorTempl
              120A  118A         
  1426  02A2  2AA3               	goto	l4042
  1427                           	line	73
  1428                           	
  1429  02A3                     l753:	
  1430                           	line	75
  1431                           	
  1432  02A3                     l4042:	
  1433                           ;finger test.c: 73: }
  1434                           ;finger test.c: 75: lcdcmd(0x80);
  1435  02A3  3080               	movlw	low(080h)
  1436  02A4  1283               	bcf	status, 5	;RP0=0, select bank0
  1437  02A5  1303               	bcf	status, 6	;RP1=0, select bank0
  1438  02A6  00E4               	movwf	(?_lcdcmd)
  1439  02A7  3000               	movlw	high(080h)
  1440  02A8  00E5               	movwf	((?_lcdcmd))+1
  1441  02A9  120A  158A  27B8   	fcall	_lcdcmd
              120A  118A         
  1442                           	line	76
  1443                           	
  1444  02AE                     l4044:	
  1445                           ;finger test.c: 76: display("   biometric    ");
  1446  02AE  3000               	movlw	low(STR_1|8000h)
  1447  02AF  1283               	bcf	status, 5	;RP0=0, select bank0
  1448  02B0  1303               	bcf	status, 6	;RP1=0, select bank0
  1449  02B1  00E9               	movwf	(?_display)
  1450  02B2  3086               	movlw	high(STR_1|8000h)
  1451  02B3  00EA               	movwf	((?_display))+1
  1452  02B4  120A  158A  26FC   	fcall	_display
              120A  118A         
  1453                           	line	77
  1454                           ;finger test.c: 77: lcdcmd(0xc0);
  1455  02B9  30C0               	movlw	low(0C0h)
  1456  02BA  1283               	bcf	status, 5	;RP0=0, select bank0
  1457  02BB  1303               	bcf	status, 6	;RP1=0, select bank0
  1458  02BC  00E4               	movwf	(?_lcdcmd)
  1459  02BD  3000               	movlw	high(0C0h)
  1460  02BE  00E5               	movwf	((?_lcdcmd))+1
  1461  02BF  120A  158A  27B8   	fcall	_lcdcmd
              120A  118A         
  1462                           	line	78
  1463                           	
  1464  02C4                     l4046:	
  1465                           ;finger test.c: 78: display("door lock system");
  1466  02C4  3066               	movlw	low(STR_2|8000h)
  1467  02C5  1283               	bcf	status, 5	;RP0=0, select bank0
  1468  02C6  1303               	bcf	status, 6	;RP1=0, select bank0
  1469  02C7  00E9               	movwf	(?_display)
  1470  02C8  3086               	movlw	high(STR_2|8000h)
  1471  02C9  00EA               	movwf	((?_display))+1
  1472  02CA  120A  158A  26FC   	fcall	_display
              120A  118A         
  1473                           	line	79
  1474                           	
  1475  02CF                     l4048:	
  1476                           ;finger test.c: 79: delay(10);
  1477  02CF  300A               	movlw	low(0Ah)
  1478  02D0  1283               	bcf	status, 5	;RP0=0, select bank0
  1479  02D1  1303               	bcf	status, 6	;RP1=0, select bank0
  1480  02D2  00DE               	movwf	(?_delay)
  1481  02D3  3000               	movlw	high(0Ah)
  1482  02D4  00DF               	movwf	((?_delay))+1
  1483  02D5  120A  158A  2691   	fcall	_delay
              120A  118A         
  1484                           	line	82
  1485                           	
  1486  02DA                     l4050:	
  1487                           ;finger test.c: 82: delay(150);
  1488  02DA  3096               	movlw	low(096h)
  1489  02DB  1283               	bcf	status, 5	;RP0=0, select bank0
  1490  02DC  1303               	bcf	status, 6	;RP1=0, select bank0
  1491  02DD  00DE               	movwf	(?_delay)
  1492  02DE  3000               	movlw	high(096h)
  1493  02DF  00DF               	movwf	((?_delay))+1
  1494  02E0  120A  158A  2691   	fcall	_delay
              120A  118A         
  1495  02E5  2AE6               	goto	l4052
  1496                           	line	83
  1497                           ;finger test.c: 83: while(1)
  1498                           	
  1499  02E6                     l757:	
  1500                           	line	86
  1501                           	
  1502  02E6                     l4052:	
  1503                           ;finger test.c: 84: {
  1504                           ;finger test.c: 86: lcdcmd(0x80);
  1505  02E6  3080               	movlw	low(080h)
  1506  02E7  1283               	bcf	status, 5	;RP0=0, select bank0
  1507  02E8  1303               	bcf	status, 6	;RP1=0, select bank0
  1508  02E9  00E4               	movwf	(?_lcdcmd)
  1509  02EA  3000               	movlw	high(080h)
  1510  02EB  00E5               	movwf	((?_lcdcmd))+1
  1511  02EC  120A  158A  27B8   	fcall	_lcdcmd
              120A  118A         
  1512                           	line	87
  1513                           ;finger test.c: 87: display("   biometric    ");
  1514  02F1  3000               	movlw	low(STR_3|8000h)
  1515  02F2  1283               	bcf	status, 5	;RP0=0, select bank0
  1516  02F3  1303               	bcf	status, 6	;RP1=0, select bank0
  1517  02F4  00E9               	movwf	(?_display)
  1518  02F5  3086               	movlw	high(STR_3|8000h)
  1519  02F6  00EA               	movwf	((?_display))+1
  1520  02F7  120A  158A  26FC   	fcall	_display
              120A  118A         
  1521                           	line	88
  1522                           	
  1523  02FC                     l4054:	
  1524                           ;finger test.c: 88: lcdcmd(0xc0);
  1525  02FC  30C0               	movlw	low(0C0h)
  1526  02FD  1283               	bcf	status, 5	;RP0=0, select bank0
  1527  02FE  1303               	bcf	status, 6	;RP1=0, select bank0
  1528  02FF  00E4               	movwf	(?_lcdcmd)
  1529  0300  3000               	movlw	high(0C0h)
  1530  0301  00E5               	movwf	((?_lcdcmd))+1
  1531  0302  120A  158A  27B8   	fcall	_lcdcmd
              120A  118A         
  1532                           	line	89
  1533                           	
  1534  0307                     l4056:	
  1535                           ;finger test.c: 89: display("door lock system");
  1536  0307  3066               	movlw	low(STR_4|8000h)
  1537  0308  1283               	bcf	status, 5	;RP0=0, select bank0
  1538  0309  1303               	bcf	status, 6	;RP1=0, select bank0
  1539  030A  00E9               	movwf	(?_display)
  1540  030B  3086               	movlw	high(STR_4|8000h)
  1541  030C  00EA               	movwf	((?_display))+1
  1542  030D  120A  158A  26FC   	fcall	_display
              120A  118A         
  1543                           	line	90
  1544                           ;finger test.c: 90: delay(10);
  1545  0312  300A               	movlw	low(0Ah)
  1546  0313  1283               	bcf	status, 5	;RP0=0, select bank0
  1547  0314  1303               	bcf	status, 6	;RP1=0, select bank0
  1548  0315  00DE               	movwf	(?_delay)
  1549  0316  3000               	movlw	high(0Ah)
  1550  0317  00DF               	movwf	((?_delay))+1
  1551  0318  120A  158A  2691   	fcall	_delay
              120A  118A         
  1552                           	line	110
  1553                           	
  1554  031D                     l4058:	
  1555                           ;finger test.c: 110: if(RC2==0)
  1556  031D  1283               	bcf	status, 5	;RP0=0, select bank0
  1557  031E  1303               	bcf	status, 6	;RP1=0, select bank0
  1558  031F  1907               	btfsc	(58/8),(58)&7
  1559  0320  2B22               	goto	u3941
  1560  0321  2B23               	goto	u3940
  1561  0322                     u3941:
  1562  0322  2BBF               	goto	l4092
  1563  0323                     u3940:
  1564                           	line	112
  1565                           	
  1566  0323                     l4060:	
  1567                           ;finger test.c: 111: {
  1568                           ;finger test.c: 112: lcdcmd(0x80);
  1569  0323  3080               	movlw	low(080h)
  1570  0324  00E4               	movwf	(?_lcdcmd)
  1571  0325  3000               	movlw	high(080h)
  1572  0326  00E5               	movwf	((?_lcdcmd))+1
  1573  0327  120A  158A  27B8   	fcall	_lcdcmd
              120A  118A         
  1574                           	line	113
  1575                           	
  1576  032C                     l4062:	
  1577                           ;finger test.c: 113: display("  enter finger  ");
  1578  032C  3022               	movlw	low(STR_5|8000h)
  1579  032D  1283               	bcf	status, 5	;RP0=0, select bank0
  1580  032E  1303               	bcf	status, 6	;RP1=0, select bank0
  1581  032F  00E9               	movwf	(?_display)
  1582  0330  3086               	movlw	high(STR_5|8000h)
  1583  0331  00EA               	movwf	((?_display))+1
  1584  0332  120A  158A  26FC   	fcall	_display
              120A  118A         
  1585                           	line	114
  1586                           	
  1587  0337                     l4064:	
  1588                           ;finger test.c: 114: lcdcmd(0xC0);
  1589  0337  30C0               	movlw	low(0C0h)
  1590  0338  1283               	bcf	status, 5	;RP0=0, select bank0
  1591  0339  1303               	bcf	status, 6	;RP1=0, select bank0
  1592  033A  00E4               	movwf	(?_lcdcmd)
  1593  033B  3000               	movlw	high(0C0h)
  1594  033C  00E5               	movwf	((?_lcdcmd))+1
  1595  033D  120A  158A  27B8   	fcall	_lcdcmd
              120A  118A         
  1596                           	line	115
  1597                           ;finger test.c: 115: display(" for close door ");
  1598  0342  3044               	movlw	low(STR_6|8000h)
  1599  0343  1283               	bcf	status, 5	;RP0=0, select bank0
  1600  0344  1303               	bcf	status, 6	;RP1=0, select bank0
  1601  0345  00E9               	movwf	(?_display)
  1602  0346  3086               	movlw	high(STR_6|8000h)
  1603  0347  00EA               	movwf	((?_display))+1
  1604  0348  120A  158A  26FC   	fcall	_display
              120A  118A         
  1605                           	line	116
  1606                           ;finger test.c: 116: while(RC2==0);
  1607  034D  2B4E               	goto	l759
  1608                           	
  1609  034E                     l760:	
  1610                           	
  1611  034E                     l759:	
  1612  034E  1283               	bcf	status, 5	;RP0=0, select bank0
  1613  034F  1303               	bcf	status, 6	;RP1=0, select bank0
  1614  0350  1D07               	btfss	(58/8),(58)&7
  1615  0351  2B53               	goto	u3951
  1616  0352  2B54               	goto	u3950
  1617  0353                     u3951:
  1618  0353  2B4E               	goto	l759
  1619  0354                     u3950:
  1620  0354  2B55               	goto	l4066
  1621                           	
  1622  0355                     l761:	
  1623                           	line	117
  1624                           	
  1625  0355                     l4066:	
  1626                           ;finger test.c: 117: SrchFinger();
  1627  0355  120A  118A  2467   	fcall	_SrchFinger
              120A  118A         
  1628                           	line	118
  1629                           	
  1630  035A                     l4068:	
  1631                           ;finger test.c: 118: if(chk==1)
  1632  035A  1283               	bcf	status, 5	;RP0=0, select bank0
  1633  035B  1303               	bcf	status, 6	;RP1=0, select bank0
  1634  035C  085D               	movf	(_chk),w
  1635  035D  3A01               	xorlw	01h
  1636  035E  1D03               	skipz
  1637  035F  2B61               	goto	u3961
  1638  0360  2B62               	goto	u3960
  1639  0361                     u3961:
  1640  0361  2B94               	goto	l4086
  1641  0362                     u3960:
  1642                           	line	120
  1643                           	
  1644  0362                     l4070:	
  1645                           ;finger test.c: 119: {
  1646                           ;finger test.c: 120: lcdcmd(0x01);
  1647  0362  3001               	movlw	low(01h)
  1648  0363  00E4               	movwf	(?_lcdcmd)
  1649  0364  3000               	movlw	high(01h)
  1650  0365  00E5               	movwf	((?_lcdcmd))+1
  1651  0366  120A  158A  27B8   	fcall	_lcdcmd
              120A  118A         
  1652                           	line	121
  1653                           ;finger test.c: 121: lcdcmd(0x80);
  1654  036B  3080               	movlw	low(080h)
  1655  036C  1283               	bcf	status, 5	;RP0=0, select bank0
  1656  036D  1303               	bcf	status, 6	;RP1=0, select bank0
  1657  036E  00E4               	movwf	(?_lcdcmd)
  1658  036F  3000               	movlw	high(080h)
  1659  0370  00E5               	movwf	((?_lcdcmd))+1
  1660  0371  120A  158A  27B8   	fcall	_lcdcmd
              120A  118A         
  1661                           	line	122
  1662                           	
  1663  0376                     l4072:	
  1664                           ;finger test.c: 122: display("door closing");
  1665  0376  30EA               	movlw	low(STR_7|8000h)
  1666  0377  1283               	bcf	status, 5	;RP0=0, select bank0
  1667  0378  1303               	bcf	status, 6	;RP1=0, select bank0
  1668  0379  00E9               	movwf	(?_display)
  1669  037A  3086               	movlw	high(STR_7|8000h)
  1670  037B  00EA               	movwf	((?_display))+1
  1671  037C  120A  158A  26FC   	fcall	_display
              120A  118A         
  1672                           	line	123
  1673                           	
  1674  0381                     l4074:	
  1675                           ;finger test.c: 123: chk=0;
  1676  0381  1283               	bcf	status, 5	;RP0=0, select bank0
  1677  0382  1303               	bcf	status, 6	;RP1=0, select bank0
  1678  0383  01DD               	clrf	(_chk)
  1679                           	line	124
  1680                           	
  1681  0384                     l4076:	
  1682                           ;finger test.c: 124: RD2=0;
  1683  0384  1108               	bcf	(66/8),(66)&7
  1684                           	line	125
  1685                           	
  1686  0385                     l4078:	
  1687                           ;finger test.c: 125: RD3=1;
  1688  0385  1588               	bsf	(67/8),(67)&7
  1689                           	line	126
  1690                           	
  1691  0386                     l4080:	
  1692                           ;finger test.c: 126: delay(1000);
  1693  0386  30E8               	movlw	low(03E8h)
  1694  0387  00DE               	movwf	(?_delay)
  1695  0388  3003               	movlw	high(03E8h)
  1696  0389  00DF               	movwf	((?_delay))+1
  1697  038A  120A  158A  2691   	fcall	_delay
              120A  118A         
  1698                           	line	127
  1699                           	
  1700  038F                     l4082:	
  1701                           ;finger test.c: 127: RD2=0;
  1702  038F  1283               	bcf	status, 5	;RP0=0, select bank0
  1703  0390  1303               	bcf	status, 6	;RP1=0, select bank0
  1704  0391  1108               	bcf	(66/8),(66)&7
  1705                           	line	128
  1706                           	
  1707  0392                     l4084:	
  1708                           ;finger test.c: 128: RD3=0;
  1709  0392  1188               	bcf	(67/8),(67)&7
  1710                           	line	129
  1711                           ;finger test.c: 129: }
  1712  0393  2B9D               	goto	l763
  1713                           	line	130
  1714                           	
  1715  0394                     l762:	
  1716                           	line	131
  1717                           	
  1718  0394                     l4086:	
  1719                           ;finger test.c: 130: else
  1720                           ;finger test.c: 131: lcdcmd(0x01);
  1721  0394  3001               	movlw	low(01h)
  1722  0395  00E4               	movwf	(?_lcdcmd)
  1723  0396  3000               	movlw	high(01h)
  1724  0397  00E5               	movwf	((?_lcdcmd))+1
  1725  0398  120A  158A  27B8   	fcall	_lcdcmd
              120A  118A         
  1726                           	
  1727  039D                     l763:	
  1728                           	line	132
  1729                           ;finger test.c: 132: lcdcmd(0x80);
  1730  039D  3080               	movlw	low(080h)
  1731  039E  1283               	bcf	status, 5	;RP0=0, select bank0
  1732  039F  1303               	bcf	status, 6	;RP1=0, select bank0
  1733  03A0  00E4               	movwf	(?_lcdcmd)
  1734  03A1  3000               	movlw	high(080h)
  1735  03A2  00E5               	movwf	((?_lcdcmd))+1
  1736  03A3  120A  158A  27B8   	fcall	_lcdcmd
              120A  118A         
  1737                           	line	133
  1738                           	
  1739  03A8                     l4088:	
  1740                           ;finger test.c: 133: display("access denied");
  1741  03A8  30C2               	movlw	low(STR_8|8000h)
  1742  03A9  1283               	bcf	status, 5	;RP0=0, select bank0
  1743  03AA  1303               	bcf	status, 6	;RP1=0, select bank0
  1744  03AB  00E9               	movwf	(?_display)
  1745  03AC  3086               	movlw	high(STR_8|8000h)
  1746  03AD  00EA               	movwf	((?_display))+1
  1747  03AE  120A  158A  26FC   	fcall	_display
              120A  118A         
  1748                           	line	134
  1749                           	
  1750  03B3                     l4090:	
  1751                           ;finger test.c: 134: delay(1000);
  1752  03B3  30E8               	movlw	low(03E8h)
  1753  03B4  1283               	bcf	status, 5	;RP0=0, select bank0
  1754  03B5  1303               	bcf	status, 6	;RP1=0, select bank0
  1755  03B6  00DE               	movwf	(?_delay)
  1756  03B7  3003               	movlw	high(03E8h)
  1757  03B8  00DF               	movwf	((?_delay))+1
  1758  03B9  120A  158A  2691   	fcall	_delay
              120A  118A         
  1759  03BE  2BBF               	goto	l4092
  1760                           	line	135
  1761                           	
  1762  03BF                     l758:	
  1763                           	line	138
  1764                           	
  1765  03BF                     l4092:	
  1766                           ;finger test.c: 135: }
  1767                           ;finger test.c: 138: if(RC1==0)
  1768  03BF  1283               	bcf	status, 5	;RP0=0, select bank0
  1769  03C0  1303               	bcf	status, 6	;RP1=0, select bank0
  1770  03C1  1887               	btfsc	(57/8),(57)&7
  1771  03C2  2BC4               	goto	u3971
  1772  03C3  2BC5               	goto	u3970
  1773  03C4                     u3971:
  1774  03C4  2AE6               	goto	l4052
  1775  03C5                     u3970:
  1776                           	line	140
  1777                           	
  1778  03C5                     l4094:	
  1779                           ;finger test.c: 139: {
  1780                           ;finger test.c: 140: lcdcmd(0x80);
  1781  03C5  3080               	movlw	low(080h)
  1782  03C6  00E4               	movwf	(?_lcdcmd)
  1783  03C7  3000               	movlw	high(080h)
  1784  03C8  00E5               	movwf	((?_lcdcmd))+1
  1785  03C9  120A  158A  27B8   	fcall	_lcdcmd
              120A  118A         
  1786                           	line	141
  1787                           	
  1788  03CE                     l4096:	
  1789                           ;finger test.c: 141: display("  enter finger  ");
  1790  03CE  3022               	movlw	low(STR_9|8000h)
  1791  03CF  1283               	bcf	status, 5	;RP0=0, select bank0
  1792  03D0  1303               	bcf	status, 6	;RP1=0, select bank0
  1793  03D1  00E9               	movwf	(?_display)
  1794  03D2  3086               	movlw	high(STR_9|8000h)
  1795  03D3  00EA               	movwf	((?_display))+1
  1796  03D4  120A  158A  26FC   	fcall	_display
              120A  118A         
  1797                           	line	142
  1798                           	
  1799  03D9                     l4098:	
  1800                           ;finger test.c: 142: lcdcmd(0xC0);
  1801  03D9  30C0               	movlw	low(0C0h)
  1802  03DA  1283               	bcf	status, 5	;RP0=0, select bank0
  1803  03DB  1303               	bcf	status, 6	;RP1=0, select bank0
  1804  03DC  00E4               	movwf	(?_lcdcmd)
  1805  03DD  3000               	movlw	high(0C0h)
  1806  03DE  00E5               	movwf	((?_lcdcmd))+1
  1807  03DF  120A  158A  27B8   	fcall	_lcdcmd
              120A  118A         
  1808                           	line	143
  1809                           ;finger test.c: 143: display(" for open door  ");
  1810  03E4  3033               	movlw	low(STR_10|8000h)
  1811  03E5  1283               	bcf	status, 5	;RP0=0, select bank0
  1812  03E6  1303               	bcf	status, 6	;RP1=0, select bank0
  1813  03E7  00E9               	movwf	(?_display)
  1814  03E8  3086               	movlw	high(STR_10|8000h)
  1815  03E9  00EA               	movwf	((?_display))+1
  1816  03EA  120A  158A  26FC   	fcall	_display
              120A  118A         
  1817                           	line	144
  1818                           ;finger test.c: 144: while(RC1==0);
  1819  03EF  2BF0               	goto	l765
  1820                           	
  1821  03F0                     l766:	
  1822                           	
  1823  03F0                     l765:	
  1824  03F0  1283               	bcf	status, 5	;RP0=0, select bank0
  1825  03F1  1303               	bcf	status, 6	;RP1=0, select bank0
  1826  03F2  1C87               	btfss	(57/8),(57)&7
  1827  03F3  2BF5               	goto	u3981
  1828  03F4  2BF6               	goto	u3980
  1829  03F5                     u3981:
  1830  03F5  2BF0               	goto	l765
  1831  03F6                     u3980:
  1832  03F6  2BF7               	goto	l4100
  1833                           	
  1834  03F7                     l767:	
  1835                           	line	145
  1836                           	
  1837  03F7                     l4100:	
  1838                           ;finger test.c: 145: SrchFinger();
  1839  03F7  120A  118A  2467   	fcall	_SrchFinger
              120A  118A         
  1840                           	line	146
  1841                           	
  1842  03FC                     l4102:	
  1843                           ;finger test.c: 146: if(chk==1)
  1844  03FC  1283               	bcf	status, 5	;RP0=0, select bank0
  1845  03FD  1303               	bcf	status, 6	;RP1=0, select bank0
  1846  03FE  085D               	movf	(_chk),w
  1847  03FF  3A01               	xorlw	01h
  1848  0400  1D03               	skipz
  1849  0401  2C03               	goto	u3991
  1850  0402  2C04               	goto	u3990
  1851  0403                     u3991:
  1852  0403  2C36               	goto	l4120
  1853  0404                     u3990:
  1854                           	line	148
  1855                           	
  1856  0404                     l4104:	
  1857                           ;finger test.c: 147: {
  1858                           ;finger test.c: 148: lcdcmd(0x01);
  1859  0404  3001               	movlw	low(01h)
  1860  0405  00E4               	movwf	(?_lcdcmd)
  1861  0406  3000               	movlw	high(01h)
  1862  0407  00E5               	movwf	((?_lcdcmd))+1
  1863  0408  120A  158A  27B8   	fcall	_lcdcmd
              120A  118A         
  1864                           	line	149
  1865                           ;finger test.c: 149: lcdcmd(0x80);
  1866  040D  3080               	movlw	low(080h)
  1867  040E  1283               	bcf	status, 5	;RP0=0, select bank0
  1868  040F  1303               	bcf	status, 6	;RP1=0, select bank0
  1869  0410  00E4               	movwf	(?_lcdcmd)
  1870  0411  3000               	movlw	high(080h)
  1871  0412  00E5               	movwf	((?_lcdcmd))+1
  1872  0413  120A  158A  27B8   	fcall	_lcdcmd
              120A  118A         
  1873                           	line	150
  1874                           	
  1875  0418                     l4106:	
  1876                           ;finger test.c: 150: display("door opening");
  1877  0418  30DD               	movlw	low(STR_11|8000h)
  1878  0419  1283               	bcf	status, 5	;RP0=0, select bank0
  1879  041A  1303               	bcf	status, 6	;RP1=0, select bank0
  1880  041B  00E9               	movwf	(?_display)
  1881  041C  3086               	movlw	high(STR_11|8000h)
  1882  041D  00EA               	movwf	((?_display))+1
  1883  041E  120A  158A  26FC   	fcall	_display
              120A  118A         
  1884                           	line	151
  1885                           	
  1886  0423                     l4108:	
  1887                           ;finger test.c: 151: chk=0;
  1888  0423  1283               	bcf	status, 5	;RP0=0, select bank0
  1889  0424  1303               	bcf	status, 6	;RP1=0, select bank0
  1890  0425  01DD               	clrf	(_chk)
  1891                           	line	152
  1892                           	
  1893  0426                     l4110:	
  1894                           ;finger test.c: 152: RD2=1;
  1895  0426  1508               	bsf	(66/8),(66)&7
  1896                           	line	153
  1897                           	
  1898  0427                     l4112:	
  1899                           ;finger test.c: 153: RD3=0;
  1900  0427  1188               	bcf	(67/8),(67)&7
  1901                           	line	154
  1902                           	
  1903  0428                     l4114:	
  1904                           ;finger test.c: 154: delay(1000);
  1905  0428  30E8               	movlw	low(03E8h)
  1906  0429  00DE               	movwf	(?_delay)
  1907  042A  3003               	movlw	high(03E8h)
  1908  042B  00DF               	movwf	((?_delay))+1
  1909  042C  120A  158A  2691   	fcall	_delay
              120A  118A         
  1910                           	line	155
  1911                           	
  1912  0431                     l4116:	
  1913                           ;finger test.c: 155: RD2=0;
  1914  0431  1283               	bcf	status, 5	;RP0=0, select bank0
  1915  0432  1303               	bcf	status, 6	;RP1=0, select bank0
  1916  0433  1108               	bcf	(66/8),(66)&7
  1917                           	line	156
  1918                           	
  1919  0434                     l4118:	
  1920                           ;finger test.c: 156: RD3=0;
  1921  0434  1188               	bcf	(67/8),(67)&7
  1922                           	line	157
  1923                           ;finger test.c: 157: }
  1924  0435  2AE6               	goto	l4052
  1925                           	line	158
  1926                           	
  1927  0436                     l768:	
  1928                           	line	160
  1929                           	
  1930  0436                     l4120:	
  1931                           ;finger test.c: 158: else
  1932                           ;finger test.c: 159: {
  1933                           ;finger test.c: 160: lcdcmd(0x01);
  1934  0436  3001               	movlw	low(01h)
  1935  0437  00E4               	movwf	(?_lcdcmd)
  1936  0438  3000               	movlw	high(01h)
  1937  0439  00E5               	movwf	((?_lcdcmd))+1
  1938  043A  120A  158A  27B8   	fcall	_lcdcmd
              120A  118A         
  1939                           	line	161
  1940                           ;finger test.c: 161: lcdcmd(0x80);
  1941  043F  3080               	movlw	low(080h)
  1942  0440  1283               	bcf	status, 5	;RP0=0, select bank0
  1943  0441  1303               	bcf	status, 6	;RP1=0, select bank0
  1944  0442  00E4               	movwf	(?_lcdcmd)
  1945  0443  3000               	movlw	high(080h)
  1946  0444  00E5               	movwf	((?_lcdcmd))+1
  1947  0445  120A  158A  27B8   	fcall	_lcdcmd
              120A  118A         
  1948                           	line	162
  1949                           	
  1950  044A                     l4122:	
  1951                           ;finger test.c: 162: display("access denied");
  1952  044A  30C2               	movlw	low(STR_12|8000h)
  1953  044B  1283               	bcf	status, 5	;RP0=0, select bank0
  1954  044C  1303               	bcf	status, 6	;RP1=0, select bank0
  1955  044D  00E9               	movwf	(?_display)
  1956  044E  3086               	movlw	high(STR_12|8000h)
  1957  044F  00EA               	movwf	((?_display))+1
  1958  0450  120A  158A  26FC   	fcall	_display
              120A  118A         
  1959                           	line	163
  1960                           	
  1961  0455                     l4124:	
  1962                           ;finger test.c: 163: delay(1000);
  1963  0455  30E8               	movlw	low(03E8h)
  1964  0456  1283               	bcf	status, 5	;RP0=0, select bank0
  1965  0457  1303               	bcf	status, 6	;RP1=0, select bank0
  1966  0458  00DE               	movwf	(?_delay)
  1967  0459  3003               	movlw	high(03E8h)
  1968  045A  00DF               	movwf	((?_delay))+1
  1969  045B  120A  158A  2691   	fcall	_delay
              120A  118A         
  1970  0460  2AE6               	goto	l4052
  1971                           	line	164
  1972                           	
  1973  0461                     l769:	
  1974  0461  2AE6               	goto	l4052
  1975                           	line	165
  1976                           	
  1977  0462                     l764:	
  1978  0462  2AE6               	goto	l4052
  1979                           	line	170
  1980                           	
  1981  0463                     l770:	
  1982                           	line	83
  1983  0463  2AE6               	goto	l4052
  1984                           	
  1985  0464                     l771:	
  1986                           	line	171
  1987                           	
  1988  0464                     l772:	
  1989                           	global	start
  1990  0464  120A  118A  2812   	ljmp	start
  1991                           	opt stack 0
  1992                           GLOBAL	__end_of_main
  1993  0467                     	__end_of_main:
  1994 ;; =============== function _main ends ============
  1995                           
  1996                           	signat	_main,88
  1997                           	global	_SrchFinger
  1998                           psect	text555,local,class=CODE,delta=2
  1999                           global __ptext555
  2000  0467                     __ptext555:
  2001                           
  2002 ;; *************** function _SrchFinger *****************
  2003 ;; Defined at:
  2004 ;;		line 504 in file "F:\pic projects\finger voting machine\finger test.c"
  2005 ;; Parameters:    Size  Location     Type
  2006 ;;		None
  2007 ;; Auto vars:     Size  Location     Type
  2008 ;;		None
  2009 ;; Return value:  Size  Location     Type
  2010 ;;		None               void
  2011 ;; Registers used:
  2012 ;;		wreg, fsr0l, fsr0h, status,2, status,0, btemp+1, pclath, cstack
  2013 ;; Tracked objects:
  2014 ;;		On entry : 0/0
  2015 ;;		On exit  : 0/0
  2016 ;;		Unchanged: 0/0
  2017 ;; Data sizes:     COMMON   BANK0   BANK1   BANK3   BANK2
  2018 ;;      Params:         0       0       0       0       0
  2019 ;;      Locals:         0       0       0       0       0
  2020 ;;      Temps:          0       1       0       0       0
  2021 ;;      Totals:         0       1       0       0       0
  2022 ;;Total ram usage:        1 bytes
  2023 ;; Hardware stack levels used:    1
  2024 ;; Hardware stack levels required when called:    5
  2025 ;; This function calls:
  2026 ;;		_Readfinger
  2027 ;;		_storChar1
  2028 ;;		_storChar2
  2029 ;;		_Sendstring
  2030 ;;		_lcdcmd
  2031 ;;		_delay
  2032 ;;		_display
  2033 ;;		_errorDisplay
  2034 ;; This function is called by:
  2035 ;;		_main
  2036 ;; This function uses a non-reentrant model
  2037 ;;
  2038                           psect	text555
  2039                           	file	"F:\pic projects\finger voting machine\finger test.c"
  2040                           	line	504
  2041                           	global	__size_of_SrchFinger
  2042  012C                     	__size_of_SrchFinger	equ	__end_of_SrchFinger-_SrchFinger
  2043                           	
  2044  0467                     _SrchFinger:	
  2045                           	opt	stack 2
  2046                           ; Regs used in _SrchFinger: [wreg-fsr0h+status,2+status,0+btemp+1+pclath+cstack]
  2047                           	line	505
  2048                           	
  2049  0467                     l3952:	
  2050                           ;finger test.c: 505: Readfinger();
  2051  0467  120A  158A  262B   	fcall	_Readfinger
              120A  118A         
  2052                           	line	506
  2053                           	
  2054  046C                     l3954:	
  2055                           ;finger test.c: 506: if(aa[0]==0xef && aa[9]==0x00)
  2056  046C  1283               	bcf	status, 5	;RP0=0, select bank0
  2057  046D  1303               	bcf	status, 6	;RP1=0, select bank0
  2058  046E  0820               	movf	(_aa),w
  2059  046F  3AEF               	xorlw	0EFh
  2060  0470  1D03               	skipz
  2061  0471  2C73               	goto	u3771
  2062  0472  2C74               	goto	u3770
  2063  0473                     u3771:
  2064  0473  2D92               	goto	l878
  2065  0474                     u3770:
  2066                           	
  2067  0474                     l3956:	
  2068  0474  08A9               	movf	0+(_aa)+09h,f
  2069  0475  1D03               	skipz
  2070  0476  2C78               	goto	u3781
  2071  0477  2C79               	goto	u3780
  2072  0478                     u3781:
  2073  0478  2D92               	goto	l878
  2074  0479                     u3780:
  2075                           	line	508
  2076                           	
  2077  0479                     l3958:	
  2078                           ;finger test.c: 507: {
  2079                           ;finger test.c: 508: storChar1();
  2080  0479  120A  158A  263B   	fcall	_storChar1
              120A  118A         
  2081                           	line	509
  2082                           	
  2083  047E                     l3960:	
  2084                           ;finger test.c: 509: if(aa[0]==0xef && aa[9]==0x00)
  2085  047E  1283               	bcf	status, 5	;RP0=0, select bank0
  2086  047F  1303               	bcf	status, 6	;RP1=0, select bank0
  2087  0480  0820               	movf	(_aa),w
  2088  0481  3AEF               	xorlw	0EFh
  2089  0482  1D03               	skipz
  2090  0483  2C85               	goto	u3791
  2091  0484  2C86               	goto	u3790
  2092  0485                     u3791:
  2093  0485  2D92               	goto	l878
  2094  0486                     u3790:
  2095                           	
  2096  0486                     l3962:	
  2097  0486  08A9               	movf	0+(_aa)+09h,f
  2098  0487  1D03               	skipz
  2099  0488  2C8A               	goto	u3801
  2100  0489  2C8B               	goto	u3800
  2101  048A                     u3801:
  2102  048A  2D92               	goto	l878
  2103  048B                     u3800:
  2104                           	line	511
  2105                           	
  2106  048B                     l3964:	
  2107                           ;finger test.c: 510: {
  2108                           ;finger test.c: 511: Readfinger();
  2109  048B  120A  158A  262B   	fcall	_Readfinger
              120A  118A         
  2110                           	line	512
  2111                           	
  2112  0490                     l3966:	
  2113                           ;finger test.c: 512: if(aa[0]==0xef && aa[9]==0x00)
  2114  0490  1283               	bcf	status, 5	;RP0=0, select bank0
  2115  0491  1303               	bcf	status, 6	;RP1=0, select bank0
  2116  0492  0820               	movf	(_aa),w
  2117  0493  3AEF               	xorlw	0EFh
  2118  0494  1D03               	skipz
  2119  0495  2C97               	goto	u3811
  2120  0496  2C98               	goto	u3810
  2121  0497                     u3811:
  2122  0497  2D92               	goto	l878
  2123  0498                     u3810:
  2124                           	
  2125  0498                     l3968:	
  2126  0498  08A9               	movf	0+(_aa)+09h,f
  2127  0499  1D03               	skipz
  2128  049A  2C9C               	goto	u3821
  2129  049B  2C9D               	goto	u3820
  2130  049C                     u3821:
  2131  049C  2D92               	goto	l878
  2132  049D                     u3820:
  2133                           	line	514
  2134                           	
  2135  049D                     l3970:	
  2136                           ;finger test.c: 513: {
  2137                           ;finger test.c: 514: storChar2();
  2138  049D  120A  158A  264B   	fcall	_storChar2
              120A  118A         
  2139                           	line	515
  2140                           	
  2141  04A2                     l3972:	
  2142                           ;finger test.c: 515: if(aa[0]==0xef && aa[9]==0x00)
  2143  04A2  1283               	bcf	status, 5	;RP0=0, select bank0
  2144  04A3  1303               	bcf	status, 6	;RP1=0, select bank0
  2145  04A4  0820               	movf	(_aa),w
  2146  04A5  3AEF               	xorlw	0EFh
  2147  04A6  1D03               	skipz
  2148  04A7  2CA9               	goto	u3831
  2149  04A8  2CAA               	goto	u3830
  2150  04A9                     u3831:
  2151  04A9  2D92               	goto	l878
  2152  04AA                     u3830:
  2153                           	
  2154  04AA                     l3974:	
  2155  04AA  08A9               	movf	0+(_aa)+09h,f
  2156  04AB  1D03               	skipz
  2157  04AC  2CAE               	goto	u3841
  2158  04AD  2CAF               	goto	u3840
  2159  04AE                     u3841:
  2160  04AE  2D92               	goto	l878
  2161  04AF                     u3840:
  2162                           	line	517
  2163                           	
  2164  04AF                     l3976:	
  2165                           ;finger test.c: 516: {
  2166                           ;finger test.c: 517: Sendstring(Gentemplate,12);
  2167  04AF  30D5               	movlw	(_Gentemplate&0ffh)
  2168  04B0  00E4               	movwf	(?_Sendstring)
  2169  04B1  3000               	movlw	(0x1/2)
  2170  04B2  00E5               	movwf	(?_Sendstring+1)
  2171  04B3  300C               	movlw	(0Ch)
  2172  04B4  00ED               	movwf	(??_SrchFinger+0)+0
  2173  04B5  086D               	movf	(??_SrchFinger+0)+0,w
  2174  04B6  00E6               	movwf	0+(?_Sendstring)+02h
  2175  04B7  120A  158A  2777   	fcall	_Sendstring
              120A  118A         
  2176                           	line	519
  2177                           	
  2178  04BC                     l3978:	
  2179                           ;finger test.c: 519: if(aa[0]==0xef && aa[9]==0x00)
  2180  04BC  1283               	bcf	status, 5	;RP0=0, select bank0
  2181  04BD  1303               	bcf	status, 6	;RP1=0, select bank0
  2182  04BE  0820               	movf	(_aa),w
  2183  04BF  3AEF               	xorlw	0EFh
  2184  04C0  1D03               	skipz
  2185  04C1  2CC3               	goto	u3851
  2186  04C2  2CC4               	goto	u3850
  2187  04C3                     u3851:
  2188  04C3  2D92               	goto	l878
  2189  04C4                     u3850:
  2190                           	
  2191  04C4                     l3980:	
  2192  04C4  08A9               	movf	0+(_aa)+09h,f
  2193  04C5  1D03               	skipz
  2194  04C6  2CC8               	goto	u3861
  2195  04C7  2CC9               	goto	u3860
  2196  04C8                     u3861:
  2197  04C8  2D92               	goto	l878
  2198  04C9                     u3860:
  2199                           	line	522
  2200                           	
  2201  04C9                     l3982:	
  2202                           ;finger test.c: 520: {
  2203                           ;finger test.c: 522: for(i=0;i<20;i++)
  2204  04C9  01F0               	clrf	(_i)
  2205  04CA  01F1               	clrf	(_i+1)
  2206                           	
  2207  04CB                     l3984:	
  2208  04CB  0871               	movf	(_i+1),w
  2209  04CC  3A80               	xorlw	80h
  2210  04CD  00FF               	movwf	btemp+1
  2211  04CE  3080               	movlw	(high(014h))^80h
  2212  04CF  027F               	subwf	btemp+1,w
  2213  04D0  1D03               	skipz
  2214  04D1  2CD4               	goto	u3875
  2215  04D2  3014               	movlw	low(014h)
  2216  04D3  0270               	subwf	(_i),w
  2217  04D4                     u3875:
  2218                           
  2219  04D4  1C03               	skipc
  2220  04D5  2CD7               	goto	u3871
  2221  04D6  2CD8               	goto	u3870
  2222  04D7                     u3871:
  2223  04D7  2CDA               	goto	l3988
  2224  04D8                     u3870:
  2225  04D8  2CF3               	goto	l3994
  2226                           	
  2227  04D9                     l3986:	
  2228  04D9  2CF3               	goto	l3994
  2229                           	line	523
  2230                           	
  2231  04DA                     l872:	
  2232                           	line	524
  2233                           	
  2234  04DA                     l3988:	
  2235                           ;finger test.c: 523: {
  2236                           ;finger test.c: 524: aa[i]=0x00;
  2237  04DA  0870               	movf	(_i),w
  2238  04DB  3E20               	addlw	_aa&0ffh
  2239  04DC  0084               	movwf	fsr0
  2240  04DD  1383               	bcf	status, 7	;select IRP bank0
  2241  04DE  0180               	clrf	indf
  2242                           	line	522
  2243                           	
  2244  04DF                     l3990:	
  2245  04DF  3001               	movlw	low(01h)
  2246  04E0  07F0               	addwf	(_i),f
  2247  04E1  1803               	skipnc
  2248  04E2  0AF1               	incf	(_i+1),f
  2249  04E3  3000               	movlw	high(01h)
  2250  04E4  07F1               	addwf	(_i+1),f
  2251                           	
  2252  04E5                     l3992:	
  2253  04E5  0871               	movf	(_i+1),w
  2254  04E6  3A80               	xorlw	80h
  2255  04E7  00FF               	movwf	btemp+1
  2256  04E8  3080               	movlw	(high(014h))^80h
  2257  04E9  027F               	subwf	btemp+1,w
  2258  04EA  1D03               	skipz
  2259  04EB  2CEE               	goto	u3885
  2260  04EC  3014               	movlw	low(014h)
  2261  04ED  0270               	subwf	(_i),w
  2262  04EE                     u3885:
  2263                           
  2264  04EE  1C03               	skipc
  2265  04EF  2CF1               	goto	u3881
  2266  04F0  2CF2               	goto	u3880
  2267  04F1                     u3881:
  2268  04F1  2CDA               	goto	l3988
  2269  04F2                     u3880:
  2270  04F2  2CF3               	goto	l3994
  2271                           	
  2272  04F3                     l873:	
  2273                           	line	526
  2274                           	
  2275  04F3                     l3994:	
  2276                           ;finger test.c: 525: }
  2277                           ;finger test.c: 526: lcdcmd(0x01);
  2278  04F3  3001               	movlw	low(01h)
  2279  04F4  1283               	bcf	status, 5	;RP0=0, select bank0
  2280  04F5  1303               	bcf	status, 6	;RP1=0, select bank0
  2281  04F6  00E4               	movwf	(?_lcdcmd)
  2282  04F7  3000               	movlw	high(01h)
  2283  04F8  00E5               	movwf	((?_lcdcmd))+1
  2284  04F9  120A  158A  27B8   	fcall	_lcdcmd
              120A  118A         
  2285                           	line	527
  2286                           ;finger test.c: 527: delay(10);
  2287  04FE  300A               	movlw	low(0Ah)
  2288  04FF  1283               	bcf	status, 5	;RP0=0, select bank0
  2289  0500  1303               	bcf	status, 6	;RP1=0, select bank0
  2290  0501  00DE               	movwf	(?_delay)
  2291  0502  3000               	movlw	high(0Ah)
  2292  0503  00DF               	movwf	((?_delay))+1
  2293  0504  120A  158A  2691   	fcall	_delay
              120A  118A         
  2294                           	line	528
  2295                           	
  2296  0509                     l3996:	
  2297                           ;finger test.c: 528: display("  searching  ");
  2298  0509  3098               	movlw	low(STR_20|8000h)
  2299  050A  1283               	bcf	status, 5	;RP0=0, select bank0
  2300  050B  1303               	bcf	status, 6	;RP1=0, select bank0
  2301  050C  00E9               	movwf	(?_display)
  2302  050D  3086               	movlw	high(STR_20|8000h)
  2303  050E  00EA               	movwf	((?_display))+1
  2304  050F  120A  158A  26FC   	fcall	_display
              120A  118A         
  2305                           	line	529
  2306                           	
  2307  0514                     l3998:	
  2308                           ;finger test.c: 529: Sendstring(Srchtemplate,17);
  2309  0514  30CC               	movlw	(_Srchtemplate&0ffh)
  2310  0515  1283               	bcf	status, 5	;RP0=0, select bank0
  2311  0516  1303               	bcf	status, 6	;RP1=0, select bank0
  2312  0517  00E4               	movwf	(?_Sendstring)
  2313  0518  3001               	movlw	(0x3/2)
  2314  0519  00E5               	movwf	(?_Sendstring+1)
  2315  051A  3011               	movlw	(011h)
  2316  051B  00ED               	movwf	(??_SrchFinger+0)+0
  2317  051C  086D               	movf	(??_SrchFinger+0)+0,w
  2318  051D  00E6               	movwf	0+(?_Sendstring)+02h
  2319  051E  120A  158A  2777   	fcall	_Sendstring
              120A  118A         
  2320                           	line	533
  2321                           	
  2322  0523                     l4000:	
  2323                           ;finger test.c: 533: delay(1000);
  2324  0523  30E8               	movlw	low(03E8h)
  2325  0524  1283               	bcf	status, 5	;RP0=0, select bank0
  2326  0525  1303               	bcf	status, 6	;RP1=0, select bank0
  2327  0526  00DE               	movwf	(?_delay)
  2328  0527  3003               	movlw	high(03E8h)
  2329  0528  00DF               	movwf	((?_delay))+1
  2330  0529  120A  158A  2691   	fcall	_delay
              120A  118A         
  2331                           	line	534
  2332                           	
  2333  052E                     l4002:	
  2334                           ;finger test.c: 534: if(aa[0]==0xef && aa[9]==0x00)
  2335  052E  1283               	bcf	status, 5	;RP0=0, select bank0
  2336  052F  1303               	bcf	status, 6	;RP1=0, select bank0
  2337  0530  0820               	movf	(_aa),w
  2338  0531  3AEF               	xorlw	0EFh
  2339  0532  1D03               	skipz
  2340  0533  2D35               	goto	u3891
  2341  0534  2D36               	goto	u3890
  2342  0535                     u3891:
  2343  0535  2D5E               	goto	l4014
  2344  0536                     u3890:
  2345                           	
  2346  0536                     l4004:	
  2347  0536  08A9               	movf	0+(_aa)+09h,f
  2348  0537  1D03               	skipz
  2349  0538  2D3A               	goto	u3901
  2350  0539  2D3B               	goto	u3900
  2351  053A                     u3901:
  2352  053A  2D5E               	goto	l4014
  2353  053B                     u3900:
  2354                           	line	536
  2355                           	
  2356  053B                     l4006:	
  2357                           ;finger test.c: 535: {
  2358                           ;finger test.c: 536: chk=1;
  2359  053B  01DD               	clrf	(_chk)
  2360  053C  1403               	bsf	status,0
  2361  053D  0DDD               	rlf	(_chk),f
  2362                           	line	537
  2363                           	
  2364  053E                     l4008:	
  2365                           ;finger test.c: 537: lcdcmd(0x01);
  2366  053E  3001               	movlw	low(01h)
  2367  053F  00E4               	movwf	(?_lcdcmd)
  2368  0540  3000               	movlw	high(01h)
  2369  0541  00E5               	movwf	((?_lcdcmd))+1
  2370  0542  120A  158A  27B8   	fcall	_lcdcmd
              120A  118A         
  2371                           	line	538
  2372                           	
  2373  0547                     l4010:	
  2374                           ;finger test.c: 538: delay(10);
  2375  0547  300A               	movlw	low(0Ah)
  2376  0548  1283               	bcf	status, 5	;RP0=0, select bank0
  2377  0549  1303               	bcf	status, 6	;RP1=0, select bank0
  2378  054A  00DE               	movwf	(?_delay)
  2379  054B  3000               	movlw	high(0Ah)
  2380  054C  00DF               	movwf	((?_delay))+1
  2381  054D  120A  158A  2691   	fcall	_delay
              120A  118A         
  2382                           	line	539
  2383                           	
  2384  0552                     l4012:	
  2385                           ;finger test.c: 539: display("  match found  ");
  2386  0552  3088               	movlw	low(STR_21|8000h)
  2387  0553  1283               	bcf	status, 5	;RP0=0, select bank0
  2388  0554  1303               	bcf	status, 6	;RP1=0, select bank0
  2389  0555  00E9               	movwf	(?_display)
  2390  0556  3086               	movlw	high(STR_21|8000h)
  2391  0557  00EA               	movwf	((?_display))+1
  2392  0558  120A  158A  26FC   	fcall	_display
              120A  118A         
  2393                           	line	540
  2394                           ;finger test.c: 540: }
  2395  055D  2D92               	goto	l878
  2396                           	line	541
  2397                           	
  2398  055E                     l874:	
  2399                           	
  2400  055E                     l4014:	
  2401                           ;finger test.c: 541: else if(aa[9]==0x09)
  2402  055E  1283               	bcf	status, 5	;RP0=0, select bank0
  2403  055F  1303               	bcf	status, 6	;RP1=0, select bank0
  2404  0560  0829               	movf	0+(_aa)+09h,w
  2405  0561  3A09               	xorlw	09h
  2406  0562  1D03               	skipz
  2407  0563  2D65               	goto	u3911
  2408  0564  2D66               	goto	u3910
  2409  0565                     u3911:
  2410  0565  2D86               	goto	l4020
  2411  0566                     u3910:
  2412                           	line	543
  2413                           	
  2414  0566                     l4016:	
  2415                           ;finger test.c: 542: {
  2416                           ;finger test.c: 543: lcdcmd(0x01);
  2417  0566  3001               	movlw	low(01h)
  2418  0567  00E4               	movwf	(?_lcdcmd)
  2419  0568  3000               	movlw	high(01h)
  2420  0569  00E5               	movwf	((?_lcdcmd))+1
  2421  056A  120A  158A  27B8   	fcall	_lcdcmd
              120A  118A         
  2422                           	line	544
  2423                           ;finger test.c: 544: delay(10);
  2424  056F  300A               	movlw	low(0Ah)
  2425  0570  1283               	bcf	status, 5	;RP0=0, select bank0
  2426  0571  1303               	bcf	status, 6	;RP1=0, select bank0
  2427  0572  00DE               	movwf	(?_delay)
  2428  0573  3000               	movlw	high(0Ah)
  2429  0574  00DF               	movwf	((?_delay))+1
  2430  0575  120A  158A  2691   	fcall	_delay
              120A  118A         
  2431                           	line	545
  2432                           	
  2433  057A                     l4018:	
  2434                           ;finger test.c: 545: display("  no match  ");
  2435  057A  30D0               	movlw	low(STR_22|8000h)
  2436  057B  1283               	bcf	status, 5	;RP0=0, select bank0
  2437  057C  1303               	bcf	status, 6	;RP1=0, select bank0
  2438  057D  00E9               	movwf	(?_display)
  2439  057E  3086               	movlw	high(STR_22|8000h)
  2440  057F  00EA               	movwf	((?_display))+1
  2441  0580  120A  158A  26FC   	fcall	_display
              120A  118A         
  2442                           	line	546
  2443                           ;finger test.c: 546: }
  2444  0585  2D92               	goto	l878
  2445                           	line	547
  2446                           	
  2447  0586                     l876:	
  2448                           	line	548
  2449                           	
  2450  0586                     l4020:	
  2451                           ;finger test.c: 547: else
  2452                           ;finger test.c: 548: errorDisplay();
  2453  0586  120A  118A  25DB   	fcall	_errorDisplay
              120A  118A         
  2454  058B  2D92               	goto	l878
  2455                           	
  2456  058C                     l877:	
  2457  058C  2D92               	goto	l878
  2458                           	
  2459  058D                     l875:	
  2460  058D  2D92               	goto	l878
  2461                           	line	549
  2462                           	
  2463  058E                     l871:	
  2464  058E  2D92               	goto	l878
  2465                           	line	550
  2466                           	
  2467  058F                     l870:	
  2468  058F  2D92               	goto	l878
  2469                           	line	551
  2470                           	
  2471  0590                     l869:	
  2472  0590  2D92               	goto	l878
  2473                           	line	552
  2474                           	
  2475  0591                     l868:	
  2476  0591  2D92               	goto	l878
  2477                           	line	553
  2478                           	
  2479  0592                     l867:	
  2480                           	line	554
  2481                           	
  2482  0592                     l878:	
  2483  0592  0008               	return
  2484                           	opt stack 0
  2485                           GLOBAL	__end_of_SrchFinger
  2486  0593                     	__end_of_SrchFinger:
  2487 ;; =============== function _SrchFinger ends ============
  2488                           
  2489                           	signat	_SrchFinger,88
  2490                           	global	_StorTempl
  2491                           psect	text556,local,class=CODE,delta=2
  2492                           global __ptext556
  2493  0015                     __ptext556:
  2494                           
  2495 ;; *************** function _StorTempl *****************
  2496 ;; Defined at:
  2497 ;;		line 385 in file "F:\pic projects\finger voting machine\finger test.c"
  2498 ;; Parameters:    Size  Location     Type
  2499 ;;		None
  2500 ;; Auto vars:     Size  Location     Type
  2501 ;;  addr2           1    2[BANK1 ] unsigned char 
  2502 ;;  addr1           1    1[BANK1 ] unsigned char 
  2503 ;;  chksum          1    0[BANK1 ] unsigned char 
  2504 ;; Return value:  Size  Location     Type
  2505 ;;		None               void
  2506 ;; Registers used:
  2507 ;;		wreg, fsr0l, fsr0h, status,2, status,0, btemp+1, pclath, cstack
  2508 ;; Tracked objects:
  2509 ;;		On entry : 0/0
  2510 ;;		On exit  : 0/0
  2511 ;;		Unchanged: 0/0
  2512 ;; Data sizes:     COMMON   BANK0   BANK1   BANK3   BANK2
  2513 ;;      Params:         0       0       0       0       0
  2514 ;;      Locals:         0       0       3       0       0
  2515 ;;      Temps:          0       1       0       0       0
  2516 ;;      Totals:         0       1       3       0       0
  2517 ;;Total ram usage:        4 bytes
  2518 ;; Hardware stack levels used:    1
  2519 ;; Hardware stack levels required when called:    5
  2520 ;; This function calls:
  2521 ;;		_lcdcmd
  2522 ;;		_delay
  2523 ;;		_display
  2524 ;;		_Readfinger
  2525 ;;		_storChar1
  2526 ;;		_storChar2
  2527 ;;		_Sendstring
  2528 ;;		_TX
  2529 ;;		_errorDisplay
  2530 ;; This function is called by:
  2531 ;;		_main
  2532 ;; This function uses a non-reentrant model
  2533 ;;
  2534                           psect	text556
  2535                           	file	"F:\pic projects\finger voting machine\finger test.c"
  2536                           	line	385
  2537                           	global	__size_of_StorTempl
  2538  0266                     	__size_of_StorTempl	equ	__end_of_StorTempl-_StorTempl
  2539                           	
  2540  0015                     _StorTempl:	
  2541                           	opt	stack 2
  2542                           ; Regs used in _StorTempl: [wreg-fsr0h+status,2+status,0+btemp+1+pclath+cstack]
  2543                           	line	387
  2544                           	
  2545  0015                     l3826:	
  2546                           ;finger test.c: 386: char addr1,addr2, chksum;
  2547                           ;finger test.c: 387: lcdcmd(0x01);
  2548  0015  3001               	movlw	low(01h)
  2549  0016  1283               	bcf	status, 5	;RP0=0, select bank0
  2550  0017  1303               	bcf	status, 6	;RP1=0, select bank0
  2551  0018  00E4               	movwf	(?_lcdcmd)
  2552  0019  3000               	movlw	high(01h)
  2553  001A  00E5               	movwf	((?_lcdcmd))+1
  2554  001B  120A  158A  27B8   	fcall	_lcdcmd
              120A  118A         
  2555                           	line	388
  2556                           ;finger test.c: 388: delay(10);
  2557  0020  300A               	movlw	low(0Ah)
  2558  0021  1283               	bcf	status, 5	;RP0=0, select bank0
  2559  0022  1303               	bcf	status, 6	;RP1=0, select bank0
  2560  0023  00DE               	movwf	(?_delay)
  2561  0024  3000               	movlw	high(0Ah)
  2562  0025  00DF               	movwf	((?_delay))+1
  2563  0026  120A  158A  2691   	fcall	_delay
              120A  118A         
  2564                           	line	389
  2565                           	
  2566  002B                     l3828:	
  2567                           ;finger test.c: 389: display("  place finger  ");
  2568  002B  3011               	movlw	low(STR_13|8000h)
  2569  002C  1283               	bcf	status, 5	;RP0=0, select bank0
  2570  002D  1303               	bcf	status, 6	;RP1=0, select bank0
  2571  002E  00E9               	movwf	(?_display)
  2572  002F  3086               	movlw	high(STR_13|8000h)
  2573  0030  00EA               	movwf	((?_display))+1
  2574  0031  120A  158A  26FC   	fcall	_display
              120A  118A         
  2575                           	line	390
  2576                           	
  2577  0036                     l3830:	
  2578                           ;finger test.c: 390: delay(2000);
  2579  0036  30D0               	movlw	low(07D0h)
  2580  0037  1283               	bcf	status, 5	;RP0=0, select bank0
  2581  0038  1303               	bcf	status, 6	;RP1=0, select bank0
  2582  0039  00DE               	movwf	(?_delay)
  2583  003A  3007               	movlw	high(07D0h)
  2584  003B  00DF               	movwf	((?_delay))+1
  2585  003C  120A  158A  2691   	fcall	_delay
              120A  118A         
  2586                           	line	391
  2587                           	
  2588  0041                     l3832:	
  2589                           ;finger test.c: 391: Readfinger();
  2590  0041  120A  158A  262B   	fcall	_Readfinger
              120A  118A         
  2591                           	line	392
  2592                           	
  2593  0046                     l3834:	
  2594                           ;finger test.c: 392: if(aa[0]==0xef && aa[9]==0x00)
  2595  0046  1283               	bcf	status, 5	;RP0=0, select bank0
  2596  0047  1303               	bcf	status, 6	;RP1=0, select bank0
  2597  0048  0820               	movf	(_aa),w
  2598  0049  3AEF               	xorlw	0EFh
  2599  004A  1D03               	skipz
  2600  004B  284D               	goto	u3531
  2601  004C  284E               	goto	u3530
  2602  004D                     u3531:
  2603  004D  29B1               	goto	l3918
  2604  004E                     u3530:
  2605                           	
  2606  004E                     l3836:	
  2607  004E  08A9               	movf	0+(_aa)+09h,f
  2608  004F  1D03               	skipz
  2609  0050  2852               	goto	u3541
  2610  0051  2853               	goto	u3540
  2611  0052                     u3541:
  2612  0052  29B1               	goto	l3918
  2613  0053                     u3540:
  2614                           	line	394
  2615                           	
  2616  0053                     l3838:	
  2617                           ;finger test.c: 393: {
  2618                           ;finger test.c: 394: storChar1();
  2619  0053  120A  158A  263B   	fcall	_storChar1
              120A  118A         
  2620                           	line	395
  2621                           	
  2622  0058                     l3840:	
  2623                           ;finger test.c: 395: if(aa[0]==0xef && aa[9]==0x00)
  2624  0058  1283               	bcf	status, 5	;RP0=0, select bank0
  2625  0059  1303               	bcf	status, 6	;RP1=0, select bank0
  2626  005A  0820               	movf	(_aa),w
  2627  005B  3AEF               	xorlw	0EFh
  2628  005C  1D03               	skipz
  2629  005D  285F               	goto	u3551
  2630  005E  2860               	goto	u3550
  2631  005F                     u3551:
  2632  005F  29AA               	goto	l3916
  2633  0060                     u3550:
  2634                           	
  2635  0060                     l3842:	
  2636  0060  08A9               	movf	0+(_aa)+09h,f
  2637  0061  1D03               	skipz
  2638  0062  2864               	goto	u3561
  2639  0063  2865               	goto	u3560
  2640  0064                     u3561:
  2641  0064  29AA               	goto	l3916
  2642  0065                     u3560:
  2643                           	line	397
  2644                           	
  2645  0065                     l3844:	
  2646                           ;finger test.c: 396: {
  2647                           ;finger test.c: 397: lcdcmd(0x01);
  2648  0065  3001               	movlw	low(01h)
  2649  0066  00E4               	movwf	(?_lcdcmd)
  2650  0067  3000               	movlw	high(01h)
  2651  0068  00E5               	movwf	((?_lcdcmd))+1
  2652  0069  120A  158A  27B8   	fcall	_lcdcmd
              120A  118A         
  2653                           	line	398
  2654                           ;finger test.c: 398: delay(10);
  2655  006E  300A               	movlw	low(0Ah)
  2656  006F  1283               	bcf	status, 5	;RP0=0, select bank0
  2657  0070  1303               	bcf	status, 6	;RP1=0, select bank0
  2658  0071  00DE               	movwf	(?_delay)
  2659  0072  3000               	movlw	high(0Ah)
  2660  0073  00DF               	movwf	((?_delay))+1
  2661  0074  120A  158A  2691   	fcall	_delay
              120A  118A         
  2662                           	line	399
  2663                           	
  2664  0079                     l3846:	
  2665                           ;finger test.c: 399: display("put finger again");
  2666  0079  3077               	movlw	low(STR_14|8000h)
  2667  007A  1283               	bcf	status, 5	;RP0=0, select bank0
  2668  007B  1303               	bcf	status, 6	;RP1=0, select bank0
  2669  007C  00E9               	movwf	(?_display)
  2670  007D  3086               	movlw	high(STR_14|8000h)
  2671  007E  00EA               	movwf	((?_display))+1
  2672  007F  120A  158A  26FC   	fcall	_display
              120A  118A         
  2673                           	line	400
  2674                           	
  2675  0084                     l3848:	
  2676                           ;finger test.c: 400: delay(2000);
  2677  0084  30D0               	movlw	low(07D0h)
  2678  0085  1283               	bcf	status, 5	;RP0=0, select bank0
  2679  0086  1303               	bcf	status, 6	;RP1=0, select bank0
  2680  0087  00DE               	movwf	(?_delay)
  2681  0088  3007               	movlw	high(07D0h)
  2682  0089  00DF               	movwf	((?_delay))+1
  2683  008A  120A  158A  2691   	fcall	_delay
              120A  118A         
  2684                           	line	401
  2685                           	
  2686  008F                     l3850:	
  2687                           ;finger test.c: 401: Readfinger();
  2688  008F  120A  158A  262B   	fcall	_Readfinger
              120A  118A         
  2689                           	line	402
  2690                           	
  2691  0094                     l3852:	
  2692                           ;finger test.c: 402: if(aa[0]==0xef && aa[9]==0x00)
  2693  0094  1283               	bcf	status, 5	;RP0=0, select bank0
  2694  0095  1303               	bcf	status, 6	;RP1=0, select bank0
  2695  0096  0820               	movf	(_aa),w
  2696  0097  3AEF               	xorlw	0EFh
  2697  0098  1D03               	skipz
  2698  0099  289B               	goto	u3571
  2699  009A  289C               	goto	u3570
  2700  009B                     u3571:
  2701  009B  2A4E               	goto	l3940
  2702  009C                     u3570:
  2703                           	
  2704  009C                     l3854:	
  2705  009C  08A9               	movf	0+(_aa)+09h,f
  2706  009D  1D03               	skipz
  2707  009E  28A0               	goto	u3581
  2708  009F  28A1               	goto	u3580
  2709  00A0                     u3581:
  2710  00A0  2A4E               	goto	l3940
  2711  00A1                     u3580:
  2712                           	line	404
  2713                           	
  2714  00A1                     l3856:	
  2715                           ;finger test.c: 403: {
  2716                           ;finger test.c: 404: storChar2();
  2717  00A1  120A  158A  264B   	fcall	_storChar2
              120A  118A         
  2718                           	line	405
  2719                           	
  2720  00A6                     l3858:	
  2721                           ;finger test.c: 405: if(aa[0]==0xef && aa[9]==0x00)
  2722  00A6  1283               	bcf	status, 5	;RP0=0, select bank0
  2723  00A7  1303               	bcf	status, 6	;RP1=0, select bank0
  2724  00A8  0820               	movf	(_aa),w
  2725  00A9  3AEF               	xorlw	0EFh
  2726  00AA  1D03               	skipz
  2727  00AB  28AD               	goto	u3591
  2728  00AC  28AE               	goto	u3590
  2729  00AD                     u3591:
  2730  00AD  29A2               	goto	l3914
  2731  00AE                     u3590:
  2732                           	
  2733  00AE                     l3860:	
  2734  00AE  08A9               	movf	0+(_aa)+09h,f
  2735  00AF  1D03               	skipz
  2736  00B0  28B2               	goto	u3601
  2737  00B1  28B3               	goto	u3600
  2738  00B2                     u3601:
  2739  00B2  29A2               	goto	l3914
  2740  00B3                     u3600:
  2741                           	line	407
  2742                           	
  2743  00B3                     l3862:	
  2744                           ;finger test.c: 406: {
  2745                           ;finger test.c: 407: Sendstring(Gentemplate,12);
  2746  00B3  30D5               	movlw	(_Gentemplate&0ffh)
  2747  00B4  00E4               	movwf	(?_Sendstring)
  2748  00B5  3000               	movlw	(0x1/2)
  2749  00B6  00E5               	movwf	(?_Sendstring+1)
  2750  00B7  300C               	movlw	(0Ch)
  2751  00B8  00ED               	movwf	(??_StorTempl+0)+0
  2752  00B9  086D               	movf	(??_StorTempl+0)+0,w
  2753  00BA  00E6               	movwf	0+(?_Sendstring)+02h
  2754  00BB  120A  158A  2777   	fcall	_Sendstring
              120A  118A         
  2755                           	line	409
  2756                           	
  2757  00C0                     l3864:	
  2758                           ;finger test.c: 409: if(aa[0]==0xef && aa[9]==0x00)
  2759  00C0  1283               	bcf	status, 5	;RP0=0, select bank0
  2760  00C1  1303               	bcf	status, 6	;RP1=0, select bank0
  2761  00C2  0820               	movf	(_aa),w
  2762  00C3  3AEF               	xorlw	0EFh
  2763  00C4  1D03               	skipz
  2764  00C5  28C7               	goto	u3611
  2765  00C6  28C8               	goto	u3610
  2766  00C7                     u3611:
  2767  00C7  2A4E               	goto	l3940
  2768  00C8                     u3610:
  2769                           	
  2770  00C8                     l3866:	
  2771  00C8  08A9               	movf	0+(_aa)+09h,f
  2772  00C9  1D03               	skipz
  2773  00CA  28CC               	goto	u3621
  2774  00CB  28CD               	goto	u3620
  2775  00CC                     u3621:
  2776  00CC  2A4E               	goto	l3940
  2777  00CD                     u3620:
  2778                           	line	411
  2779                           	
  2780  00CD                     l3868:	
  2781                           ;finger test.c: 410: {
  2782                           ;finger test.c: 411: Sendstring(Rdvlidtempl,12 );
  2783  00CD  30E1               	movlw	(_Rdvlidtempl&0ffh)
  2784  00CE  00E4               	movwf	(?_Sendstring)
  2785  00CF  3000               	movlw	(0x1/2)
  2786  00D0  00E5               	movwf	(?_Sendstring+1)
  2787  00D1  300C               	movlw	(0Ch)
  2788  00D2  00ED               	movwf	(??_StorTempl+0)+0
  2789  00D3  086D               	movf	(??_StorTempl+0)+0,w
  2790  00D4  00E6               	movwf	0+(?_Sendstring)+02h
  2791  00D5  120A  158A  2777   	fcall	_Sendstring
              120A  118A         
  2792                           	line	412
  2793                           	
  2794  00DA                     l3870:	
  2795                           ;finger test.c: 412: if(aa[0]==0xef && aa[9]==0x00)
  2796  00DA  1283               	bcf	status, 5	;RP0=0, select bank0
  2797  00DB  1303               	bcf	status, 6	;RP1=0, select bank0
  2798  00DC  0820               	movf	(_aa),w
  2799  00DD  3AEF               	xorlw	0EFh
  2800  00DE  1D03               	skipz
  2801  00DF  28E1               	goto	u3631
  2802  00E0  28E2               	goto	u3630
  2803  00E1                     u3631:
  2804  00E1  2A4E               	goto	l3940
  2805  00E2                     u3630:
  2806                           	
  2807  00E2                     l3872:	
  2808  00E2  08A9               	movf	0+(_aa)+09h,f
  2809  00E3  1D03               	skipz
  2810  00E4  28E6               	goto	u3641
  2811  00E5  28E7               	goto	u3640
  2812  00E6                     u3641:
  2813  00E6  2A4E               	goto	l3940
  2814  00E7                     u3640:
  2815                           	line	414
  2816                           	
  2817  00E7                     l3874:	
  2818                           ;finger test.c: 413: {
  2819                           ;finger test.c: 414: addr1=aa[10];
  2820  00E7  082A               	movf	0+(_aa)+0Ah,w
  2821  00E8  00ED               	movwf	(??_StorTempl+0)+0
  2822  00E9  086D               	movf	(??_StorTempl+0)+0,w
  2823  00EA  1683               	bsf	status, 5	;RP0=1, select bank1
  2824  00EB  1303               	bcf	status, 6	;RP1=0, select bank1
  2825  00EC  00EE               	movwf	(StorTempl@addr1)^080h
  2826                           	line	415
  2827                           ;finger test.c: 415: addr2=aa[11];
  2828  00ED  1283               	bcf	status, 5	;RP0=0, select bank0
  2829  00EE  1303               	bcf	status, 6	;RP1=0, select bank0
  2830  00EF  082B               	movf	0+(_aa)+0Bh,w
  2831  00F0  00ED               	movwf	(??_StorTempl+0)+0
  2832  00F1  086D               	movf	(??_StorTempl+0)+0,w
  2833  00F2  1683               	bsf	status, 5	;RP0=1, select bank1
  2834  00F3  1303               	bcf	status, 6	;RP1=0, select bank1
  2835  00F4  00EF               	movwf	(StorTempl@addr2)^080h
  2836                           	line	416
  2837                           	
  2838  00F5                     l3876:	
  2839                           ;finger test.c: 416: chksum = 0x0e +addr1 +addr2;
  2840  00F5  086F               	movf	(StorTempl@addr2)^080h,w
  2841  00F6  076E               	addwf	(StorTempl@addr1)^080h,w
  2842  00F7  3E0E               	addlw	0Eh
  2843  00F8  1283               	bcf	status, 5	;RP0=0, select bank0
  2844  00F9  1303               	bcf	status, 6	;RP1=0, select bank0
  2845  00FA  00ED               	movwf	(??_StorTempl+0)+0
  2846  00FB  086D               	movf	(??_StorTempl+0)+0,w
  2847  00FC  1683               	bsf	status, 5	;RP0=1, select bank1
  2848  00FD  1303               	bcf	status, 6	;RP1=0, select bank1
  2849  00FE  00ED               	movwf	(StorTempl@chksum)^080h
  2850                           	line	417
  2851                           	
  2852  00FF                     l3878:	
  2853                           ;finger test.c: 417: for(i=0;i<15;i++)
  2854  00FF  01F0               	clrf	(_i)
  2855  0100  01F1               	clrf	(_i+1)
  2856                           	
  2857  0101                     l3880:	
  2858  0101  0871               	movf	(_i+1),w
  2859  0102  3A80               	xorlw	80h
  2860  0103  00FF               	movwf	btemp+1
  2861  0104  3080               	movlw	(high(0Fh))^80h
  2862  0105  027F               	subwf	btemp+1,w
  2863  0106  1D03               	skipz
  2864  0107  290A               	goto	u3655
  2865  0108  300F               	movlw	low(0Fh)
  2866  0109  0270               	subwf	(_i),w
  2867  010A                     u3655:
  2868                           
  2869  010A  1C03               	skipc
  2870  010B  290D               	goto	u3651
  2871  010C  290E               	goto	u3650
  2872  010D                     u3651:
  2873  010D  2910               	goto	l3884
  2874  010E                     u3650:
  2875  010E  2961               	goto	l3902
  2876                           	
  2877  010F                     l3882:	
  2878  010F  2961               	goto	l3902
  2879                           	line	418
  2880                           	
  2881  0110                     l843:	
  2882                           	line	419
  2883                           	
  2884  0110                     l3884:	
  2885                           ;finger test.c: 418: {
  2886                           ;finger test.c: 419: if(i==11)
  2887  0110  300B               	movlw	0Bh
  2888  0111  0670               	xorwf	(_i),w
  2889  0112  0471               	iorwf	(_i+1),w
  2890  0113  1D03               	skipz
  2891  0114  2916               	goto	u3661
  2892  0115  2917               	goto	u3660
  2893  0116                     u3661:
  2894  0116  2920               	goto	l3888
  2895  0117                     u3660:
  2896                           	line	421
  2897                           	
  2898  0117                     l3886:	
  2899                           ;finger test.c: 420: {
  2900                           ;finger test.c: 421: TX(addr1);
  2901  0117  1683               	bsf	status, 5	;RP0=1, select bank1
  2902  0118  1303               	bcf	status, 6	;RP1=0, select bank1
  2903  0119  086E               	movf	(StorTempl@addr1)^080h,w
  2904  011A  120A  158A  261D   	fcall	_TX
              120A  118A         
  2905                           	line	422
  2906                           ;finger test.c: 422: }
  2907  011F  294D               	goto	l3898
  2908                           	line	423
  2909                           	
  2910  0120                     l845:	
  2911                           	
  2912  0120                     l3888:	
  2913                           ;finger test.c: 423: else if(i==12)
  2914  0120  300C               	movlw	0Ch
  2915  0121  0670               	xorwf	(_i),w
  2916  0122  0471               	iorwf	(_i+1),w
  2917  0123  1D03               	skipz
  2918  0124  2926               	goto	u3671
  2919  0125  2927               	goto	u3670
  2920  0126                     u3671:
  2921  0126  2930               	goto	l3892
  2922  0127                     u3670:
  2923                           	line	425
  2924                           	
  2925  0127                     l3890:	
  2926                           ;finger test.c: 424: {
  2927                           ;finger test.c: 425: TX(addr2);
  2928  0127  1683               	bsf	status, 5	;RP0=1, select bank1
  2929  0128  1303               	bcf	status, 6	;RP1=0, select bank1
  2930  0129  086F               	movf	(StorTempl@addr2)^080h,w
  2931  012A  120A  158A  261D   	fcall	_TX
              120A  118A         
  2932                           	line	426
  2933                           ;finger test.c: 426: }
  2934  012F  294D               	goto	l3898
  2935                           	line	427
  2936                           	
  2937  0130                     l847:	
  2938                           	
  2939  0130                     l3892:	
  2940                           ;finger test.c: 427: else if(i==14)
  2941  0130  300E               	movlw	0Eh
  2942  0131  0670               	xorwf	(_i),w
  2943  0132  0471               	iorwf	(_i+1),w
  2944  0133  1D03               	skipz
  2945  0134  2936               	goto	u3681
  2946  0135  2937               	goto	u3680
  2947  0136                     u3681:
  2948  0136  2940               	goto	l3896
  2949  0137                     u3680:
  2950                           	line	429
  2951                           	
  2952  0137                     l3894:	
  2953                           ;finger test.c: 428: {
  2954                           ;finger test.c: 429: TX(chksum);
  2955  0137  1683               	bsf	status, 5	;RP0=1, select bank1
  2956  0138  1303               	bcf	status, 6	;RP1=0, select bank1
  2957  0139  086D               	movf	(StorTempl@chksum)^080h,w
  2958  013A  120A  158A  261D   	fcall	_TX
              120A  118A         
  2959                           	line	430
  2960                           ;finger test.c: 430: }
  2961  013F  294D               	goto	l3898
  2962                           	line	432
  2963                           	
  2964  0140                     l849:	
  2965                           	line	433
  2966                           	
  2967  0140                     l3896:	
  2968                           ;finger test.c: 432: else
  2969                           ;finger test.c: 433: TX(Stortemplate[i]);
  2970  0140  0870               	movf	(_i),w
  2971  0141  3EA0               	addlw	_Stortemplate&0ffh
  2972  0142  0084               	movwf	fsr0
  2973  0143  1383               	bcf	status, 7	;select IRP bank1
  2974  0144  0800               	movf	indf,w
  2975  0145  120A  158A  261D   	fcall	_TX
              120A  118A         
  2976  014A  294D               	goto	l3898
  2977                           	
  2978  014B                     l850:	
  2979  014B  294D               	goto	l3898
  2980                           	
  2981  014C                     l848:	
  2982  014C  294D               	goto	l3898
  2983                           	
  2984  014D                     l846:	
  2985                           	line	417
  2986                           	
  2987  014D                     l3898:	
  2988  014D  3001               	movlw	low(01h)
  2989  014E  07F0               	addwf	(_i),f
  2990  014F  1803               	skipnc
  2991  0150  0AF1               	incf	(_i+1),f
  2992  0151  3000               	movlw	high(01h)
  2993  0152  07F1               	addwf	(_i+1),f
  2994                           	
  2995  0153                     l3900:	
  2996  0153  0871               	movf	(_i+1),w
  2997  0154  3A80               	xorlw	80h
  2998  0155  00FF               	movwf	btemp+1
  2999  0156  3080               	movlw	(high(0Fh))^80h
  3000  0157  027F               	subwf	btemp+1,w
  3001  0158  1D03               	skipz
  3002  0159  295C               	goto	u3695
  3003  015A  300F               	movlw	low(0Fh)
  3004  015B  0270               	subwf	(_i),w
  3005  015C                     u3695:
  3006                           
  3007  015C  1C03               	skipc
  3008  015D  295F               	goto	u3691
  3009  015E  2960               	goto	u3690
  3010  015F                     u3691:
  3011  015F  2910               	goto	l3884
  3012  0160                     u3690:
  3013  0160  2961               	goto	l3902
  3014                           	
  3015  0161                     l844:	
  3016                           	line	437
  3017                           	
  3018  0161                     l3902:	
  3019                           ;finger test.c: 435: }
  3020                           ;finger test.c: 437: delay(300);
  3021  0161  302C               	movlw	low(012Ch)
  3022  0162  1283               	bcf	status, 5	;RP0=0, select bank0
  3023  0163  1303               	bcf	status, 6	;RP1=0, select bank0
  3024  0164  00DE               	movwf	(?_delay)
  3025  0165  3001               	movlw	high(012Ch)
  3026  0166  00DF               	movwf	((?_delay))+1
  3027  0167  120A  158A  2691   	fcall	_delay
              120A  118A         
  3028                           	line	438
  3029                           	
  3030  016C                     l3904:	
  3031                           ;finger test.c: 438: if(aa[0]==0xef && aa[9]==0x00)
  3032  016C  1283               	bcf	status, 5	;RP0=0, select bank0
  3033  016D  1303               	bcf	status, 6	;RP1=0, select bank0
  3034  016E  0820               	movf	(_aa),w
  3035  016F  3AEF               	xorlw	0EFh
  3036  0170  1D03               	skipz
  3037  0171  2973               	goto	u3701
  3038  0172  2974               	goto	u3700
  3039  0173                     u3701:
  3040  0173  2999               	goto	l3912
  3041  0174                     u3700:
  3042                           	
  3043  0174                     l3906:	
  3044  0174  08A9               	movf	0+(_aa)+09h,f
  3045  0175  1D03               	skipz
  3046  0176  2978               	goto	u3711
  3047  0177  2979               	goto	u3710
  3048  0178                     u3711:
  3049  0178  2999               	goto	l3912
  3050  0179                     u3710:
  3051                           	line	440
  3052                           	
  3053  0179                     l3908:	
  3054                           ;finger test.c: 439: {
  3055                           ;finger test.c: 440: lcdcmd(0x01);
  3056  0179  3001               	movlw	low(01h)
  3057  017A  00E4               	movwf	(?_lcdcmd)
  3058  017B  3000               	movlw	high(01h)
  3059  017C  00E5               	movwf	((?_lcdcmd))+1
  3060  017D  120A  158A  27B8   	fcall	_lcdcmd
              120A  118A         
  3061                           	line	441
  3062                           ;finger test.c: 441: delay(10);
  3063  0182  300A               	movlw	low(0Ah)
  3064  0183  1283               	bcf	status, 5	;RP0=0, select bank0
  3065  0184  1303               	bcf	status, 6	;RP1=0, select bank0
  3066  0185  00DE               	movwf	(?_delay)
  3067  0186  3000               	movlw	high(0Ah)
  3068  0187  00DF               	movwf	((?_delay))+1
  3069  0188  120A  158A  2691   	fcall	_delay
              120A  118A         
  3070                           	line	442
  3071                           	
  3072  018D                     l3910:	
  3073                           ;finger test.c: 442: display("New finger added");
  3074  018D  3055               	movlw	low(STR_15|8000h)
  3075  018E  1283               	bcf	status, 5	;RP0=0, select bank0
  3076  018F  1303               	bcf	status, 6	;RP1=0, select bank0
  3077  0190  00E9               	movwf	(?_display)
  3078  0191  3086               	movlw	high(STR_15|8000h)
  3079  0192  00EA               	movwf	((?_display))+1
  3080  0193  120A  158A  26FC   	fcall	_display
              120A  118A         
  3081                           	line	443
  3082                           ;finger test.c: 443: }
  3083  0198  2A4E               	goto	l3940
  3084                           	line	444
  3085                           	
  3086  0199                     l851:	
  3087                           	line	445
  3088                           	
  3089  0199                     l3912:	
  3090                           ;finger test.c: 444: else
  3091                           ;finger test.c: 445: errorDisplay();
  3092  0199  120A  118A  25DB   	fcall	_errorDisplay
              120A  118A         
  3093  019E  2A4E               	goto	l3940
  3094                           	
  3095  019F                     l852:	
  3096  019F  2A4E               	goto	l3940
  3097                           	line	447
  3098                           	
  3099  01A0                     l842:	
  3100  01A0  2A4E               	goto	l3940
  3101                           	line	452
  3102                           	
  3103  01A1                     l841:	
  3104                           	line	455
  3105                           ;finger test.c: 447: }
  3106                           ;finger test.c: 452: }
  3107                           ;finger test.c: 455: }
  3108  01A1  2A4E               	goto	l3940
  3109                           	line	456
  3110                           	
  3111  01A2                     l840:	
  3112                           	line	457
  3113                           	
  3114  01A2                     l3914:	
  3115                           ;finger test.c: 456: else
  3116                           ;finger test.c: 457: errorDisplay();
  3117  01A2  120A  118A  25DB   	fcall	_errorDisplay
              120A  118A         
  3118  01A7  2A4E               	goto	l3940
  3119                           	
  3120  01A8                     l853:	
  3121  01A8  2A4E               	goto	l3940
  3122                           	line	458
  3123                           	
  3124  01A9                     l839:	
  3125                           	line	459
  3126                           ;finger test.c: 458: }
  3127                           ;finger test.c: 459: }
  3128  01A9  2A4E               	goto	l3940
  3129                           	line	460
  3130                           	
  3131  01AA                     l838:	
  3132                           	line	461
  3133                           	
  3134  01AA                     l3916:	
  3135                           ;finger test.c: 460: else
  3136                           ;finger test.c: 461: errorDisplay();
  3137  01AA  120A  118A  25DB   	fcall	_errorDisplay
              120A  118A         
  3138  01AF  2A4E               	goto	l3940
  3139                           	
  3140  01B0                     l854:	
  3141                           	line	463
  3142                           ;finger test.c: 463: }
  3143  01B0  2A4E               	goto	l3940
  3144                           	line	468
  3145                           	
  3146  01B1                     l837:	
  3147                           	
  3148  01B1                     l3918:	
  3149                           ;finger test.c: 468: else if(aa[9]==0x01)
  3150  01B1  1283               	bcf	status, 5	;RP0=0, select bank0
  3151  01B2  1303               	bcf	status, 6	;RP1=0, select bank0
  3152  01B3  0829               	movf	0+(_aa)+09h,w
  3153  01B4  3A01               	xorlw	01h
  3154  01B5  1D03               	skipz
  3155  01B6  29B8               	goto	u3721
  3156  01B7  29B9               	goto	u3720
  3157  01B8                     u3721:
  3158  01B8  29D9               	goto	l3924
  3159  01B9                     u3720:
  3160                           	line	470
  3161                           	
  3162  01B9                     l3920:	
  3163                           ;finger test.c: 469: {
  3164                           ;finger test.c: 470: lcdcmd(0x01);
  3165  01B9  3001               	movlw	low(01h)
  3166  01BA  00E4               	movwf	(?_lcdcmd)
  3167  01BB  3000               	movlw	high(01h)
  3168  01BC  00E5               	movwf	((?_lcdcmd))+1
  3169  01BD  120A  158A  27B8   	fcall	_lcdcmd
              120A  118A         
  3170                           	line	471
  3171                           ;finger test.c: 471: delay(10);
  3172  01C2  300A               	movlw	low(0Ah)
  3173  01C3  1283               	bcf	status, 5	;RP0=0, select bank0
  3174  01C4  1303               	bcf	status, 6	;RP1=0, select bank0
  3175  01C5  00DE               	movwf	(?_delay)
  3176  01C6  3000               	movlw	high(0Ah)
  3177  01C7  00DF               	movwf	((?_delay))+1
  3178  01C8  120A  158A  2691   	fcall	_delay
              120A  118A         
  3179                           	line	472
  3180                           	
  3181  01CD                     l3922:	
  3182                           ;finger test.c: 472: display("  error  ");
  3183  01CD  30F7               	movlw	low(STR_16|8000h)
  3184  01CE  1283               	bcf	status, 5	;RP0=0, select bank0
  3185  01CF  1303               	bcf	status, 6	;RP1=0, select bank0
  3186  01D0  00E9               	movwf	(?_display)
  3187  01D1  3086               	movlw	high(STR_16|8000h)
  3188  01D2  00EA               	movwf	((?_display))+1
  3189  01D3  120A  158A  26FC   	fcall	_display
              120A  118A         
  3190                           	line	473
  3191                           ;finger test.c: 473: }
  3192  01D8  2A4E               	goto	l3940
  3193                           	line	474
  3194                           	
  3195  01D9                     l856:	
  3196                           	
  3197  01D9                     l3924:	
  3198                           ;finger test.c: 474: else if(aa[9]==0x02)
  3199  01D9  1283               	bcf	status, 5	;RP0=0, select bank0
  3200  01DA  1303               	bcf	status, 6	;RP1=0, select bank0
  3201  01DB  0829               	movf	0+(_aa)+09h,w
  3202  01DC  3A02               	xorlw	02h
  3203  01DD  1D03               	skipz
  3204  01DE  29E0               	goto	u3731
  3205  01DF  29E1               	goto	u3730
  3206  01E0                     u3731:
  3207  01E0  2A01               	goto	l3930
  3208  01E1                     u3730:
  3209                           	line	476
  3210                           	
  3211  01E1                     l3926:	
  3212                           ;finger test.c: 475: {
  3213                           ;finger test.c: 476: lcdcmd(0x01);
  3214  01E1  3001               	movlw	low(01h)
  3215  01E2  00E4               	movwf	(?_lcdcmd)
  3216  01E3  3000               	movlw	high(01h)
  3217  01E4  00E5               	movwf	((?_lcdcmd))+1
  3218  01E5  120A  158A  27B8   	fcall	_lcdcmd
              120A  118A         
  3219                           	line	477
  3220                           ;finger test.c: 477: delay(10);
  3221  01EA  300A               	movlw	low(0Ah)
  3222  01EB  1283               	bcf	status, 5	;RP0=0, select bank0
  3223  01EC  1303               	bcf	status, 6	;RP1=0, select bank0
  3224  01ED  00DE               	movwf	(?_delay)
  3225  01EE  3000               	movlw	high(0Ah)
  3226  01EF  00DF               	movwf	((?_delay))+1
  3227  01F0  120A  158A  2691   	fcall	_delay
              120A  118A         
  3228                           	line	478
  3229                           	
  3230  01F5                     l3928:	
  3231                           ;finger test.c: 478: display("  no finger  ");
  3232  01F5  30A6               	movlw	low(STR_17|8000h)
  3233  01F6  1283               	bcf	status, 5	;RP0=0, select bank0
  3234  01F7  1303               	bcf	status, 6	;RP1=0, select bank0
  3235  01F8  00E9               	movwf	(?_display)
  3236  01F9  3086               	movlw	high(STR_17|8000h)
  3237  01FA  00EA               	movwf	((?_display))+1
  3238  01FB  120A  158A  26FC   	fcall	_display
              120A  118A         
  3239                           	line	479
  3240                           ;finger test.c: 479: }
  3241  0200  2A4E               	goto	l3940
  3242                           	line	480
  3243                           	
  3244  0201                     l858:	
  3245                           	
  3246  0201                     l3930:	
  3247                           ;finger test.c: 480: else if(aa[9]==0x03)
  3248  0201  1283               	bcf	status, 5	;RP0=0, select bank0
  3249  0202  1303               	bcf	status, 6	;RP1=0, select bank0
  3250  0203  0829               	movf	0+(_aa)+09h,w
  3251  0204  3A03               	xorlw	03h
  3252  0205  1D03               	skipz
  3253  0206  2A08               	goto	u3741
  3254  0207  2A09               	goto	u3740
  3255  0208                     u3741:
  3256  0208  2A29               	goto	l3936
  3257  0209                     u3740:
  3258                           	line	482
  3259                           	
  3260  0209                     l3932:	
  3261                           ;finger test.c: 481: {
  3262                           ;finger test.c: 482: lcdcmd(0x01);
  3263  0209  3001               	movlw	low(01h)
  3264  020A  00E4               	movwf	(?_lcdcmd)
  3265  020B  3000               	movlw	high(01h)
  3266  020C  00E5               	movwf	((?_lcdcmd))+1
  3267  020D  120A  158A  27B8   	fcall	_lcdcmd
              120A  118A         
  3268                           	line	483
  3269                           ;finger test.c: 483: delay(10);
  3270  0212  300A               	movlw	low(0Ah)
  3271  0213  1283               	bcf	status, 5	;RP0=0, select bank0
  3272  0214  1303               	bcf	status, 6	;RP1=0, select bank0
  3273  0215  00DE               	movwf	(?_delay)
  3274  0216  3000               	movlw	high(0Ah)
  3275  0217  00DF               	movwf	((?_delay))+1
  3276  0218  120A  158A  2691   	fcall	_delay
              120A  118A         
  3277                           	line	484
  3278                           	
  3279  021D                     l3934:	
  3280                           ;finger test.c: 484: display("  fail  ");
  3281  021D  3001               	movlw	low(STR_18|8000h)
  3282  021E  1283               	bcf	status, 5	;RP0=0, select bank0
  3283  021F  1303               	bcf	status, 6	;RP1=0, select bank0
  3284  0220  00E9               	movwf	(?_display)
  3285  0221  3087               	movlw	high(STR_18|8000h)
  3286  0222  00EA               	movwf	((?_display))+1
  3287  0223  120A  158A  26FC   	fcall	_display
              120A  118A         
  3288                           	line	485
  3289                           ;finger test.c: 485: }
  3290  0228  2A4E               	goto	l3940
  3291                           	line	486
  3292                           	
  3293  0229                     l860:	
  3294                           	line	488
  3295                           	
  3296  0229                     l3936:	
  3297                           ;finger test.c: 486: else
  3298                           ;finger test.c: 487: {
  3299                           ;finger test.c: 488: lcdcmd(0x01);
  3300  0229  3001               	movlw	low(01h)
  3301  022A  1283               	bcf	status, 5	;RP0=0, select bank0
  3302  022B  1303               	bcf	status, 6	;RP1=0, select bank0
  3303  022C  00E4               	movwf	(?_lcdcmd)
  3304  022D  3000               	movlw	high(01h)
  3305  022E  00E5               	movwf	((?_lcdcmd))+1
  3306  022F  120A  158A  27B8   	fcall	_lcdcmd
              120A  118A         
  3307                           	line	489
  3308                           ;finger test.c: 489: delay(10);
  3309  0234  300A               	movlw	low(0Ah)
  3310  0235  1283               	bcf	status, 5	;RP0=0, select bank0
  3311  0236  1303               	bcf	status, 6	;RP1=0, select bank0
  3312  0237  00DE               	movwf	(?_delay)
  3313  0238  3000               	movlw	high(0Ah)
  3314  0239  00DF               	movwf	((?_delay))+1
  3315  023A  120A  158A  2691   	fcall	_delay
              120A  118A         
  3316                           	line	490
  3317                           	
  3318  023F                     l3938:	
  3319                           ;finger test.c: 490: display("  com error  ");
  3320  023F  30B4               	movlw	low(STR_19|8000h)
  3321  0240  1283               	bcf	status, 5	;RP0=0, select bank0
  3322  0241  1303               	bcf	status, 6	;RP1=0, select bank0
  3323  0242  00E9               	movwf	(?_display)
  3324  0243  3086               	movlw	high(STR_19|8000h)
  3325  0244  00EA               	movwf	((?_display))+1
  3326  0245  120A  158A  26FC   	fcall	_display
              120A  118A         
  3327  024A  2A4E               	goto	l3940
  3328                           	line	491
  3329                           	
  3330  024B                     l861:	
  3331  024B  2A4E               	goto	l3940
  3332                           	
  3333  024C                     l859:	
  3334  024C  2A4E               	goto	l3940
  3335                           	
  3336  024D                     l857:	
  3337  024D  2A4E               	goto	l3940
  3338                           	
  3339  024E                     l855:	
  3340                           	line	492
  3341                           	
  3342  024E                     l3940:	
  3343                           ;finger test.c: 491: }
  3344                           ;finger test.c: 492: for(i=0;i<12;i++)
  3345  024E  01F0               	clrf	(_i)
  3346  024F  01F1               	clrf	(_i+1)
  3347                           	
  3348  0250                     l3942:	
  3349  0250  0871               	movf	(_i+1),w
  3350  0251  3A80               	xorlw	80h
  3351  0252  00FF               	movwf	btemp+1
  3352  0253  3080               	movlw	(high(0Ch))^80h
  3353  0254  027F               	subwf	btemp+1,w
  3354  0255  1D03               	skipz
  3355  0256  2A59               	goto	u3755
  3356  0257  300C               	movlw	low(0Ch)
  3357  0258  0270               	subwf	(_i),w
  3358  0259                     u3755:
  3359                           
  3360  0259  1C03               	skipc
  3361  025A  2A5C               	goto	u3751
  3362  025B  2A5D               	goto	u3750
  3363  025C                     u3751:
  3364  025C  2A5F               	goto	l3946
  3365  025D                     u3750:
  3366  025D  2A7A               	goto	l864
  3367                           	
  3368  025E                     l3944:	
  3369  025E  2A7A               	goto	l864
  3370                           	line	493
  3371                           	
  3372  025F                     l862:	
  3373                           	line	494
  3374                           	
  3375  025F                     l3946:	
  3376                           ;finger test.c: 493: {
  3377                           ;finger test.c: 494: aa[ii]=0x00;
  3378  025F  1283               	bcf	status, 5	;RP0=0, select bank0
  3379  0260  1303               	bcf	status, 6	;RP1=0, select bank0
  3380  0261  0854               	movf	(_ii),w
  3381  0262  3E20               	addlw	_aa&0ffh
  3382  0263  0084               	movwf	fsr0
  3383  0264  1383               	bcf	status, 7	;select IRP bank0
  3384  0265  0180               	clrf	indf
  3385                           	line	492
  3386                           	
  3387  0266                     l3948:	
  3388  0266  3001               	movlw	low(01h)
  3389  0267  07F0               	addwf	(_i),f
  3390  0268  1803               	skipnc
  3391  0269  0AF1               	incf	(_i+1),f
  3392  026A  3000               	movlw	high(01h)
  3393  026B  07F1               	addwf	(_i+1),f
  3394                           	
  3395  026C                     l3950:	
  3396  026C  0871               	movf	(_i+1),w
  3397  026D  3A80               	xorlw	80h
  3398  026E  00FF               	movwf	btemp+1
  3399  026F  3080               	movlw	(high(0Ch))^80h
  3400  0270  027F               	subwf	btemp+1,w
  3401  0271  1D03               	skipz
  3402  0272  2A75               	goto	u3765
  3403  0273  300C               	movlw	low(0Ch)
  3404  0274  0270               	subwf	(_i),w
  3405  0275                     u3765:
  3406                           
  3407  0275  1C03               	skipc
  3408  0276  2A78               	goto	u3761
  3409  0277  2A79               	goto	u3760
  3410  0278                     u3761:
  3411  0278  2A5F               	goto	l3946
  3412  0279                     u3760:
  3413  0279  2A7A               	goto	l864
  3414                           	
  3415  027A                     l863:	
  3416                           	line	500
  3417                           	
  3418  027A                     l864:	
  3419  027A  0008               	return
  3420                           	opt stack 0
  3421                           GLOBAL	__end_of_StorTempl
  3422  027B                     	__end_of_StorTempl:
  3423 ;; =============== function _StorTempl ends ============
  3424                           
  3425                           	signat	_StorTempl,88
  3426                           	global	_errorDisplay
  3427                           psect	text557,local,class=CODE,delta=2
  3428                           global __ptext557
  3429  05DB                     __ptext557:
  3430                           
  3431 ;; *************** function _errorDisplay *****************
  3432 ;; Defined at:
  3433 ;;		line 562 in file "F:\pic projects\finger voting machine\finger test.c"
  3434 ;; Parameters:    Size  Location     Type
  3435 ;;		None
  3436 ;; Auto vars:     Size  Location     Type
  3437 ;;		None
  3438 ;; Return value:  Size  Location     Type
  3439 ;;		None               void
  3440 ;; Registers used:
  3441 ;;		wreg, fsr0l, fsr0h, status,2, status,0, btemp+1, pclath, cstack
  3442 ;; Tracked objects:
  3443 ;;		On entry : 0/0
  3444 ;;		On exit  : 0/0
  3445 ;;		Unchanged: 0/0
  3446 ;; Data sizes:     COMMON   BANK0   BANK1   BANK3   BANK2
  3447 ;;      Params:         0       0       0       0       0
  3448 ;;      Locals:         0       0       0       0       0
  3449 ;;      Temps:          0       0       0       0       0
  3450 ;;      Totals:         0       0       0       0       0
  3451 ;;Total ram usage:        0 bytes
  3452 ;; Hardware stack levels used:    1
  3453 ;; Hardware stack levels required when called:    4
  3454 ;; This function calls:
  3455 ;;		_lcdcmd
  3456 ;;		_delay
  3457 ;;		_display
  3458 ;; This function is called by:
  3459 ;;		_StorTempl
  3460 ;;		_SrchFinger
  3461 ;; This function uses a non-reentrant model
  3462 ;;
  3463                           psect	text557
  3464                           	file	"F:\pic projects\finger voting machine\finger test.c"
  3465                           	line	562
  3466                           	global	__size_of_errorDisplay
  3467  0022                     	__size_of_errorDisplay	equ	__end_of_errorDisplay-_errorDisplay
  3468                           	
  3469  05DB                     _errorDisplay:	
  3470                           	opt	stack 2
  3471                           ; Regs used in _errorDisplay: [wreg-fsr0h+status,2+status,0+btemp+1+pclath+cstack]
  3472                           	line	563
  3473                           	
  3474  05DB                     l3822:	
  3475                           ;finger test.c: 563: lcdcmd(0x01);
  3476  05DB  3001               	movlw	low(01h)
  3477  05DC  1283               	bcf	status, 5	;RP0=0, select bank0
  3478  05DD  1303               	bcf	status, 6	;RP1=0, select bank0
  3479  05DE  00E4               	movwf	(?_lcdcmd)
  3480  05DF  3000               	movlw	high(01h)
  3481  05E0  00E5               	movwf	((?_lcdcmd))+1
  3482  05E1  120A  158A  27B8   	fcall	_lcdcmd
              120A  118A         
  3483                           	line	564
  3484                           ;finger test.c: 564: delay(10);
  3485  05E6  300A               	movlw	low(0Ah)
  3486  05E7  1283               	bcf	status, 5	;RP0=0, select bank0
  3487  05E8  1303               	bcf	status, 6	;RP1=0, select bank0
  3488  05E9  00DE               	movwf	(?_delay)
  3489  05EA  3000               	movlw	high(0Ah)
  3490  05EB  00DF               	movwf	((?_delay))+1
  3491  05EC  120A  158A  2691   	fcall	_delay
              120A  118A         
  3492                           	line	565
  3493                           	
  3494  05F1                     l3824:	
  3495                           ;finger test.c: 565: display(" error  ");
  3496  05F1  30F8               	movlw	low(STR_23|8000h)
  3497  05F2  1283               	bcf	status, 5	;RP0=0, select bank0
  3498  05F3  1303               	bcf	status, 6	;RP1=0, select bank0
  3499  05F4  00E9               	movwf	(?_display)
  3500  05F5  3086               	movlw	high(STR_23|8000h)
  3501  05F6  00EA               	movwf	((?_display))+1
  3502  05F7  120A  158A  26FC   	fcall	_display
              120A  118A         
  3503                           	line	566
  3504                           	
  3505  05FC                     l881:	
  3506  05FC  0008               	return
  3507                           	opt stack 0
  3508                           GLOBAL	__end_of_errorDisplay
  3509  05FD                     	__end_of_errorDisplay:
  3510 ;; =============== function _errorDisplay ends ============
  3511                           
  3512                           	signat	_errorDisplay,88
  3513                           	global	_storChar2
  3514                           psect	text558,local,class=CODE,delta=2
  3515                           global __ptext558
  3516  0E4B                     __ptext558:
  3517                           
  3518 ;; *************** function _storChar2 *****************
  3519 ;; Defined at:
  3520 ;;		line 378 in file "F:\pic projects\finger voting machine\finger test.c"
  3521 ;; Parameters:    Size  Location     Type
  3522 ;;		None
  3523 ;; Auto vars:     Size  Location     Type
  3524 ;;		None
  3525 ;; Return value:  Size  Location     Type
  3526 ;;		None               void
  3527 ;; Registers used:
  3528 ;;		wreg, fsr0l, fsr0h, status,2, status,0, pclath, cstack
  3529 ;; Tracked objects:
  3530 ;;		On entry : 0/0
  3531 ;;		On exit  : 0/0
  3532 ;;		Unchanged: 0/0
  3533 ;; Data sizes:     COMMON   BANK0   BANK1   BANK3   BANK2
  3534 ;;      Params:         0       0       0       0       0
  3535 ;;      Locals:         0       0       0       0       0
  3536 ;;      Temps:          0       1       0       0       0
  3537 ;;      Totals:         0       1       0       0       0
  3538 ;;Total ram usage:        1 bytes
  3539 ;; Hardware stack levels used:    1
  3540 ;; Hardware stack levels required when called:    3
  3541 ;; This function calls:
  3542 ;;		_Sendstring
  3543 ;; This function is called by:
  3544 ;;		_StorTempl
  3545 ;;		_SrchFinger
  3546 ;; This function uses a non-reentrant model
  3547 ;;
  3548                           psect	text558
  3549                           	file	"F:\pic projects\finger voting machine\finger test.c"
  3550                           	line	378
  3551                           	global	__size_of_storChar2
  3552  0010                     	__size_of_storChar2	equ	__end_of_storChar2-_storChar2
  3553                           	
  3554  0E4B                     _storChar2:	
  3555                           	opt	stack 3
  3556                           ; Regs used in _storChar2: [wreg-fsr0h+status,2+status,0+pclath+cstack]
  3557                           	line	379
  3558                           	
  3559  0E4B                     l3820:	
  3560                           ;finger test.c: 379: Sendstring(Genchar2,13);
  3561  0E4B  30BC               	movlw	(_Genchar2&0ffh)
  3562  0E4C  1283               	bcf	status, 5	;RP0=0, select bank0
  3563  0E4D  1303               	bcf	status, 6	;RP1=0, select bank0
  3564  0E4E  00E4               	movwf	(?_Sendstring)
  3565  0E4F  3000               	movlw	(0x1/2)
  3566  0E50  00E5               	movwf	(?_Sendstring+1)
  3567  0E51  300D               	movlw	(0Dh)
  3568  0E52  00EA               	movwf	(??_storChar2+0)+0
  3569  0E53  086A               	movf	(??_storChar2+0)+0,w
  3570  0E54  00E6               	movwf	0+(?_Sendstring)+02h
  3571  0E55  120A  158A  2777   	fcall	_Sendstring
              120A  158A         
  3572                           	line	380
  3573                           	
  3574  0E5A                     l834:	
  3575  0E5A  0008               	return
  3576                           	opt stack 0
  3577                           GLOBAL	__end_of_storChar2
  3578  0E5B                     	__end_of_storChar2:
  3579 ;; =============== function _storChar2 ends ============
  3580                           
  3581                           	signat	_storChar2,88
  3582                           	global	_storChar1
  3583                           psect	text559,local,class=CODE,delta=2
  3584                           global __ptext559
  3585  0E3B                     __ptext559:
  3586                           
  3587 ;; *************** function _storChar1 *****************
  3588 ;; Defined at:
  3589 ;;		line 371 in file "F:\pic projects\finger voting machine\finger test.c"
  3590 ;; Parameters:    Size  Location     Type
  3591 ;;		None
  3592 ;; Auto vars:     Size  Location     Type
  3593 ;;		None
  3594 ;; Return value:  Size  Location     Type
  3595 ;;		None               void
  3596 ;; Registers used:
  3597 ;;		wreg, fsr0l, fsr0h, status,2, status,0, pclath, cstack
  3598 ;; Tracked objects:
  3599 ;;		On entry : 0/0
  3600 ;;		On exit  : 0/0
  3601 ;;		Unchanged: 0/0
  3602 ;; Data sizes:     COMMON   BANK0   BANK1   BANK3   BANK2
  3603 ;;      Params:         0       0       0       0       0
  3604 ;;      Locals:         0       0       0       0       0
  3605 ;;      Temps:          0       1       0       0       0
  3606 ;;      Totals:         0       1       0       0       0
  3607 ;;Total ram usage:        1 bytes
  3608 ;; Hardware stack levels used:    1
  3609 ;; Hardware stack levels required when called:    3
  3610 ;; This function calls:
  3611 ;;		_Sendstring
  3612 ;; This function is called by:
  3613 ;;		_StorTempl
  3614 ;;		_SrchFinger
  3615 ;; This function uses a non-reentrant model
  3616 ;;
  3617                           psect	text559
  3618                           	file	"F:\pic projects\finger voting machine\finger test.c"
  3619                           	line	371
  3620                           	global	__size_of_storChar1
  3621  0010                     	__size_of_storChar1	equ	__end_of_storChar1-_storChar1
  3622                           	
  3623  0E3B                     _storChar1:	
  3624                           	opt	stack 3
  3625                           ; Regs used in _storChar1: [wreg-fsr0h+status,2+status,0+pclath+cstack]
  3626                           	line	372
  3627                           	
  3628  0E3B                     l3818:	
  3629                           ;finger test.c: 372: Sendstring(Genchar1,13);
  3630  0E3B  30AF               	movlw	(_Genchar1&0ffh)
  3631  0E3C  1283               	bcf	status, 5	;RP0=0, select bank0
  3632  0E3D  1303               	bcf	status, 6	;RP1=0, select bank0
  3633  0E3E  00E4               	movwf	(?_Sendstring)
  3634  0E3F  3000               	movlw	(0x1/2)
  3635  0E40  00E5               	movwf	(?_Sendstring+1)
  3636  0E41  300D               	movlw	(0Dh)
  3637  0E42  00EA               	movwf	(??_storChar1+0)+0
  3638  0E43  086A               	movf	(??_storChar1+0)+0,w
  3639  0E44  00E6               	movwf	0+(?_Sendstring)+02h
  3640  0E45  120A  158A  2777   	fcall	_Sendstring
              120A  158A         
  3641                           	line	373
  3642                           	
  3643  0E4A                     l831:	
  3644  0E4A  0008               	return
  3645                           	opt stack 0
  3646                           GLOBAL	__end_of_storChar1
  3647  0E4B                     	__end_of_storChar1:
  3648 ;; =============== function _storChar1 ends ============
  3649                           
  3650                           	signat	_storChar1,88
  3651                           	global	_Readfinger
  3652                           psect	text560,local,class=CODE,delta=2
  3653                           global __ptext560
  3654  0E2B                     __ptext560:
  3655                           
  3656 ;; *************** function _Readfinger *****************
  3657 ;; Defined at:
  3658 ;;		line 364 in file "F:\pic projects\finger voting machine\finger test.c"
  3659 ;; Parameters:    Size  Location     Type
  3660 ;;		None
  3661 ;; Auto vars:     Size  Location     Type
  3662 ;;		None
  3663 ;; Return value:  Size  Location     Type
  3664 ;;		None               void
  3665 ;; Registers used:
  3666 ;;		wreg, fsr0l, fsr0h, status,2, status,0, pclath, cstack
  3667 ;; Tracked objects:
  3668 ;;		On entry : 0/0
  3669 ;;		On exit  : 0/0
  3670 ;;		Unchanged: 0/0
  3671 ;; Data sizes:     COMMON   BANK0   BANK1   BANK3   BANK2
  3672 ;;      Params:         0       0       0       0       0
  3673 ;;      Locals:         0       0       0       0       0
  3674 ;;      Temps:          0       1       0       0       0
  3675 ;;      Totals:         0       1       0       0       0
  3676 ;;Total ram usage:        1 bytes
  3677 ;; Hardware stack levels used:    1
  3678 ;; Hardware stack levels required when called:    3
  3679 ;; This function calls:
  3680 ;;		_Sendstring
  3681 ;; This function is called by:
  3682 ;;		_StorTempl
  3683 ;;		_SrchFinger
  3684 ;; This function uses a non-reentrant model
  3685 ;;
  3686                           psect	text560
  3687                           	file	"F:\pic projects\finger voting machine\finger test.c"
  3688                           	line	364
  3689                           	global	__size_of_Readfinger
  3690  0010                     	__size_of_Readfinger	equ	__end_of_Readfinger-_Readfinger
  3691                           	
  3692  0E2B                     _Readfinger:	
  3693                           	opt	stack 3
  3694                           ; Regs used in _Readfinger: [wreg-fsr0h+status,2+status,0+pclath+cstack]
  3695                           	line	365
  3696                           	
  3697  0E2B                     l3816:	
  3698                           ;finger test.c: 365: Sendstring(GenImg,12);
  3699  0E2B  30C9               	movlw	(_GenImg&0ffh)
  3700  0E2C  1283               	bcf	status, 5	;RP0=0, select bank0
  3701  0E2D  1303               	bcf	status, 6	;RP1=0, select bank0
  3702  0E2E  00E4               	movwf	(?_Sendstring)
  3703  0E2F  3000               	movlw	(0x1/2)
  3704  0E30  00E5               	movwf	(?_Sendstring+1)
  3705  0E31  300C               	movlw	(0Ch)
  3706  0E32  00EA               	movwf	(??_Readfinger+0)+0
  3707  0E33  086A               	movf	(??_Readfinger+0)+0,w
  3708  0E34  00E6               	movwf	0+(?_Sendstring)+02h
  3709  0E35  120A  158A  2777   	fcall	_Sendstring
              120A  158A         
  3710                           	line	366
  3711                           	
  3712  0E3A                     l828:	
  3713  0E3A  0008               	return
  3714                           	opt stack 0
  3715                           GLOBAL	__end_of_Readfinger
  3716  0E3B                     	__end_of_Readfinger:
  3717 ;; =============== function _Readfinger ends ============
  3718                           
  3719                           	signat	_Readfinger,88
  3720                           	global	_display
  3721                           psect	text561,local,class=CODE,delta=2
  3722                           global __ptext561
  3723  0EFC                     __ptext561:
  3724                           
  3725 ;; *************** function _display *****************
  3726 ;; Defined at:
  3727 ;;		line 340 in file "F:\pic projects\finger voting machine\finger test.c"
  3728 ;; Parameters:    Size  Location     Type
  3729 ;;  p               2   11[BANK0 ] PTR unsigned char 
  3730 ;;		 -> STR_23(9), STR_22(13), STR_21(16), STR_20(14), 
  3731 ;;		 -> STR_19(14), STR_18(9), STR_17(14), STR_16(10), 
  3732 ;;		 -> STR_15(17), STR_14(17), STR_13(17), STR_12(14), 
  3733 ;;		 -> STR_11(13), STR_10(17), STR_9(17), STR_8(14), 
  3734 ;;		 -> STR_7(13), STR_6(17), STR_5(17), STR_4(17), 
  3735 ;;		 -> STR_3(17), STR_2(17), STR_1(17), 
  3736 ;; Auto vars:     Size  Location     Type
  3737 ;;		None
  3738 ;; Return value:  Size  Location     Type
  3739 ;;		None               void
  3740 ;; Registers used:
  3741 ;;		wreg, fsr0l, fsr0h, status,2, status,0, btemp+1, pclath, cstack
  3742 ;; Tracked objects:
  3743 ;;		On entry : 0/0
  3744 ;;		On exit  : 0/0
  3745 ;;		Unchanged: 0/0
  3746 ;; Data sizes:     COMMON   BANK0   BANK1   BANK3   BANK2
  3747 ;;      Params:         0       2       0       0       0
  3748 ;;      Locals:         0       0       0       0       0
  3749 ;;      Temps:          0       2       0       0       0
  3750 ;;      Totals:         0       4       0       0       0
  3751 ;;Total ram usage:        4 bytes
  3752 ;; Hardware stack levels used:    1
  3753 ;; Hardware stack levels required when called:    3
  3754 ;; This function calls:
  3755 ;;		_lcddata
  3756 ;;		_delay
  3757 ;; This function is called by:
  3758 ;;		_main
  3759 ;;		_StorTempl
  3760 ;;		_SrchFinger
  3761 ;;		_errorDisplay
  3762 ;; This function uses a non-reentrant model
  3763 ;;
  3764                           psect	text561
  3765                           	file	"F:\pic projects\finger voting machine\finger test.c"
  3766                           	line	340
  3767                           	global	__size_of_display
  3768  003D                     	__size_of_display	equ	__end_of_display-_display
  3769                           	
  3770  0EFC                     _display:	
  3771                           	opt	stack 2
  3772                           ; Regs used in _display: [wreg-fsr0h+status,2+status,0+btemp+1+pclath+cstack]
  3773                           	line	341
  3774                           	
  3775  0EFC                     l3806:	
  3776                           ;finger test.c: 341: while (*p)
  3777  0EFC  2F27               	goto	l3814
  3778                           	
  3779  0EFD                     l817:	
  3780                           	line	343
  3781                           	
  3782  0EFD                     l3808:	
  3783                           ;finger test.c: 342: {
  3784                           ;finger test.c: 343: lcddata(*p);
  3785  0EFD  1283               	bcf	status, 5	;RP0=0, select bank0
  3786  0EFE  1303               	bcf	status, 6	;RP1=0, select bank0
  3787  0EFF  086A               	movf	(display@p+1),w
  3788  0F00  00FF               	movwf	btemp+1
  3789  0F01  0869               	movf	(display@p),w
  3790  0F02  0084               	movwf	fsr0
  3791  0F03  120A  158A  2000   	fcall	stringtab
              120A  158A         
  3792  0F08  00EB               	movwf	(??_display+0)+0
  3793  0F09  01EC               	clrf	(??_display+0)+0+1
  3794  0F0A  086B               	movf	0+(??_display+0)+0,w
  3795  0F0B  00E4               	movwf	(?_lcddata)
  3796  0F0C  086C               	movf	1+(??_display+0)+0,w
  3797  0F0D  00E5               	movwf	(?_lcddata+1)
  3798  0F0E  120A  118A  2593   	fcall	_lcddata
              120A  158A         
  3799                           	line	344
  3800                           	
  3801  0F13                     l3810:	
  3802                           ;finger test.c: 344: delay(1);
  3803  0F13  3001               	movlw	low(01h)
  3804  0F14  1283               	bcf	status, 5	;RP0=0, select bank0
  3805  0F15  1303               	bcf	status, 6	;RP1=0, select bank0
  3806  0F16  00DE               	movwf	(?_delay)
  3807  0F17  3000               	movlw	high(01h)
  3808  0F18  00DF               	movwf	((?_delay))+1
  3809  0F19  120A  158A  2691   	fcall	_delay
              120A  158A         
  3810                           	line	345
  3811                           	
  3812  0F1E                     l3812:	
  3813                           ;finger test.c: 345: p++;
  3814  0F1E  3001               	movlw	low(01h)
  3815  0F1F  1283               	bcf	status, 5	;RP0=0, select bank0
  3816  0F20  1303               	bcf	status, 6	;RP1=0, select bank0
  3817  0F21  07E9               	addwf	(display@p),f
  3818  0F22  1803               	skipnc
  3819  0F23  0AEA               	incf	(display@p+1),f
  3820  0F24  3000               	movlw	high(01h)
  3821  0F25  07EA               	addwf	(display@p+1),f
  3822  0F26  2F27               	goto	l3814
  3823                           	line	346
  3824                           	
  3825  0F27                     l816:	
  3826                           	line	341
  3827                           	
  3828  0F27                     l3814:	
  3829  0F27  1283               	bcf	status, 5	;RP0=0, select bank0
  3830  0F28  1303               	bcf	status, 6	;RP1=0, select bank0
  3831  0F29  086A               	movf	(display@p+1),w
  3832  0F2A  00FF               	movwf	btemp+1
  3833  0F2B  0869               	movf	(display@p),w
  3834  0F2C  0084               	movwf	fsr0
  3835  0F2D  120A  158A  2000   	fcall	stringtab
              120A  158A         
  3836  0F32  3800               	iorlw	0
  3837  0F33  1D03               	skipz
  3838  0F34  2F36               	goto	u3521
  3839  0F35  2F37               	goto	u3520
  3840  0F36                     u3521:
  3841  0F36  2EFD               	goto	l3808
  3842  0F37                     u3520:
  3843  0F37  2F38               	goto	l819
  3844                           	
  3845  0F38                     l818:	
  3846                           	line	348
  3847                           ;finger test.c: 346: }
  3848                           ;finger test.c: 347: return;
  3849                           	
  3850  0F38                     l819:	
  3851  0F38  0008               	return
  3852                           	opt stack 0
  3853                           GLOBAL	__end_of_display
  3854  0F39                     	__end_of_display:
  3855 ;; =============== function _display ends ============
  3856                           
  3857                           	signat	_display,4216
  3858                           	global	_lcd_init
  3859                           psect	text562,local,class=CODE,delta=2
  3860                           global __ptext562
  3861  070A                     __ptext562:
  3862                           
  3863 ;; *************** function _lcd_init *****************
  3864 ;; Defined at:
  3865 ;;		line 312 in file "F:\pic projects\finger voting machine\finger test.c"
  3866 ;; Parameters:    Size  Location     Type
  3867 ;;		None
  3868 ;; Auto vars:     Size  Location     Type
  3869 ;;		None
  3870 ;; Return value:  Size  Location     Type
  3871 ;;		None               void
  3872 ;; Registers used:
  3873 ;;		wreg, status,2, status,0, pclath, cstack
  3874 ;; Tracked objects:
  3875 ;;		On entry : 0/0
  3876 ;;		On exit  : 0/0
  3877 ;;		Unchanged: 0/0
  3878 ;; Data sizes:     COMMON   BANK0   BANK1   BANK3   BANK2
  3879 ;;      Params:         0       0       0       0       0
  3880 ;;      Locals:         0       0       0       0       0
  3881 ;;      Temps:          0       0       0       0       0
  3882 ;;      Totals:         0       0       0       0       0
  3883 ;;Total ram usage:        0 bytes
  3884 ;; Hardware stack levels used:    1
  3885 ;; Hardware stack levels required when called:    3
  3886 ;; This function calls:
  3887 ;;		_delay
  3888 ;;		_lcd_init_write
  3889 ;;		_lcdcmd
  3890 ;; This function is called by:
  3891 ;;		_main
  3892 ;; This function uses a non-reentrant model
  3893 ;;
  3894                           psect	text562
  3895                           	file	"F:\pic projects\finger voting machine\finger test.c"
  3896                           	line	312
  3897                           	global	__size_of_lcd_init
  3898  008B                     	__size_of_lcd_init	equ	__end_of_lcd_init-_lcd_init
  3899                           	
  3900  070A                     _lcd_init:	
  3901                           	opt	stack 4
  3902                           ; Regs used in _lcd_init: [wreg+status,2+status,0+pclath+cstack]
  3903                           	line	313
  3904                           	
  3905  070A                     l3804:	
  3906                           ;finger test.c: 313: delay(10);
  3907  070A  300A               	movlw	low(0Ah)
  3908  070B  1283               	bcf	status, 5	;RP0=0, select bank0
  3909  070C  1303               	bcf	status, 6	;RP1=0, select bank0
  3910  070D  00DE               	movwf	(?_delay)
  3911  070E  3000               	movlw	high(0Ah)
  3912  070F  00DF               	movwf	((?_delay))+1
  3913  0710  120A  158A  2691   	fcall	_delay
              120A  118A         
  3914                           	line	314
  3915                           ;finger test.c: 314: lcd_init_write(0x28);
  3916  0715  3028               	movlw	(028h)
  3917  0716  120A  118A  27E2   	fcall	_lcd_init_write
              120A  118A         
  3918                           	line	315
  3919                           ;finger test.c: 315: delay(10);
  3920  071B  300A               	movlw	low(0Ah)
  3921  071C  1283               	bcf	status, 5	;RP0=0, select bank0
  3922  071D  1303               	bcf	status, 6	;RP1=0, select bank0
  3923  071E  00DE               	movwf	(?_delay)
  3924  071F  3000               	movlw	high(0Ah)
  3925  0720  00DF               	movwf	((?_delay))+1
  3926  0721  120A  158A  2691   	fcall	_delay
              120A  118A         
  3927                           	line	322
  3928                           ;finger test.c: 322: lcdcmd(0x28);
  3929  0726  3028               	movlw	low(028h)
  3930  0727  1283               	bcf	status, 5	;RP0=0, select bank0
  3931  0728  1303               	bcf	status, 6	;RP1=0, select bank0
  3932  0729  00E4               	movwf	(?_lcdcmd)
  3933  072A  3000               	movlw	high(028h)
  3934  072B  00E5               	movwf	((?_lcdcmd))+1
  3935  072C  120A  158A  27B8   	fcall	_lcdcmd
              120A  118A         
  3936                           	line	323
  3937                           ;finger test.c: 323: delay(10);
  3938  0731  300A               	movlw	low(0Ah)
  3939  0732  1283               	bcf	status, 5	;RP0=0, select bank0
  3940  0733  1303               	bcf	status, 6	;RP1=0, select bank0
  3941  0734  00DE               	movwf	(?_delay)
  3942  0735  3000               	movlw	high(0Ah)
  3943  0736  00DF               	movwf	((?_delay))+1
  3944  0737  120A  158A  2691   	fcall	_delay
              120A  118A         
  3945                           	line	324
  3946                           ;finger test.c: 324: lcdcmd(4);
  3947  073C  3004               	movlw	low(04h)
  3948  073D  1283               	bcf	status, 5	;RP0=0, select bank0
  3949  073E  1303               	bcf	status, 6	;RP1=0, select bank0
  3950  073F  00E4               	movwf	(?_lcdcmd)
  3951  0740  3000               	movlw	high(04h)
  3952  0741  00E5               	movwf	((?_lcdcmd))+1
  3953  0742  120A  158A  27B8   	fcall	_lcdcmd
              120A  118A         
  3954                           	line	325
  3955                           ;finger test.c: 325: delay(10);
  3956  0747  300A               	movlw	low(0Ah)
  3957  0748  1283               	bcf	status, 5	;RP0=0, select bank0
  3958  0749  1303               	bcf	status, 6	;RP1=0, select bank0
  3959  074A  00DE               	movwf	(?_delay)
  3960  074B  3000               	movlw	high(0Ah)
  3961  074C  00DF               	movwf	((?_delay))+1
  3962  074D  120A  158A  2691   	fcall	_delay
              120A  118A         
  3963                           	line	326
  3964                           ;finger test.c: 326: lcdcmd(0x0c);
  3965  0752  300C               	movlw	low(0Ch)
  3966  0753  1283               	bcf	status, 5	;RP0=0, select bank0
  3967  0754  1303               	bcf	status, 6	;RP1=0, select bank0
  3968  0755  00E4               	movwf	(?_lcdcmd)
  3969  0756  3000               	movlw	high(0Ch)
  3970  0757  00E5               	movwf	((?_lcdcmd))+1
  3971  0758  120A  158A  27B8   	fcall	_lcdcmd
              120A  118A         
  3972                           	line	327
  3973                           ;finger test.c: 327: delay(10);
  3974  075D  300A               	movlw	low(0Ah)
  3975  075E  1283               	bcf	status, 5	;RP0=0, select bank0
  3976  075F  1303               	bcf	status, 6	;RP1=0, select bank0
  3977  0760  00DE               	movwf	(?_delay)
  3978  0761  3000               	movlw	high(0Ah)
  3979  0762  00DF               	movwf	((?_delay))+1
  3980  0763  120A  158A  2691   	fcall	_delay
              120A  118A         
  3981                           	line	328
  3982                           ;finger test.c: 328: lcdcmd(0x01);
  3983  0768  3001               	movlw	low(01h)
  3984  0769  1283               	bcf	status, 5	;RP0=0, select bank0
  3985  076A  1303               	bcf	status, 6	;RP1=0, select bank0
  3986  076B  00E4               	movwf	(?_lcdcmd)
  3987  076C  3000               	movlw	high(01h)
  3988  076D  00E5               	movwf	((?_lcdcmd))+1
  3989  076E  120A  158A  27B8   	fcall	_lcdcmd
              120A  118A         
  3990                           	line	329
  3991                           ;finger test.c: 329: delay(10);
  3992  0773  300A               	movlw	low(0Ah)
  3993  0774  1283               	bcf	status, 5	;RP0=0, select bank0
  3994  0775  1303               	bcf	status, 6	;RP1=0, select bank0
  3995  0776  00DE               	movwf	(?_delay)
  3996  0777  3000               	movlw	high(0Ah)
  3997  0778  00DF               	movwf	((?_delay))+1
  3998  0779  120A  158A  2691   	fcall	_delay
              120A  118A         
  3999                           	line	330
  4000                           ;finger test.c: 330: lcdcmd(1);
  4001  077E  3001               	movlw	low(01h)
  4002  077F  1283               	bcf	status, 5	;RP0=0, select bank0
  4003  0780  1303               	bcf	status, 6	;RP1=0, select bank0
  4004  0781  00E4               	movwf	(?_lcdcmd)
  4005  0782  3000               	movlw	high(01h)
  4006  0783  00E5               	movwf	((?_lcdcmd))+1
  4007  0784  120A  158A  27B8   	fcall	_lcdcmd
              120A  118A         
  4008                           	line	331
  4009                           ;finger test.c: 331: delay(10);
  4010  0789  300A               	movlw	low(0Ah)
  4011  078A  1283               	bcf	status, 5	;RP0=0, select bank0
  4012  078B  1303               	bcf	status, 6	;RP1=0, select bank0
  4013  078C  00DE               	movwf	(?_delay)
  4014  078D  3000               	movlw	high(0Ah)
  4015  078E  00DF               	movwf	((?_delay))+1
  4016  078F  120A  158A  2691   	fcall	_delay
              120A  118A         
  4017                           	line	332
  4018                           	
  4019  0794                     l813:	
  4020  0794  0008               	return
  4021                           	opt stack 0
  4022                           GLOBAL	__end_of_lcd_init
  4023  0795                     	__end_of_lcd_init:
  4024 ;; =============== function _lcd_init ends ============
  4025                           
  4026                           	signat	_lcd_init,88
  4027                           	global	_Sendstring
  4028                           psect	text563,local,class=CODE,delta=2
  4029                           global __ptext563
  4030  0F77                     __ptext563:
  4031                           
  4032 ;; *************** function _Sendstring *****************
  4033 ;; Defined at:
  4034 ;;		line 354 in file "F:\pic projects\finger voting machine\finger test.c"
  4035 ;; Parameters:    Size  Location     Type
  4036 ;;  strng           2    6[BANK0 ] PTR unsigned char 
  4037 ;;		 -> Srchtemplate(17), Rdvlidtempl(12), Gentemplate(12), Genchar2(13), 
  4038 ;;		 -> Genchar1(13), GenImg(12), 
  4039 ;;  length          1    8[BANK0 ] unsigned char 
  4040 ;; Auto vars:     Size  Location     Type
  4041 ;;		None
  4042 ;; Return value:  Size  Location     Type
  4043 ;;		None               void
  4044 ;; Registers used:
  4045 ;;		wreg, fsr0l, fsr0h, status,2, status,0, pclath, cstack
  4046 ;; Tracked objects:
  4047 ;;		On entry : 0/0
  4048 ;;		On exit  : 0/0
  4049 ;;		Unchanged: 0/0
  4050 ;; Data sizes:     COMMON   BANK0   BANK1   BANK3   BANK2
  4051 ;;      Params:         0       3       0       0       0
  4052 ;;      Locals:         0       0       0       0       0
  4053 ;;      Temps:          0       3       0       0       0
  4054 ;;      Totals:         0       6       0       0       0
  4055 ;;Total ram usage:        6 bytes
  4056 ;; Hardware stack levels used:    1
  4057 ;; Hardware stack levels required when called:    2
  4058 ;; This function calls:
  4059 ;;		_TX
  4060 ;;		_delay
  4061 ;; This function is called by:
  4062 ;;		_Readfinger
  4063 ;;		_storChar1
  4064 ;;		_storChar2
  4065 ;;		_StorTempl
  4066 ;;		_SrchFinger
  4067 ;; This function uses a non-reentrant model
  4068 ;;
  4069                           psect	text563
  4070                           	file	"F:\pic projects\finger voting machine\finger test.c"
  4071                           	line	354
  4072                           	global	__size_of_Sendstring
  4073  0041                     	__size_of_Sendstring	equ	__end_of_Sendstring-_Sendstring
  4074                           	
  4075  0F77                     _Sendstring:	
  4076                           	opt	stack 4
  4077                           ; Regs used in _Sendstring: [wreg-fsr0h+status,2+status,0+pclath+cstack]
  4078                           	line	355
  4079                           	
  4080  0F77                     l3794:	
  4081                           ;finger test.c: 355: for(i=0;i<length;i++)
  4082  0F77  01F0               	clrf	(_i)
  4083  0F78  01F1               	clrf	(_i+1)
  4084  0F79  2F9C               	goto	l3800
  4085                           	line	356
  4086                           	
  4087  0F7A                     l823:	
  4088                           	line	357
  4089                           	
  4090  0F7A                     l3796:	
  4091                           ;finger test.c: 356: {
  4092                           ;finger test.c: 357: TX(strng[i]);
  4093  0F7A  0870               	movf	(_i),w
  4094  0F7B  1283               	bcf	status, 5	;RP0=0, select bank0
  4095  0F7C  1303               	bcf	status, 6	;RP1=0, select bank0
  4096  0F7D  0764               	addwf	(Sendstring@strng),w
  4097  0F7E  00E8               	movwf	(??_Sendstring+1)+0
  4098  0F7F  0865               	movf	(Sendstring@strng+1),w
  4099  0F80  00E7               	movwf	(??_Sendstring+0)+0
  4100  0F81  1803               	skipnc
  4101  0F82  0AE7               	incf	(??_Sendstring+0)+0,f
  4102  0F83  1FF0               	btfss	(_i),7
  4103  0F84  2F86               	goto	u3500
  4104  0F85  03E7               	decf	(??_Sendstring+0)+0,f
  4105  0F86                     u3500:
  4106  0F86  1283               	bcf	status, 5	;RP0=0, select bank0
  4107  0F87  1303               	bcf	status, 6	;RP1=0, select bank0
  4108  0F88  0867               	movf	(??_Sendstring+0)+0,w
  4109  0F89  00E9               	movwf	0+((??_Sendstring+1)+0)+1
  4110  0F8A  0868               	movf	0+(??_Sendstring+1)+0,w
  4111  0F8B  0084               	movwf	fsr0
  4112  0F8C  1783               	bsf	status,7
  4113  0F8D  1C69               	btfss	1+(??_Sendstring+1)+0,0
  4114  0F8E  1383               	bcf	status,7
  4115  0F8F  0800               	movf	indf,w
  4116  0F90  120A  158A  261D   	fcall	_TX
              120A  158A         
  4117                           	line	355
  4118                           	
  4119  0F95                     l3798:	
  4120  0F95  3001               	movlw	low(01h)
  4121  0F96  07F0               	addwf	(_i),f
  4122  0F97  1803               	skipnc
  4123  0F98  0AF1               	incf	(_i+1),f
  4124  0F99  3000               	movlw	high(01h)
  4125  0F9A  07F1               	addwf	(_i+1),f
  4126  0F9B  2F9C               	goto	l3800
  4127                           	
  4128  0F9C                     l822:	
  4129                           	
  4130  0F9C                     l3800:	
  4131  0F9C  0871               	movf	(_i+1),w
  4132  0F9D  3A80               	xorlw	80h
  4133  0F9E  1283               	bcf	status, 5	;RP0=0, select bank0
  4134  0F9F  1303               	bcf	status, 6	;RP1=0, select bank0
  4135  0FA0  00E7               	movwf	(??_Sendstring+0)+0
  4136  0FA1  3080               	movlw	80h
  4137  0FA2  0267               	subwf	(??_Sendstring+0)+0,w
  4138  0FA3  1D03               	skipz
  4139  0FA4  2FA7               	goto	u3515
  4140  0FA5  0866               	movf	(Sendstring@length),w
  4141  0FA6  0270               	subwf	(_i),w
  4142  0FA7                     u3515:
  4143                           
  4144  0FA7  1C03               	skipc
  4145  0FA8  2FAA               	goto	u3511
  4146  0FA9  2FAB               	goto	u3510
  4147  0FAA                     u3511:
  4148  0FAA  2F7A               	goto	l3796
  4149  0FAB                     u3510:
  4150  0FAB  2FAC               	goto	l3802
  4151                           	
  4152  0FAC                     l824:	
  4153                           	line	359
  4154                           	
  4155  0FAC                     l3802:	
  4156                           ;finger test.c: 358: }
  4157                           ;finger test.c: 359: delay(600);
  4158  0FAC  3058               	movlw	low(0258h)
  4159  0FAD  1283               	bcf	status, 5	;RP0=0, select bank0
  4160  0FAE  1303               	bcf	status, 6	;RP1=0, select bank0
  4161  0FAF  00DE               	movwf	(?_delay)
  4162  0FB0  3002               	movlw	high(0258h)
  4163  0FB1  00DF               	movwf	((?_delay))+1
  4164  0FB2  120A  158A  2691   	fcall	_delay
              120A  158A         
  4165                           	line	360
  4166                           	
  4167  0FB7                     l825:	
  4168  0FB7  0008               	return
  4169                           	opt stack 0
  4170                           GLOBAL	__end_of_Sendstring
  4171  0FB8                     	__end_of_Sendstring:
  4172 ;; =============== function _Sendstring ends ============
  4173                           
  4174                           	signat	_Sendstring,8312
  4175                           	global	_lcd_init_write
  4176                           psect	text564,local,class=CODE,delta=2
  4177                           global __ptext564
  4178  07E2                     __ptext564:
  4179                           
  4180 ;; *************** function _lcd_init_write *****************
  4181 ;; Defined at:
  4182 ;;		line 302 in file "F:\pic projects\finger voting machine\finger test.c"
  4183 ;; Parameters:    Size  Location     Type
  4184 ;;  a               1    wreg     unsigned char 
  4185 ;; Auto vars:     Size  Location     Type
  4186 ;;  a               1    6[BANK0 ] unsigned char 
  4187 ;; Return value:  Size  Location     Type
  4188 ;;		None               void
  4189 ;; Registers used:
  4190 ;;		wreg, status,2, status,0, pclath, cstack
  4191 ;; Tracked objects:
  4192 ;;		On entry : 0/0
  4193 ;;		On exit  : 0/0
  4194 ;;		Unchanged: 0/0
  4195 ;; Data sizes:     COMMON   BANK0   BANK1   BANK3   BANK2
  4196 ;;      Params:         0       0       0       0       0
  4197 ;;      Locals:         0       1       0       0       0
  4198 ;;      Temps:          0       0       0       0       0
  4199 ;;      Totals:         0       1       0       0       0
  4200 ;;Total ram usage:        1 bytes
  4201 ;; Hardware stack levels used:    1
  4202 ;; Hardware stack levels required when called:    2
  4203 ;; This function calls:
  4204 ;;		_delay
  4205 ;; This function is called by:
  4206 ;;		_lcd_init
  4207 ;; This function uses a non-reentrant model
  4208 ;;
  4209                           psect	text564
  4210                           	file	"F:\pic projects\finger voting machine\finger test.c"
  4211                           	line	302
  4212                           	global	__size_of_lcd_init_write
  4213  0014                     	__size_of_lcd_init_write	equ	__end_of_lcd_init_write-_lcd_init_write
  4214                           	
  4215  07E2                     _lcd_init_write:	
  4216                           	opt	stack 4
  4217                           ; Regs used in _lcd_init_write: [wreg+status,2+status,0+pclath+cstack]
  4218                           ;lcd_init_write@a stored from wreg
  4219  07E2  1283               	bcf	status, 5	;RP0=0, select bank0
  4220  07E3  1303               	bcf	status, 6	;RP1=0, select bank0
  4221  07E4  00E4               	movwf	(lcd_init_write@a)
  4222                           	line	303
  4223                           	
  4224  07E5                     l3784:	
  4225                           ;finger test.c: 303: RB1=0;
  4226  07E5  1086               	bcf	(49/8),(49)&7
  4227                           	line	304
  4228                           	
  4229  07E6                     l3786:	
  4230                           ;finger test.c: 304: PORTB=a;
  4231  07E6  0864               	movf	(lcd_init_write@a),w
  4232  07E7  0086               	movwf	(6)	;volatile
  4233                           	line	305
  4234                           	
  4235  07E8                     l3788:	
  4236                           ;finger test.c: 305: RB2=1;
  4237  07E8  1506               	bsf	(50/8),(50)&7
  4238                           	line	306
  4239                           	
  4240  07E9                     l3790:	
  4241                           ;finger test.c: 306: delay(10);
  4242  07E9  300A               	movlw	low(0Ah)
  4243  07EA  00DE               	movwf	(?_delay)
  4244  07EB  3000               	movlw	high(0Ah)
  4245  07EC  00DF               	movwf	((?_delay))+1
  4246  07ED  120A  158A  2691   	fcall	_delay
              120A  118A         
  4247                           	line	307
  4248                           	
  4249  07F2                     l3792:	
  4250                           ;finger test.c: 307: RB2=0;
  4251  07F2  1283               	bcf	status, 5	;RP0=0, select bank0
  4252  07F3  1303               	bcf	status, 6	;RP1=0, select bank0
  4253  07F4  1106               	bcf	(50/8),(50)&7
  4254                           	line	308
  4255                           	
  4256  07F5                     l810:	
  4257  07F5  0008               	return
  4258                           	opt stack 0
  4259                           GLOBAL	__end_of_lcd_init_write
  4260  07F6                     	__end_of_lcd_init_write:
  4261 ;; =============== function _lcd_init_write ends ============
  4262                           
  4263                           	signat	_lcd_init_write,4216
  4264                           	global	_lcddata
  4265                           psect	text565,local,class=CODE,delta=2
  4266                           global __ptext565
  4267  0593                     __ptext565:
  4268                           
  4269 ;; *************** function _lcddata *****************
  4270 ;; Defined at:
  4271 ;;		line 280 in file "F:\pic projects\finger voting machine\finger test.c"
  4272 ;; Parameters:    Size  Location     Type
  4273 ;;  value           2    6[BANK0 ] unsigned int 
  4274 ;; Auto vars:     Size  Location     Type
  4275 ;;  temp            1   10[BANK0 ] unsigned char 
  4276 ;; Return value:  Size  Location     Type
  4277 ;;		None               void
  4278 ;; Registers used:
  4279 ;;		wreg, status,2, status,0, pclath, cstack
  4280 ;; Tracked objects:
  4281 ;;		On entry : 0/0
  4282 ;;		On exit  : 0/0
  4283 ;;		Unchanged: 0/0
  4284 ;; Data sizes:     COMMON   BANK0   BANK1   BANK3   BANK2
  4285 ;;      Params:         0       2       0       0       0
  4286 ;;      Locals:         0       1       0       0       0
  4287 ;;      Temps:          0       2       0       0       0
  4288 ;;      Totals:         0       5       0       0       0
  4289 ;;Total ram usage:        5 bytes
  4290 ;; Hardware stack levels used:    1
  4291 ;; Hardware stack levels required when called:    2
  4292 ;; This function calls:
  4293 ;;		_delay
  4294 ;; This function is called by:
  4295 ;;		_display
  4296 ;; This function uses a non-reentrant model
  4297 ;;
  4298                           psect	text565
  4299                           	file	"F:\pic projects\finger voting machine\finger test.c"
  4300                           	line	280
  4301                           	global	__size_of_lcddata
  4302  0048                     	__size_of_lcddata	equ	__end_of_lcddata-_lcddata
  4303                           	
  4304  0593                     _lcddata:	
  4305                           	opt	stack 2
  4306                           ; Regs used in _lcddata: [wreg+status,2+status,0+pclath+cstack]
  4307                           	line	283
  4308                           	
  4309  0593                     l3752:	
  4310                           ;finger test.c: 281: unsigned char temp;
  4311                           ;finger test.c: 283: RB1=1;
  4312  0593  1283               	bcf	status, 5	;RP0=0, select bank0
  4313  0594  1303               	bcf	status, 6	;RP1=0, select bank0
  4314  0595  1486               	bsf	(49/8),(49)&7
  4315                           	line	284
  4316                           	
  4317  0596                     l3754:	
  4318                           ;finger test.c: 284: temp= value;
  4319  0596  0864               	movf	(lcddata@value),w
  4320  0597  00E6               	movwf	(??_lcddata+0)+0
  4321  0598  0866               	movf	(??_lcddata+0)+0,w
  4322  0599  00E8               	movwf	(lcddata@temp)
  4323                           	line	285
  4324                           	
  4325  059A                     l3756:	
  4326                           ;finger test.c: 285: temp&=0xf0;
  4327  059A  30F0               	movlw	(0F0h)
  4328  059B  00E6               	movwf	(??_lcddata+0)+0
  4329  059C  0866               	movf	(??_lcddata+0)+0,w
  4330  059D  05E8               	andwf	(lcddata@temp),f
  4331                           	line	286
  4332                           	
  4333  059E                     l3758:	
  4334                           ;finger test.c: 286: PORTB&=0x0f;
  4335  059E  300F               	movlw	(0Fh)
  4336  059F  00E6               	movwf	(??_lcddata+0)+0
  4337  05A0  0866               	movf	(??_lcddata+0)+0,w
  4338  05A1  0586               	andwf	(6),f	;volatile
  4339                           	line	287
  4340                           	
  4341  05A2                     l3760:	
  4342                           ;finger test.c: 287: PORTB|=temp;
  4343  05A2  0868               	movf	(lcddata@temp),w
  4344  05A3  00E6               	movwf	(??_lcddata+0)+0
  4345  05A4  0866               	movf	(??_lcddata+0)+0,w
  4346  05A5  0486               	iorwf	(6),f	;volatile
  4347                           	line	288
  4348                           	
  4349  05A6                     l3762:	
  4350                           ;finger test.c: 288: RB2=1;
  4351  05A6  1506               	bsf	(50/8),(50)&7
  4352                           	line	289
  4353                           	
  4354  05A7                     l3764:	
  4355                           ;finger test.c: 289: delay(1);
  4356  05A7  3001               	movlw	low(01h)
  4357  05A8  00DE               	movwf	(?_delay)
  4358  05A9  3000               	movlw	high(01h)
  4359  05AA  00DF               	movwf	((?_delay))+1
  4360  05AB  120A  158A  2691   	fcall	_delay
              120A  118A         
  4361                           	line	290
  4362                           	
  4363  05B0                     l3766:	
  4364                           ;finger test.c: 290: RB2=0;
  4365  05B0  1283               	bcf	status, 5	;RP0=0, select bank0
  4366  05B1  1303               	bcf	status, 6	;RP1=0, select bank0
  4367  05B2  1106               	bcf	(50/8),(50)&7
  4368                           	line	291
  4369                           	
  4370  05B3                     l3768:	
  4371                           ;finger test.c: 291: temp=value<<4;
  4372  05B3  0864               	movf	(lcddata@value),w
  4373  05B4  00E6               	movwf	(??_lcddata+0)+0
  4374  05B5  3003               	movlw	(04h)-1
  4375  05B6                     u3495:
  4376  05B6  1003               	clrc
  4377  05B7  0DE6               	rlf	(??_lcddata+0)+0,f
  4378  05B8  3EFF               	addlw	-1
  4379  05B9  1D03               	skipz
  4380  05BA  2DB6               	goto	u3495
  4381  05BB  1003               	clrc
  4382  05BC  0D66               	rlf	(??_lcddata+0)+0,w
  4383  05BD  00E7               	movwf	(??_lcddata+1)+0
  4384  05BE  0867               	movf	(??_lcddata+1)+0,w
  4385  05BF  00E8               	movwf	(lcddata@temp)
  4386                           	line	292
  4387                           	
  4388  05C0                     l3770:	
  4389                           ;finger test.c: 292: temp&=0xf0;
  4390  05C0  30F0               	movlw	(0F0h)
  4391  05C1  00E6               	movwf	(??_lcddata+0)+0
  4392  05C2  0866               	movf	(??_lcddata+0)+0,w
  4393  05C3  05E8               	andwf	(lcddata@temp),f
  4394                           	line	293
  4395                           	
  4396  05C4                     l3772:	
  4397                           ;finger test.c: 293: PORTB&=0x0f;
  4398  05C4  300F               	movlw	(0Fh)
  4399  05C5  00E6               	movwf	(??_lcddata+0)+0
  4400  05C6  0866               	movf	(??_lcddata+0)+0,w
  4401  05C7  0586               	andwf	(6),f	;volatile
  4402                           	line	294
  4403                           	
  4404  05C8                     l3774:	
  4405                           ;finger test.c: 294: PORTB|=temp;
  4406  05C8  0868               	movf	(lcddata@temp),w
  4407  05C9  00E6               	movwf	(??_lcddata+0)+0
  4408  05CA  0866               	movf	(??_lcddata+0)+0,w
  4409  05CB  0486               	iorwf	(6),f	;volatile
  4410                           	line	295
  4411                           	
  4412  05CC                     l3776:	
  4413                           ;finger test.c: 295: RB2=1;
  4414  05CC  1506               	bsf	(50/8),(50)&7
  4415                           	line	296
  4416                           	
  4417  05CD                     l3778:	
  4418                           ;finger test.c: 296: delay(1);
  4419  05CD  3001               	movlw	low(01h)
  4420  05CE  00DE               	movwf	(?_delay)
  4421  05CF  3000               	movlw	high(01h)
  4422  05D0  00DF               	movwf	((?_delay))+1
  4423  05D1  120A  158A  2691   	fcall	_delay
              120A  118A         
  4424                           	line	297
  4425                           	
  4426  05D6                     l3780:	
  4427                           ;finger test.c: 297: RB2=0;
  4428  05D6  1283               	bcf	status, 5	;RP0=0, select bank0
  4429  05D7  1303               	bcf	status, 6	;RP1=0, select bank0
  4430  05D8  1106               	bcf	(50/8),(50)&7
  4431  05D9  2DDA               	goto	l807
  4432                           	line	298
  4433                           	
  4434  05DA                     l3782:	
  4435                           	line	299
  4436                           ;finger test.c: 298: return;
  4437                           	
  4438  05DA                     l807:	
  4439  05DA  0008               	return
  4440                           	opt stack 0
  4441                           GLOBAL	__end_of_lcddata
  4442  05DB                     	__end_of_lcddata:
  4443 ;; =============== function _lcddata ends ============
  4444                           
  4445                           	signat	_lcddata,4216
  4446                           	global	_lcdcmd
  4447                           psect	text566,local,class=CODE,delta=2
  4448                           global __ptext566
  4449  0FB8                     __ptext566:
  4450                           
  4451 ;; *************** function _lcdcmd *****************
  4452 ;; Defined at:
  4453 ;;		line 257 in file "F:\pic projects\finger voting machine\finger test.c"
  4454 ;; Parameters:    Size  Location     Type
  4455 ;;  value           2    6[BANK0 ] unsigned int 
  4456 ;; Auto vars:     Size  Location     Type
  4457 ;;  temp            1   10[BANK0 ] unsigned char 
  4458 ;; Return value:  Size  Location     Type
  4459 ;;		None               void
  4460 ;; Registers used:
  4461 ;;		wreg, status,2, status,0, pclath, cstack
  4462 ;; Tracked objects:
  4463 ;;		On entry : 0/0
  4464 ;;		On exit  : 0/0
  4465 ;;		Unchanged: 0/0
  4466 ;; Data sizes:     COMMON   BANK0   BANK1   BANK3   BANK2
  4467 ;;      Params:         0       2       0       0       0
  4468 ;;      Locals:         0       1       0       0       0
  4469 ;;      Temps:          0       2       0       0       0
  4470 ;;      Totals:         0       5       0       0       0
  4471 ;;Total ram usage:        5 bytes
  4472 ;; Hardware stack levels used:    1
  4473 ;; Hardware stack levels required when called:    2
  4474 ;; This function calls:
  4475 ;;		_delay
  4476 ;; This function is called by:
  4477 ;;		_main
  4478 ;;		_lcd_init
  4479 ;;		_StorTempl
  4480 ;;		_SrchFinger
  4481 ;;		_errorDisplay
  4482 ;; This function uses a non-reentrant model
  4483 ;;
  4484                           psect	text566
  4485                           	file	"F:\pic projects\finger voting machine\finger test.c"
  4486                           	line	257
  4487                           	global	__size_of_lcdcmd
  4488  0048                     	__size_of_lcdcmd	equ	__end_of_lcdcmd-_lcdcmd
  4489                           	
  4490  0FB8                     _lcdcmd:	
  4491                           	opt	stack 3
  4492                           ; Regs used in _lcdcmd: [wreg+status,2+status,0+pclath+cstack]
  4493                           	line	260
  4494                           	
  4495  0FB8                     l3720:	
  4496                           ;finger test.c: 258: unsigned char temp;
  4497                           ;finger test.c: 260: RB1=0;
  4498  0FB8  1283               	bcf	status, 5	;RP0=0, select bank0
  4499  0FB9  1303               	bcf	status, 6	;RP1=0, select bank0
  4500  0FBA  1086               	bcf	(49/8),(49)&7
  4501                           	line	261
  4502                           	
  4503  0FBB                     l3722:	
  4504                           ;finger test.c: 261: temp= value;
  4505  0FBB  0864               	movf	(lcdcmd@value),w
  4506  0FBC  00E6               	movwf	(??_lcdcmd+0)+0
  4507  0FBD  0866               	movf	(??_lcdcmd+0)+0,w
  4508  0FBE  00E8               	movwf	(lcdcmd@temp)
  4509                           	line	262
  4510                           	
  4511  0FBF                     l3724:	
  4512                           ;finger test.c: 262: temp&=0xf0;
  4513  0FBF  30F0               	movlw	(0F0h)
  4514  0FC0  00E6               	movwf	(??_lcdcmd+0)+0
  4515  0FC1  0866               	movf	(??_lcdcmd+0)+0,w
  4516  0FC2  05E8               	andwf	(lcdcmd@temp),f
  4517                           	line	263
  4518                           	
  4519  0FC3                     l3726:	
  4520                           ;finger test.c: 263: PORTB&=0x0f;
  4521  0FC3  300F               	movlw	(0Fh)
  4522  0FC4  00E6               	movwf	(??_lcdcmd+0)+0
  4523  0FC5  0866               	movf	(??_lcdcmd+0)+0,w
  4524  0FC6  0586               	andwf	(6),f	;volatile
  4525                           	line	264
  4526                           	
  4527  0FC7                     l3728:	
  4528                           ;finger test.c: 264: PORTB|=temp;
  4529  0FC7  0868               	movf	(lcdcmd@temp),w
  4530  0FC8  00E6               	movwf	(??_lcdcmd+0)+0
  4531  0FC9  0866               	movf	(??_lcdcmd+0)+0,w
  4532  0FCA  0486               	iorwf	(6),f	;volatile
  4533                           	line	265
  4534                           	
  4535  0FCB                     l3730:	
  4536                           ;finger test.c: 265: RB2=1;
  4537  0FCB  1506               	bsf	(50/8),(50)&7
  4538                           	line	266
  4539                           	
  4540  0FCC                     l3732:	
  4541                           ;finger test.c: 266: delay(1);
  4542  0FCC  3001               	movlw	low(01h)
  4543  0FCD  00DE               	movwf	(?_delay)
  4544  0FCE  3000               	movlw	high(01h)
  4545  0FCF  00DF               	movwf	((?_delay))+1
  4546  0FD0  120A  158A  2691   	fcall	_delay
              120A  158A         
  4547                           	line	267
  4548                           	
  4549  0FD5                     l3734:	
  4550                           ;finger test.c: 267: RB2=0;
  4551  0FD5  1283               	bcf	status, 5	;RP0=0, select bank0
  4552  0FD6  1303               	bcf	status, 6	;RP1=0, select bank0
  4553  0FD7  1106               	bcf	(50/8),(50)&7
  4554                           	line	268
  4555                           	
  4556  0FD8                     l3736:	
  4557                           ;finger test.c: 268: temp=value<<4;
  4558  0FD8  0864               	movf	(lcdcmd@value),w
  4559  0FD9  00E6               	movwf	(??_lcdcmd+0)+0
  4560  0FDA  3003               	movlw	(04h)-1
  4561  0FDB                     u3485:
  4562  0FDB  1003               	clrc
  4563  0FDC  0DE6               	rlf	(??_lcdcmd+0)+0,f
  4564  0FDD  3EFF               	addlw	-1
  4565  0FDE  1D03               	skipz
  4566  0FDF  2FDB               	goto	u3485
  4567  0FE0  1003               	clrc
  4568  0FE1  0D66               	rlf	(??_lcdcmd+0)+0,w
  4569  0FE2  00E7               	movwf	(??_lcdcmd+1)+0
  4570  0FE3  0867               	movf	(??_lcdcmd+1)+0,w
  4571  0FE4  00E8               	movwf	(lcdcmd@temp)
  4572                           	line	269
  4573                           	
  4574  0FE5                     l3738:	
  4575                           ;finger test.c: 269: temp&=0xf0;
  4576  0FE5  30F0               	movlw	(0F0h)
  4577  0FE6  00E6               	movwf	(??_lcdcmd+0)+0
  4578  0FE7  0866               	movf	(??_lcdcmd+0)+0,w
  4579  0FE8  05E8               	andwf	(lcdcmd@temp),f
  4580                           	line	270
  4581                           	
  4582  0FE9                     l3740:	
  4583                           ;finger test.c: 270: PORTB&=0x0f;
  4584  0FE9  300F               	movlw	(0Fh)
  4585  0FEA  00E6               	movwf	(??_lcdcmd+0)+0
  4586  0FEB  0866               	movf	(??_lcdcmd+0)+0,w
  4587  0FEC  0586               	andwf	(6),f	;volatile
  4588                           	line	271
  4589                           	
  4590  0FED                     l3742:	
  4591                           ;finger test.c: 271: PORTB|=temp;
  4592  0FED  0868               	movf	(lcdcmd@temp),w
  4593  0FEE  00E6               	movwf	(??_lcdcmd+0)+0
  4594  0FEF  0866               	movf	(??_lcdcmd+0)+0,w
  4595  0FF0  0486               	iorwf	(6),f	;volatile
  4596                           	line	272
  4597                           	
  4598  0FF1                     l3744:	
  4599                           ;finger test.c: 272: RB2=1;
  4600  0FF1  1506               	bsf	(50/8),(50)&7
  4601                           	line	273
  4602                           	
  4603  0FF2                     l3746:	
  4604                           ;finger test.c: 273: delay(1);
  4605  0FF2  3001               	movlw	low(01h)
  4606  0FF3  00DE               	movwf	(?_delay)
  4607  0FF4  3000               	movlw	high(01h)
  4608  0FF5  00DF               	movwf	((?_delay))+1
  4609  0FF6  120A  158A  2691   	fcall	_delay
              120A  158A         
  4610                           	line	274
  4611                           	
  4612  0FFB                     l3748:	
  4613                           ;finger test.c: 274: RB2=0;
  4614  0FFB  1283               	bcf	status, 5	;RP0=0, select bank0
  4615  0FFC  1303               	bcf	status, 6	;RP1=0, select bank0
  4616  0FFD  1106               	bcf	(50/8),(50)&7
  4617  0FFE  2FFF               	goto	l804
  4618                           	line	275
  4619                           	
  4620  0FFF                     l3750:	
  4621                           	line	276
  4622                           ;finger test.c: 275: return;
  4623                           	
  4624  0FFF                     l804:	
  4625  0FFF  0008               	return
  4626                           	opt stack 0
  4627                           GLOBAL	__end_of_lcdcmd
  4628  1000                     	__end_of_lcdcmd:
  4629 ;; =============== function _lcdcmd ends ============
  4630                           
  4631                           	signat	_lcdcmd,4216
  4632                           	global	_TX
  4633                           psect	text567,local,class=CODE,delta=2
  4634                           global __ptext567
  4635  0E1D                     __ptext567:
  4636                           
  4637 ;; *************** function _TX *****************
  4638 ;; Defined at:
  4639 ;;		line 175 in file "F:\pic projects\finger voting machine\finger test.c"
  4640 ;; Parameters:    Size  Location     Type
  4641 ;;  TX_BYTE         1    wreg     unsigned char 
  4642 ;; Auto vars:     Size  Location     Type
  4643 ;;  TX_BYTE         1    0[BANK0 ] unsigned char 
  4644 ;; Return value:  Size  Location     Type
  4645 ;;		None               void
  4646 ;; Registers used:
  4647 ;;		wreg
  4648 ;; Tracked objects:
  4649 ;;		On entry : 0/0
  4650 ;;		On exit  : 0/0
  4651 ;;		Unchanged: 0/0
  4652 ;; Data sizes:     COMMON   BANK0   BANK1   BANK3   BANK2
  4653 ;;      Params:         0       0       0       0       0
  4654 ;;      Locals:         0       1       0       0       0
  4655 ;;      Temps:          0       0       0       0       0
  4656 ;;      Totals:         0       1       0       0       0
  4657 ;;Total ram usage:        1 bytes
  4658 ;; Hardware stack levels used:    1
  4659 ;; Hardware stack levels required when called:    1
  4660 ;; This function calls:
  4661 ;;		Nothing
  4662 ;; This function is called by:
  4663 ;;		_Sendstring
  4664 ;;		_StorTempl
  4665 ;;		_TXS
  4666 ;; This function uses a non-reentrant model
  4667 ;;
  4668                           psect	text567
  4669                           	file	"F:\pic projects\finger voting machine\finger test.c"
  4670                           	line	175
  4671                           	global	__size_of_TX
  4672  000E                     	__size_of_TX	equ	__end_of_TX-_TX
  4673                           	
  4674  0E1D                     _TX:	
  4675                           	opt	stack 4
  4676                           ; Regs used in _TX: [wreg]
  4677                           ;TX@TX_BYTE stored from wreg
  4678  0E1D  1283               	bcf	status, 5	;RP0=0, select bank0
  4679  0E1E  1303               	bcf	status, 6	;RP1=0, select bank0
  4680  0E1F  00DE               	movwf	(TX@TX_BYTE)
  4681                           	line	176
  4682                           	
  4683  0E20                     l3710:	
  4684                           ;finger test.c: 176: TXREG = TX_BYTE;
  4685  0E20  085E               	movf	(TX@TX_BYTE),w
  4686  0E21  0099               	movwf	(25)	;volatile
  4687                           	line	177
  4688                           ;finger test.c: 177: while(!TRMT);
  4689  0E22  2E23               	goto	l775
  4690                           	
  4691  0E23                     l776:	
  4692                           	
  4693  0E23                     l775:	
  4694  0E23  1683               	bsf	status, 5	;RP0=1, select bank1
  4695  0E24  1303               	bcf	status, 6	;RP1=0, select bank1
  4696  0E25  1C98               	btfss	(1217/8)^080h,(1217)&7
  4697  0E26  2E28               	goto	u3461
  4698  0E27  2E29               	goto	u3460
  4699  0E28                     u3461:
  4700  0E28  2E23               	goto	l775
  4701  0E29                     u3460:
  4702                           	
  4703  0E29                     l777:	
  4704                           	line	178
  4705                           ;finger test.c: 178: TRMT=0;
  4706  0E29  1098               	bcf	(1217/8)^080h,(1217)&7
  4707                           	line	180
  4708                           ;finger test.c: 179: return;
  4709                           	
  4710  0E2A                     l778:	
  4711  0E2A  0008               	return
  4712                           	opt stack 0
  4713                           GLOBAL	__end_of_TX
  4714  0E2B                     	__end_of_TX:
  4715 ;; =============== function _TX ends ============
  4716                           
  4717                           	signat	_TX,4216
  4718                           	global	_delay
  4719                           psect	text568,local,class=CODE,delta=2
  4720                           global __ptext568
  4721  0E91                     __ptext568:
  4722                           
  4723 ;; *************** function _delay *****************
  4724 ;; Defined at:
  4725 ;;		line 241 in file "F:\pic projects\finger voting machine\finger test.c"
  4726 ;; Parameters:    Size  Location     Type
  4727 ;;  d               2    0[BANK0 ] unsigned int 
  4728 ;; Auto vars:     Size  Location     Type
  4729 ;;  k               2    4[BANK0 ] unsigned int 
  4730 ;;  h               2    2[BANK0 ] unsigned int 
  4731 ;; Return value:  Size  Location     Type
  4732 ;;		None               void
  4733 ;; Registers used:
  4734 ;;		wreg, status,2
  4735 ;; Tracked objects:
  4736 ;;		On entry : 0/0
  4737 ;;		On exit  : 0/0
  4738 ;;		Unchanged: 0/0
  4739 ;; Data sizes:     COMMON   BANK0   BANK1   BANK3   BANK2
  4740 ;;      Params:         0       2       0       0       0
  4741 ;;      Locals:         0       4       0       0       0
  4742 ;;      Temps:          0       0       0       0       0
  4743 ;;      Totals:         0       6       0       0       0
  4744 ;;Total ram usage:        6 bytes
  4745 ;; Hardware stack levels used:    1
  4746 ;; Hardware stack levels required when called:    1
  4747 ;; This function calls:
  4748 ;;		Nothing
  4749 ;; This function is called by:
  4750 ;;		_main
  4751 ;;		_lcdcmd
  4752 ;;		_lcddata
  4753 ;;		_lcd_init_write
  4754 ;;		_lcd_init
  4755 ;;		_display
  4756 ;;		_Sendstring
  4757 ;;		_StorTempl
  4758 ;;		_SrchFinger
  4759 ;;		_errorDisplay
  4760 ;;		_TXS
  4761 ;; This function uses a non-reentrant model
  4762 ;;
  4763                           psect	text568
  4764                           	file	"F:\pic projects\finger voting machine\finger test.c"
  4765                           	line	241
  4766                           	global	__size_of_delay
  4767  0034                     	__size_of_delay	equ	__end_of_delay-_delay
  4768                           	
  4769  0E91                     _delay:	
  4770                           	opt	stack 3
  4771                           ; Regs used in _delay: [wreg+status,2]
  4772                           	line	243
  4773                           	
  4774  0E91                     l3698:	
  4775                           ;finger test.c: 242: unsigned int k,h;
  4776                           ;finger test.c: 243: for(h=0;h<d;h++)
  4777  0E91  1283               	bcf	status, 5	;RP0=0, select bank0
  4778  0E92  1303               	bcf	status, 6	;RP1=0, select bank0
  4779  0E93  01E0               	clrf	(delay@h)
  4780  0E94  01E1               	clrf	(delay@h+1)
  4781  0E95  2EB9               	goto	l796
  4782                           	line	245
  4783                           	
  4784  0E96                     l797:	
  4785                           	line	246
  4786                           	
  4787  0E96                     l3700:	
  4788                           ;finger test.c: 245: {
  4789                           ;finger test.c: 246: for(k=0;k<=250;k++)
  4790  0E96  01E2               	clrf	(delay@k)
  4791  0E97  01E3               	clrf	(delay@k+1)
  4792                           	
  4793  0E98                     l3702:	
  4794  0E98  3000               	movlw	high(0FBh)
  4795  0E99  0263               	subwf	(delay@k+1),w
  4796  0E9A  30FB               	movlw	low(0FBh)
  4797  0E9B  1903               	skipnz
  4798  0E9C  0262               	subwf	(delay@k),w
  4799  0E9D  1C03               	skipc
  4800  0E9E  2EA0               	goto	u3431
  4801  0E9F  2EA1               	goto	u3430
  4802  0EA0                     u3431:
  4803  0EA0  2EA3               	goto	l3706
  4804  0EA1                     u3430:
  4805  0EA1  2EB3               	goto	l3708
  4806                           	
  4807  0EA2                     l3704:	
  4808  0EA2  2EB3               	goto	l3708
  4809                           	line	247
  4810                           	
  4811  0EA3                     l798:	
  4812                           	line	246
  4813                           	
  4814  0EA3                     l3706:	
  4815                           ;finger test.c: 247: {
  4816  0EA3  3001               	movlw	low(01h)
  4817  0EA4  07E2               	addwf	(delay@k),f
  4818  0EA5  1803               	skipnc
  4819  0EA6  0AE3               	incf	(delay@k+1),f
  4820  0EA7  3000               	movlw	high(01h)
  4821  0EA8  07E3               	addwf	(delay@k+1),f
  4822  0EA9  3000               	movlw	high(0FBh)
  4823  0EAA  0263               	subwf	(delay@k+1),w
  4824  0EAB  30FB               	movlw	low(0FBh)
  4825  0EAC  1903               	skipnz
  4826  0EAD  0262               	subwf	(delay@k),w
  4827  0EAE  1C03               	skipc
  4828  0EAF  2EB1               	goto	u3441
  4829  0EB0  2EB2               	goto	u3440
  4830  0EB1                     u3441:
  4831  0EB1  2EA3               	goto	l3706
  4832  0EB2                     u3440:
  4833  0EB2  2EB3               	goto	l3708
  4834                           	
  4835  0EB3                     l799:	
  4836                           	line	243
  4837                           	
  4838  0EB3                     l3708:	
  4839  0EB3  3001               	movlw	low(01h)
  4840  0EB4  07E0               	addwf	(delay@h),f
  4841  0EB5  1803               	skipnc
  4842  0EB6  0AE1               	incf	(delay@h+1),f
  4843  0EB7  3000               	movlw	high(01h)
  4844  0EB8  07E1               	addwf	(delay@h+1),f
  4845                           	
  4846  0EB9                     l796:	
  4847  0EB9  085F               	movf	(delay@d+1),w
  4848  0EBA  0261               	subwf	(delay@h+1),w
  4849  0EBB  1D03               	skipz
  4850  0EBC  2EBF               	goto	u3455
  4851  0EBD  085E               	movf	(delay@d),w
  4852  0EBE  0260               	subwf	(delay@h),w
  4853  0EBF                     u3455:
  4854  0EBF  1C03               	skipc
  4855  0EC0  2EC2               	goto	u3451
  4856  0EC1  2EC3               	goto	u3450
  4857  0EC2                     u3451:
  4858  0EC2  2E96               	goto	l3700
  4859  0EC3                     u3450:
  4860  0EC3  2EC4               	goto	l801
  4861                           	
  4862  0EC4                     l800:	
  4863                           	line	251
  4864                           ;finger test.c: 248: }
  4865                           ;finger test.c: 249: }
  4866                           ;finger test.c: 250: return;
  4867                           	
  4868  0EC4                     l801:	
  4869  0EC4  0008               	return
  4870                           	opt stack 0
  4871                           GLOBAL	__end_of_delay
  4872  0EC5                     	__end_of_delay:
  4873 ;; =============== function _delay ends ============
  4874                           
  4875                           	signat	_delay,4216
  4876                           	global	_uart_init
  4877                           psect	text569,local,class=CODE,delta=2
  4878                           global __ptext569
  4879  0E6C                     __ptext569:
  4880                           
  4881 ;; *************** function _uart_init *****************
  4882 ;; Defined at:
  4883 ;;		line 223 in file "F:\pic projects\finger voting machine\finger test.c"
  4884 ;; Parameters:    Size  Location     Type
  4885 ;;		None
  4886 ;; Auto vars:     Size  Location     Type
  4887 ;;		None
  4888 ;; Return value:  Size  Location     Type
  4889 ;;		None               void
  4890 ;; Registers used:
  4891 ;;		wreg
  4892 ;; Tracked objects:
  4893 ;;		On entry : 0/0
  4894 ;;		On exit  : 0/0
  4895 ;;		Unchanged: 0/0
  4896 ;; Data sizes:     COMMON   BANK0   BANK1   BANK3   BANK2
  4897 ;;      Params:         0       0       0       0       0
  4898 ;;      Locals:         0       0       0       0       0
  4899 ;;      Temps:          0       0       0       0       0
  4900 ;;      Totals:         0       0       0       0       0
  4901 ;;Total ram usage:        0 bytes
  4902 ;; Hardware stack levels used:    1
  4903 ;; Hardware stack levels required when called:    1
  4904 ;; This function calls:
  4905 ;;		Nothing
  4906 ;; This function is called by:
  4907 ;;		_main
  4908 ;; This function uses a non-reentrant model
  4909 ;;
  4910                           psect	text569
  4911                           	file	"F:\pic projects\finger voting machine\finger test.c"
  4912                           	line	223
  4913                           	global	__size_of_uart_init
  4914  0012                     	__size_of_uart_init	equ	__end_of_uart_init-_uart_init
  4915                           	
  4916  0E6C                     _uart_init:	
  4917                           	opt	stack 6
  4918                           ; Regs used in _uart_init: [wreg]
  4919                           	line	224
  4920                           	
  4921  0E6C                     l3690:	
  4922                           ;finger test.c: 224: TRISC7 =1;
  4923  0E6C  1683               	bsf	status, 5	;RP0=1, select bank1
  4924  0E6D  1303               	bcf	status, 6	;RP1=0, select bank1
  4925  0E6E  1787               	bsf	(1087/8)^080h,(1087)&7
  4926                           	line	225
  4927                           ;finger test.c: 225: TRISC6 =0;
  4928  0E6F  1307               	bcf	(1086/8)^080h,(1086)&7
  4929                           	line	226
  4930                           ;finger test.c: 226: BRGH=1;
  4931  0E70  1518               	bsf	(1218/8)^080h,(1218)&7
  4932                           	line	227
  4933                           	
  4934  0E71                     l3692:	
  4935                           ;finger test.c: 227: SPBRG = 20;
  4936  0E71  3014               	movlw	(014h)
  4937  0E72  0099               	movwf	(153)^080h	;volatile
  4938                           	line	229
  4939                           ;finger test.c: 229: INTCON=0xc0;
  4940  0E73  30C0               	movlw	(0C0h)
  4941  0E74  008B               	movwf	(11)	;volatile
  4942                           	line	230
  4943                           	
  4944  0E75                     l3694:	
  4945                           ;finger test.c: 230: RCIE =1;
  4946  0E75  168C               	bsf	(1125/8)^080h,(1125)&7
  4947                           	line	231
  4948                           ;finger test.c: 231: TXSTA = 0x24;
  4949  0E76  3024               	movlw	(024h)
  4950  0E77  0098               	movwf	(152)^080h	;volatile
  4951                           	line	232
  4952                           ;finger test.c: 232: RCSTA = 0X90;
  4953  0E78  3090               	movlw	(090h)
  4954  0E79  1283               	bcf	status, 5	;RP0=0, select bank0
  4955  0E7A  1303               	bcf	status, 6	;RP1=0, select bank0
  4956  0E7B  0098               	movwf	(24)	;volatile
  4957  0E7C  2E7D               	goto	l793
  4958                           	line	233
  4959                           	
  4960  0E7D                     l3696:	
  4961                           	line	234
  4962                           ;finger test.c: 233: return;
  4963                           	
  4964  0E7D                     l793:	
  4965  0E7D  0008               	return
  4966                           	opt stack 0
  4967                           GLOBAL	__end_of_uart_init
  4968  0E7E                     	__end_of_uart_init:
  4969 ;; =============== function _uart_init ends ============
  4970                           
  4971                           	signat	_uart_init,88
  4972                           	global	_receive
  4973                           psect	text570,local,class=CODE,delta=2
  4974                           global __ptext570
  4975  0EC5                     __ptext570:
  4976                           
  4977 ;; *************** function _receive *****************
  4978 ;; Defined at:
  4979 ;;		line 196 in file "F:\pic projects\finger voting machine\finger test.c"
  4980 ;; Parameters:    Size  Location     Type
  4981 ;;		None
  4982 ;; Auto vars:     Size  Location     Type
  4983 ;;  k               2    0        int 
  4984 ;; Return value:  Size  Location     Type
  4985 ;;		None               void
  4986 ;; Registers used:
  4987 ;;		wreg, fsr0l, fsr0h, status,2, status,0
  4988 ;; Tracked objects:
  4989 ;;		On entry : 0/0
  4990 ;;		On exit  : 0/0
  4991 ;;		Unchanged: 0/0
  4992 ;; Data sizes:     COMMON   BANK0   BANK1   BANK3   BANK2
  4993 ;;      Params:         0       0       0       0       0
  4994 ;;      Locals:         0       0       0       0       0
  4995 ;;      Temps:          5       0       0       0       0
  4996 ;;      Totals:         5       0       0       0       0
  4997 ;;Total ram usage:        5 bytes
  4998 ;; Hardware stack levels used:    1
  4999 ;; This function calls:
  5000 ;;		Nothing
  5001 ;; This function is called by:
  5002 ;;		Interrupt level 1
  5003 ;; This function uses a non-reentrant model
  5004 ;;
  5005                           psect	text570
  5006                           	file	"F:\pic projects\finger voting machine\finger test.c"
  5007                           	line	196
  5008                           	global	__size_of_receive
  5009  0037                     	__size_of_receive	equ	__end_of_receive-_receive
  5010                           	
  5011  0EC5                     _receive:	
  5012                           	opt	stack 2
  5013                           ; Regs used in _receive: [wreg-fsr0h+status,2+status,0]
  5014                           psect	intentry,class=CODE,delta=2
  5015                           global __pintentry
  5016  0004                     __pintentry:
  5017                           global interrupt_function
  5018  0004                     interrupt_function:
  5019                           	global saved_w
  5020  007E                     	saved_w	set	btemp+0
  5021  0004  00FE               	movwf	saved_w
  5022  0005  0E03               	swapf	status,w
  5023  0006  00F6               	movwf	(??_receive+1)
  5024  0007  0804               	movf	fsr0,w
  5025  0008  00F7               	movwf	(??_receive+2)
  5026  0009  080A               	movf	pclath,w
  5027  000A  00F8               	movwf	(??_receive+3)
  5028  000B  1283               	bcf	status, 5	;RP0=0, select bank0
  5029  000C  1303               	bcf	status, 6	;RP1=0, select bank0
  5030  000D  087F               	movf	btemp+1,w
  5031  000E  00F9               	movwf	(??_receive+4)
  5032  000F  120A  158A  2EC5   	ljmp	_receive
  5033                           psect	text570
  5034                           	line	198
  5035                           	
  5036  0EC5                     i1l3268:	
  5037                           ;finger test.c: 198: if(RCIE && RCIF)
  5038  0EC5  1683               	bsf	status, 5	;RP0=1, select bank1
  5039  0EC6  1303               	bcf	status, 6	;RP1=0, select bank1
  5040  0EC7  1E8C               	btfss	(1125/8)^080h,(1125)&7
  5041  0EC8  2ECA               	goto	u287_21
  5042  0EC9  2ECB               	goto	u287_20
  5043  0ECA                     u287_21:
  5044  0ECA  2EF0               	goto	i1l790
  5045  0ECB                     u287_20:
  5046                           	
  5047  0ECB                     i1l3270:	
  5048  0ECB  1283               	bcf	status, 5	;RP0=0, select bank0
  5049  0ECC  1303               	bcf	status, 6	;RP1=0, select bank0
  5050  0ECD  1E8C               	btfss	(101/8),(101)&7
  5051  0ECE  2ED0               	goto	u288_21
  5052  0ECF  2ED1               	goto	u288_20
  5053  0ED0                     u288_21:
  5054  0ED0  2EF0               	goto	i1l790
  5055  0ED1                     u288_20:
  5056                           	line	201
  5057                           	
  5058  0ED1                     i1l3272:	
  5059                           ;finger test.c: 199: {
  5060                           ;finger test.c: 201: if(OERR)
  5061  0ED1  1C98               	btfss	(193/8),(193)&7
  5062  0ED2  2ED4               	goto	u289_21
  5063  0ED3  2ED5               	goto	u289_20
  5064  0ED4                     u289_21:
  5065  0ED4  2ED7               	goto	i1l788
  5066  0ED5                     u289_20:
  5067                           	line	203
  5068                           	
  5069  0ED5                     i1l3274:	
  5070                           ;finger test.c: 202: {
  5071                           ;finger test.c: 203: CREN = 0;
  5072  0ED5  1218               	bcf	(196/8),(196)&7
  5073                           	line	204
  5074                           ;finger test.c: 204: CREN = 1;
  5075  0ED6  1618               	bsf	(196/8),(196)&7
  5076                           	line	205
  5077                           	
  5078  0ED7                     i1l788:	
  5079                           	line	207
  5080                           ;finger test.c: 205: }
  5081                           ;finger test.c: 206: int k;
  5082                           ;finger test.c: 207: RCIF =0;
  5083  0ED7  128C               	bcf	(101/8),(101)&7
  5084                           	line	209
  5085                           	
  5086  0ED8                     i1l3276:	
  5087                           ;finger test.c: 209: if(RCREG==0xEF)
  5088  0ED8  081A               	movf	(26),w	;volatile
  5089  0ED9  3AEF               	xorlw	0EFh
  5090  0EDA  1D03               	skipz
  5091  0EDB  2EDD               	goto	u290_21
  5092  0EDC  2EDE               	goto	u290_20
  5093  0EDD                     u290_21:
  5094  0EDD  2EE1               	goto	i1l3280
  5095  0EDE                     u290_20:
  5096                           	line	211
  5097                           	
  5098  0EDE                     i1l3278:	
  5099                           ;finger test.c: 210: {
  5100                           ;finger test.c: 211: ii=0;
  5101  0EDE  01D4               	clrf	(_ii)
  5102  0EDF  01D5               	clrf	(_ii+1)
  5103  0EE0  2EE1               	goto	i1l3280
  5104                           	line	212
  5105                           	
  5106  0EE1                     i1l789:	
  5107                           	line	213
  5108                           	
  5109  0EE1                     i1l3280:	
  5110                           ;finger test.c: 212: }
  5111                           ;finger test.c: 213: aa[ii]=RCREG;
  5112  0EE1  081A               	movf	(26),w	;volatile
  5113  0EE2  00F5               	movwf	(??_receive+0)+0
  5114  0EE3  0854               	movf	(_ii),w
  5115  0EE4  3E20               	addlw	_aa&0ffh
  5116  0EE5  0084               	movwf	fsr0
  5117  0EE6  0875               	movf	(??_receive+0)+0,w
  5118  0EE7  1383               	bcf	status, 7	;select IRP bank0
  5119  0EE8  0080               	movwf	indf
  5120                           	line	216
  5121                           	
  5122  0EE9                     i1l3282:	
  5123                           ;finger test.c: 216: ii++;
  5124  0EE9  3001               	movlw	low(01h)
  5125  0EEA  07D4               	addwf	(_ii),f
  5126  0EEB  1803               	skipnc
  5127  0EEC  0AD5               	incf	(_ii+1),f
  5128  0EED  3000               	movlw	high(01h)
  5129  0EEE  07D5               	addwf	(_ii+1),f
  5130  0EEF  2EF0               	goto	i1l790
  5131                           	line	218
  5132                           	
  5133  0EF0                     i1l787:	
  5134                           	line	220
  5135                           	
  5136  0EF0                     i1l790:	
  5137  0EF0  0879               	movf	(??_receive+4),w
  5138  0EF1  1283               	bcf	status, 5	;RP0=0, select bank0
  5139  0EF2  00FF               	movwf	btemp+1
  5140  0EF3  0878               	movf	(??_receive+3),w
  5141  0EF4  008A               	movwf	pclath
  5142  0EF5  0877               	movf	(??_receive+2),w
  5143  0EF6  0084               	movwf	fsr0
  5144  0EF7  0E76               	swapf	(??_receive+1)^0FFFFFF80h,w
  5145  0EF8  0083               	movwf	status
  5146  0EF9  0EFE               	swapf	saved_w,f
  5147  0EFA  0E7E               	swapf	saved_w,w
  5148  0EFB  0009               	retfie
  5149                           	opt stack 0
  5150                           GLOBAL	__end_of_receive
  5151  0EFC                     	__end_of_receive:
  5152 ;; =============== function _receive ends ============
  5153                           
  5154                           	signat	_receive,88
  5155                           psect	text571,local,class=CODE,delta=2
  5156                           global __ptext571
  5157  0000                     __ptext571:
  5158                           	global	btemp
  5159  007E                     	btemp set 07Eh
  5160                           
  5161                           	DABS	1,126,2	;btemp
  5162                           	global	wtemp0
  5163  007E                     	wtemp0 set btemp


HI-TECH Software PICC Macro Assembler V9.83 build 10920 
Symbol Table                                                                                   Fri Dec 05 23:03:05 2014

                      _b 0190                        _c 01A4                        _d 01B8  
                      _i 0070                        pc 0002                       _AA 0110  
                     _OF 0059                       _RD 0C60                       _ON 005A  
                     _TT 005B                       _WR 0C61                       _TX 0E1D  
                     _aa 0020                       _bb 0129                       _ff 0072  
                     _gg 0052                       _hh 0073                       _ii 0054  
                     _qq 0074                       fsr 0004                      ?_TX 0075  
                    l800 0EC4                      l801 0EC4                      l810 07F5  
                    l804 0FFF                      l813 0794                      l822 0F9C  
                    l807 05DA                      l823 0F7A                      l831 0E4A  
                    l824 0FAC                      l816 0F27                      l840 01A2  
                    l760 034E                      l825 0FB7                      l817 0EFD  
                    l841 01A1                      l761 0355                      l753 02A3  
                    l818 0F38                      l834 0E5A                      l842 01A0  
                    l850 014B                      l770 0463                      l762 0394  
                    l754 0298                      l819 0F38                      l851 0199  
                    l843 0110                      l771 0464                      l763 039D  
                    l755 0298                      l828 0E3A                      l860 0229  
                    l852 019F                      l844 0161                      l772 0464  
                    l764 0462                      l756 029D                      l861 024B  
                    l837 01B1                      l853 01A8                      l845 0120  
                    l765 03F0                      l757 02E6                      l862 025F  
                    l854 01B0                      l838 01AA                      l846 014D  
                    l870 058F                      l766 03F0                      l758 03BF  
                    l775 0E23                      l863 027A                      l855 024E  
                    l839 01A9                      l847 0130                      l871 058E  
                    l767 03F7                      l759 034E                      l776 0E23  
                    l864 027A                      l856 01D9                      l848 014C  
                    l872 04DA                      l768 0436                      l793 0E7D  
                    l777 0E29                      l881 05FC                      l857 024D  
                    l849 0140                      l873 04F3                      l769 0461  
                    l778 0E2A                      l858 0201                      l874 055E  
                    l859 024C                      l867 0592                      l875 058D  
                    l796 0EB9                      l868 0591                      l876 0586  
                    l797 0E96                      l869 0590                      l877 058C  
                    l798 0EA3                      l878 0592                      l799 0EB3  
                    _GIE 005F                      _RB1 0031                      _RC0 0038  
                    _RB2 0032                      _RC1 0039                      _RC2 003A  
                    _RD2 0042                      _RD3 0043                      _MSG 0058  
                    _chk 005D              lcdcmd@value 0064              lcddata@temp 0068  
                    fsr0 0004                      indf 0000                     ??_TX 005E  
                   l4000 0523                     l4010 0547                     l4002 052E  
                   l4020 0586                     l4012 0552                     l4004 0536  
                   l4100 03F7                     l4006 053B                     l4014 055E  
                   l4110 0426                     l4102 03FC                     l4030 0285  
                   l4022 027B                     l4016 0566                     l4008 053E  
                   l4112 0427                     l4104 0404                     l4120 0436  
                   l4040 029D                     l4032 0286                     l4024 027F  
                   l4018 057A                     l4122 044A                     l4114 0428  
                   l4106 0418                     l4050 02DA                     l4042 02A3  
                   l4034 028B                     l4026 0281                     l4124 0455  
                   l4116 0431                     l4108 0423                     l4060 0323  
                   l4052 02E6                     l4044 02AE                     l4036 0290  
                   l4028 0284                     l4118 0434                     l4070 0362  
                   l4062 032C                     l4054 02FC                     l4046 02C4  
                   l4038 0297                     l4080 0386                     l4072 0376  
                   l4064 0337                     l4056 0307                     l4048 02CF  
                   l4090 03B3                     l4082 038F                     l4074 0381  
                   l4066 0355                     l4058 031D                     l3700 0E96  
                   l4084 0392                     l4076 0384                     l4068 035A  
                   l4092 03BF                     l3702 0E98                     l3710 0E20  
                   l4094 03C5                     l4078 0385                     l4086 0394  
                   l3704 0EA2                     l3720 0FB8                     l3800 0F9C  
                   l4096 03CE                     l4088 03A8                     l3706 0EA3  
                   l3730 0FCB                     l3722 0FBB                     l3802 0FAC  
                   l3810 0F13                     l4098 03D9                     l3708 0EB3  
                   l3740 0FE9                     l3732 0FCC                     l3724 0FBF  
                   l3804 070A                     l3812 0F1E                     l3820 0E4B  
                   l3900 0153                     l3750 0FFF                     l3742 0FED  
                   l3734 0FD5                     l3726 0FC3                     l3814 0F27  
                   l3806 0EFC                     l3822 05DB                     l3910 018D  
                   l3902 0161                     l3830 0036                     l3744 0FF1  
                   l3736 0FD8                     l3728 0FC7                     l3760 05A2  
                   l3752 0593                     l3808 0EFD                     l3816 0E2B  
                   l3824 05F1                     l3920 01B9                     l3912 0199  
                   l3904 016C                     l3840 0058                     l3832 0041  
                   l3690 0E6C                     l3746 0FF2                     l3738 0FE5  
                   l3770 05C0                     l3762 05A6                     l3754 0596  
                   l3818 0E3B                     l3930 0201                     l3922 01CD  
                   l3906 0174                     l3914 01A2                     l3850 008F  
                   l3842 0060                     l3834 0046                     l3826 0015  
                   l3692 0E71                     l3748 0FFB                     l3780 05D6  
                   l3772 05C4                     l3764 05A7                     l3756 059A  
                   l3932 0209                     l3924 01D9                     l3908 0179  
                   l3860 00AE                     l3940 024E                     l3852 0094  
                   l3844 0065                     l3916 01AA                     l3836 004E  
                   l3828 002B                     l3694 0E75                     l3782 05DA  
                   l3774 05C8                     l3766 05B0                     l3758 059E  
                   l3790 07E9                     l3950 026C                     l3942 0250  
                   l3934 021D                     l3926 01E1                     l3870 00DA  
                   l3862 00B3                     l3854 009C                     l3846 0079  
                   l3838 0053                     l3918 01B1                     l3696 0E7D  
                   l3776 05CC                     l3768 05B3                     l3792 07F2  
                   l3784 07E5                     l3944 025E                     l3936 0229  
                   l3928 01F5                     l3880 0101                     l3872 00E2  
                   l3864 00C0                     l3856 00A1                     l3848 0084  
                   l3960 047E                     l3952 0467                     l3698 0E91  
                   l3778 05CD                     l3786 07E6                     l3794 0F77  
                   l3946 025F                     l3938 023F                     l3890 0127  
                   l3882 010F                     l3874 00E7                     l3866 00C8  
                   l3858 00A6                     l3970 049D                     l3962 0486  
                   l3954 046C                     l3788 07E8                     l3796 0F7A  
                   l3948 0266                     l3892 0130                     l3884 0110  
                   l3876 00F5                     l3868 00CD                     l3980 04C4  
                   l3972 04A2                     l3964 048B                     l3956 0474  
                   l3798 0F95                     l3894 0137                     l3886 0117  
                   l3878 00FF                     l3990 04DF                     l3982 04C9  
                   l3974 04AA                     l3966 0490                     l3958 0479  
                   l3896 0140                     l3888 0120                     l3992 04E5  
                   l3984 04CB                     l3976 04AF                     l3968 0498  
                   l3898 014D                     l3986 04D9                     l3994 04F3  
                   l3978 04BC                     l3996 0509                     l3988 04DA  
                   l3998 0514                     STR_1 0600                     STR_2 0666  
                   STR_3 0600                     STR_4 0666                     STR_5 0622  
                   STR_6 0644                     STR_7 06EA                     STR_8 06C2  
                   STR_9 0622                     _BRGH 04C2                     _CREN 00C4  
                   u3500 0F86                     u3430 0EA1                     u3510 0FAB  
                   u3431 0EA0                     u3511 0FAA                     u3440 0EB2  
                   u3520 0F37                     u3600 00B3                     u3441 0EB1  
                   u3521 0F36                     u3601 00B2                     u3450 0EC3  
                   u3610 00C8                     u3530 004E                     u3451 0EC2  
                   u3515 0FA7                     u3611 00C7                     u3531 004D  
                   u3460 0E29                     u3700 0174                     u3620 00CD  
                   u3540 0053                     u3461 0E28                     u3701 0173  
                   u3621 00CC                     u3541 0052                     u3710 0179  
                   u3630 00E2                     u3550 0060                     u3455 0EBF  
                   u3711 0178                     u3631 00E1                     u3551 005F  
                   u3720 01B9                     u3640 00E7                     u3560 0065  
                   u3800 048B                     u3721 01B8                     u3641 00E6  
                   u3561 0064                     u3801 048A                     u3730 01E1  
                   u3650 010E                     u3570 009C                     u3810 0498  
                   u3731 01E0                     u3651 010D                     u3571 009B  
                   u3811 0497                     u3740 0209                     u3660 0117  
                   u3580 00A1                     u3900 053B                     u3820 049D  
                   u3485 0FDB                     u3741 0208                     u3661 0116  
                   u3581 00A0                     u3901 053A                     u3821 049C  
                   u3750 025D                     u3670 0127                     u3590 00AE  
                   u3910 0566                     u3830 04AA                     u3495 05B6  
                   u3751 025C                     u3671 0126                     u3655 010A  
                   u3591 00AD                     u3911 0565                     u3831 04A9  
                   u3760 0279                     u3680 0137                     u3840 04AF  
                   u3920 0296                     u3761 0278                     u3681 0136  
                   u3841 04AE                     u3921 0295                     u3690 0160  
                   u3850 04C4                     u3770 0474                     u3930 029C  
                   u3755 0259                     u3691 015F                     u3851 04C3  
                   u3771 0473                     u3931 029B                     _RCIE 0465  
                   u3860 04C9                     u3780 0479                     u3940 0323  
                   _RCIF 0065                     u3765 0275                     u3861 04C8  
                   u3781 0478                     u3941 0322                     u3870 04D8  
                   u3790 0486                     u3950 0354                     u3695 015C  
                   u3871 04D7                     u3791 0485                     u3951 0353  
                   u3880 04F2                     u3960 0362                     u3881 04F1  
                   u3961 0361                     u3890 0536                     u3970 03C5  
                   u3891 0535                     u3875 04D4                     u3971 03C4  
                   u3980 03F6                     u3885 04EE                     u3981 03F5  
                   u3990 0404                     u3991 0403                     _OERR 00C1  
                   _TRMT 04C1                     _WREN 0C62                     __SMS 005C  
                   _main 027B             lcddata@value 0064                     btemp 007E  
                   start 0012                    ?_main 0075                    _EEADR 010D  
                  STR_10 0633                    STR_11 06DD                    STR_12 06C2  
                  STR_20 0698                    STR_21 0688                    STR_13 0611  
                  STR_22 06D0                    STR_14 0677                    STR_23 06F8  
                  STR_15 0655                    STR_16 06F7                    STR_17 06A6  
                  STR_18 0701                    STR_19 06B4                    _CARRY 0018  
                  i1l790 0EF0                    i1l787 0EF0                    i1l788 0ED7  
                  i1l789 0EE1                    _RCREG 001A                    _RCSTA 0018  
                  _SPBRG 0099                    _PORTB 0006                    _TRISB 0086  
                  _TRISC 0087                    _TRISD 0088                    _TXREG 0019  
                  _TXSTA 0098             _Stortemplate 00A0          __end_of_lcddata 05DB  
        __end_of_display 0F39                    _delay 0E91                    _intrf 0056  
        __end_of_receive 0EFC                    pclath 000A                    status 0003  
                  wtemp0 007E             __end_of_main 0467               _Readfinger 0E2B  
                 ??_main 006E                   ?_delay 005E                   _EEDATA 010C  
                 _EECON1 018C                   _EECON2 018D            ?_errorDisplay 0075  
                 i1l3270 0ECB                   i1l3280 0EE1                   i1l3272 0ED1  
                 i1l3282 0EE9                   i1l3274 0ED5                   i1l3276 0ED8  
                 i1l3268 0EC5                   i1l3278 0EDE                   _INTCON 000B  
                 u290_20 0EDE                   u290_21 0EDD                   u287_20 0ECB  
                 u287_21 0ECA                   u288_20 0ED1                   u288_21 0ED0  
                 u289_20 0ED5                   u289_21 0ED4                   _TRISC6 043E  
                 _TRISC7 043F                   _GenImg 00C9               _Sendstring 0F77  
       __end_of_lcd_init 0795               _SrchFinger 0467              _Gentemplate 00D5  
                 _lcdcmd 0FB8                   delay@d 005E                   delay@h 0060  
                 delay@k 0062                ??_lcddata 0066                   clrloop 07F7  
              ??_display 006B                ??_receive 0075                   saved_w 007E  
         ??_errorDisplay 006D         ??_lcd_init_write 0064       __size_of_StorTempl 0266  
         __pcstackCOMMON 0075             __pidataBANK1 0795             __pidataBANK3 0E5B  
          __end_of_delay 0EC5               __end_of_TX 0E2B              ?_Readfinger 0075  
                ??_delay 0060               __pbssBANK0 0020               __pbssBANK2 0110  
             __pbssBANK3 0190              ?_Sendstring 0064               __pmaintext 027B  
            ?_SrchFinger 0075               __pintentry 0004                  ?_lcdcmd 0064  
      __end_of_StorTempl 027B       __size_of_uart_init 0012         Sendstring@length 0066  
              ?_lcd_init 0075       __size_of_storChar1 0010       __size_of_storChar2 0010  
    __size_of_Readfinger 0010                TX@TX_BYTE 005E              _Rdvlidtempl 00E1  
   __end_of_errorDisplay 05FD          __size_of_lcdcmd 0048                  _lcddata 0593  
                _display 0EFC                  _receive 0EC5      __size_of_Sendstring 0041  
             ??_lcd_init 0069      __size_of_SrchFinger 012C     end_of_initialization 0F73  
                init_ram 0E82        __end_of_uart_init 0E7E             __pstringtext 0600  
      __end_of_storChar1 0E4B        __end_of_storChar2 0E5B          StorTempl@chksum 00ED  
             lcdcmd@temp 0068          lcd_init_write@a 0064             ??_Readfinger 006A  
         __end_of_lcdcmd 1000      start_initialization 0F39       __end_of_Readfinger 0E3B  
  __size_of_errorDisplay 0022             ??_Sendstring 0067             ??_SrchFinger 006D  
               ??_lcdcmd 0066              __pdataBANK1 00A0              __pdataBANK3 01CC  
              _StorTempl 0015              __pbssCOMMON 0070            __pcstackBANK0 005E  
          __pcstackBANK1 00ED       __end_of_Sendstring 0FB8             _errorDisplay 05DB  
     __end_of_SrchFinger 0593        __size_of_lcd_init 008B  __size_of_lcd_init_write 0014  
              __ptext560 0E2B                __ptext561 0EFC                __ptext570 0EC5  
              __ptext562 070A                __ptext571 0000                __ptext563 0F77  
              __ptext555 0467                __ptext564 07E2                __ptext556 0015  
              __ptext565 0593                __ptext557 05DB                __ptext566 0FB8  
              __ptext558 0E4B                __ptext567 0E1D                __ptext559 0E3B  
              __ptext568 0E91                __ptext569 0E6C          Sendstring@strng 0064  
              __pstrings 0800                 ?_lcddata 0064                 ?_display 0069  
             ?_StorTempl 0075                 ?_receive 0075           __size_of_delay 0034  
            __size_of_TX 000E        interrupt_function 0004           StorTempl@addr1 00EE  
         StorTempl@addr2 00EF                _uart_init 0E6C              __stringbase 0812  
              _storChar1 0E3B                _storChar2 0E4B                 _Genchar1 00AF  
               _Genchar2 00BC                init_fetch 0E7E               ?_uart_init 0075  
             ?_storChar1 0075               ?_storChar2 0075         __size_of_lcddata 0048  
       __size_of_display 003D              ??_StorTempl 006D         __size_of_receive 0037  
               _lcd_init 070A            __size_of_main 01EC           _lcd_init_write 07E2  
               clear_ram 07F6                 display@p 0069                 intlevel1 0000  
           _Srchtemplate 01CC   __end_of_lcd_init_write 07F6                stringcode 080A  
            ??_uart_init 005E              ??_storChar1 006A              ??_storChar2 006A  
               stringtab 0800          ?_lcd_init_write 0075  
